MPLINK 5.00, LINKER
Linker Map File - Created Thu Jun 08 21:50:55 2017

                                 Section Info
                  Section       Type    Address   Location Size(Bytes)
                ---------  ---------  ---------  ---------  ---------
               _entry_scn       code   0x000000    program   0x000006
               highVector       code   0x000008    program   0x000006
                lowVector       code   0x000018    program   0x000006
                   .cinit    romdata   0x00002a    program   0x00016a
              .code_TCP.o       code   0x000194    program   0x004246
            .code_HTTP2.o       code   0x0043da    program   0x002fae
    .code_CustomHTTPApp.o       code   0x007388    program   0x002520
             .code_SMTP.o       code   0x0098a8    program   0x001516
            .code_DHCPs.o       code   0x00adbe    program   0x0014ac
      .code_BerkeleyAPI.o       code   0x00c26a    program   0x00143c
            .code_MPFS2.o       code   0x00d6a6    program   0x00136e
             .stringtable    romdata   0x00ea14    program   0x0010f7
      .idata_UnpkMath.o_i    romdata   0x00fb0b    program   0x000000
.romdata_Custom_UART_Low.o    romdata   0x00fb0b    program   0x000000
           .romdata_ARP.o    romdata   0x00fb0b    program   0x000000
      .romdata_fxd3232u.o    romdata   0x00fb0b    program   0x000000
         .idata_errno.o_i    romdata   0x00fb0b    program   0x000000
         .idata_frexp.o_i    romdata   0x00fb0b    program   0x000000
.romdata_Custom_I2C_Low.o    romdata   0x00fb0b    program   0x000000
           .romdata_pow.o    romdata   0x00fb0b    program   0x000000
      .romdata_swgtci2c.o    romdata   0x00fb0b    program   0x000000
           .romdata_UDP.o    romdata   0x00fb0b    program   0x000000
          .romdata_DNSs.o    romdata   0x00fb0b    program   0x000000
          .romdata_Tick.o    romdata   0x00fb0b    program   0x000000
    .romdata_ENCX24J600.o    romdata   0x00fb0b    program   0x000000
        .idata_Telnet.o_i    romdata   0x00fb0b    program   0x000001
        .romdata_SPIRAM.o    romdata   0x00fb0b    program   0x000000
       .romdata_Helpers.o    romdata   0x00fb0b    program   0x000000
          .romdata_SNMP.o    romdata   0x00fb0b    program   0x000000
         .romdata_MPFS2.o    romdata   0x00fb0b    program   0x000000
      .romdata_PingDemo.o    romdata   0x00fb0b    program   0x000000
          .romdata_fabs.o    romdata   0x00fb0b    program   0x000000
         .idata_ldexp.o_i    romdata   0x00fb0b    program   0x000000
       .idata_sprintf.o_i    romdata   0x00fb0b    program   0x000000
.romdata_BerkeleyTCPServerDemo.o    romdata   0x00fb0b    program   0x000000
    .romdata__user_putc.o    romdata   0x00fb0b    program   0x000000
              .code_UDP.o       code   0x00fb0c    program   0x000ed4
             .code_DHCP.o       code   0x0109e0    program   0x000ec4
         .code_vfprintf.o       code   0x0118a4    program   0x000c22
          .code_Helpers.o       code   0x0124c6    program   0x000c0e
              .code_pow.o       code   0x0130d4    program   0x000b1e
           .code_Telnet.o       code   0x013bf2    program   0x000b08
           .code_Hashes.o       code   0x0146fa    program   0x000aec
              .code_DNS.o       code   0x0151e6    program   0x000972
         .code_MainDemo.o       code   0x015b58    program   0x000926
         .code_ETH97J60.o       code   0x01647e    program   0x0008cc
                     PROG       code   0x016d4a    program   0x00078a
           .code_AutoIP.o       code   0x0174d4    program   0x000786
              .code_exp.o       code   0x017c5a    program   0x0005c6
.code_TCPPerformanceTest.o       code   0x018220    program   0x00054e
       .code_UARTConfig.o       code   0x01876e    program   0x000538
   .code_Misc_Functions.o       code   0x018ca6    program   0x000504
              .code_log.o       code   0x0191aa    program   0x0004fa
                   STDLIB       code   0x0196a4    program   0x0004ee
              .code_ARP.o       code   0x019b92    program   0x0004dc
         .code_SPIFlash.o       code   0x01a06e    program   0x00046a
             .code_NBNS.o       code   0x01a4d8    program   0x000462
.code_BerkeleyUDPClientDemo.o       code   0x01a93a    program   0x000420
             .code_ICMP.o       code   0x01ad5a    program   0x0003d6
                   STRING       code   0x01b130    program   0x0003ae
             .code_SNTP.o       code   0x01b4de    program   0x00032c
   .code_UART2TCPBridge.o       code   0x01b80a    program   0x0002f2
            .code_fchop.o       code   0x01bafc    program   0x000292
               .code_IP.o       code   0x01bd8e    program   0x000292
         .code_StackTsk.o       code   0x01c020    program   0x00027a
         .code_Announce.o       code   0x01c29a    program   0x000274
.code_BerkeleyTCPServerDemo.o       code   0x01c50e    program   0x00022c
 .code_GenericTCPClient.o       code   0x01c73a    program   0x000228
.code_BerkeleyTCPClientDemo.o       code   0x01c962    program   0x0001da
        .romdata_Telnet.o    romdata   0x01cb3c    program   0x000168
 .code_GenericTCPServer.o       code   0x01cca4    program   0x000168
       .code_Custom_I2C.o       code   0x01ce0c    program   0x00014e
        .romdata_Hashes.o    romdata   0x01cf5a    program   0x000140
            .code_ldexp.o       code   0x01d09a    program   0x000138
   .code_Custom_I2C_Low.o       code   0x01d1d2    program   0x000136
      .code_Custom_UART.o       code   0x01d308    program   0x000132
           .code_Reboot.o       code   0x01d43a    program   0x000126
            .code_frexp.o       code   0x01d560    program   0x000124
         .code_UnpkMath.o       code   0x01d684    program   0x00011c
         .code_PackMath.o       code   0x01d7a0    program   0x00011a
             .code_UART.o       code   0x01d8ba    program   0x000118
  .code_Custom_UART_Low.o       code   0x01d9d2    program   0x00010a
         .code_SMTPDemo.o       code   0x01dadc    program   0x0000e6
         .code_PingDemo.o       code   0x01dbc2    program   0x0000e4
             .code_Tick.o       code   0x01dca6    program   0x0000e0
   .code_Custom_SPI_Low.o       code   0x01dd86    program   0x0000c2
          .code_sprintf.o       code   0x01de48    program   0x0000ac
               _cinit_scn       code   0x01def4    program   0x00009e
             .code_putc.o       code   0x01df92    program   0x000084
         .romdata_HTTP2.o    romdata   0x01e016    program   0x00007e
          .code_fxm3232.o       code   0x01e094    program   0x000070
             .code_fabs.o       code   0x01e104    program   0x000066
         .code_swgtci2c.o       code   0x01e16a    program   0x00005c
         .code_fxd3232u.o       code   0x01e1c6    program   0x000048
       .code_Custom_SPI.o       code   0x01e20e    program   0x000042
           .romdata_TCP.o    romdata   0x01e250    program   0x000036
.romdata_GenericTCPClient.o    romdata   0x01e286    program   0x000033
       .idata_fxm3232.o_i    romdata   0x01e2b9    program   0x000000
           .romdata_log.o    romdata   0x01e2b9    program   0x000000
      .romdata_fxd1616u.o    romdata   0x01e2b9    program   0x000000
          .idata_putc.o_i    romdata   0x01e2b9    program   0x000000
        .romdata___init.o    romdata   0x01e2b9    program   0x000000
      .romdata_swckti2c.o    romdata   0x01e2b9    program   0x000000
           .romdata_exp.o    romdata   0x01e2b9    program   0x000000
     .idata_SPIEEPROM.o_i    romdata   0x01e2b9    program   0x000000
      .idata_vfprintf.o_i    romdata   0x01e2b9    program   0x000000
      .romdata_SPIFlash.o    romdata   0x01e2b9    program   0x000000
.idata_UDPPerformanceTest.o_i    romdata   0x01e2b9    program   0x000000
         .romdata_TFTPc.o    romdata   0x01e2b9    program   0x000000
         .idata_TFTPc.o_i    romdata   0x01e2b9    program   0x000000
      .romdata_PackMath.o    romdata   0x01e2b9    program   0x000000
         .idata_fchop.o_i    romdata   0x01e2b9    program   0x000000
.romdata_GenericTCPServer.o    romdata   0x01e2b9    program   0x000000
      .idata_PingDemo.o_i    romdata   0x01e2b9    program   0x000001
      .romdata_ENC28J60.o    romdata   0x01e2b9    program   0x000000
      .romdata_SMTPDemo.o    romdata   0x01e2b9    program   0x000000
    .romdata_UARTConfig.o    romdata   0x01e2b9    program   0x000000
           .romdata_DNS.o    romdata   0x01e2b9    program   0x000000
    .romdata_Custom_I2C.o    romdata   0x01e2b9    program   0x000000
   .romdata_Custom_UART.o    romdata   0x01e2b9    program   0x000000
         .idata_c018i.o_i    romdata   0x01e2b9    program   0x000000
   .romdata_LCDBlocking.o    romdata   0x01e2b9    program   0x000000
   .romdata_BerkeleyAPI.o    romdata   0x01e2b9    program   0x000000
         .code_fxd1616u.o       code   0x01e2ba    program   0x00002c
                    .code       code   0x01e2e6    program   0x00002c
                    CTYPE       code   0x01e312    program   0x000024
              D1KTCYXCODE       code   0x01e336    program   0x000020
             _startup_scn       code   0x01e356    program   0x00001c
                    STDIO       code   0x01e372    program   0x00001c
              D10TCYXCODE       code   0x01e38e    program   0x000016
      .romdata_vfprintf.o    romdata   0x01e3a4    program   0x000011
      .idata_swgtci2c.o_i    romdata   0x01e3b5    program   0x000000
          .idata_fabs.o_i    romdata   0x01e3b5    program   0x000000
        .romdata_AutoIP.o    romdata   0x01e3b5    program   0x000000
      .idata_fxd3232u.o_i    romdata   0x01e3b5    program   0x000000
        .romdata_DynDNS.o    romdata   0x01e3b5    program   0x000000
.romdata_UART2TCPBridge.o    romdata   0x01e3b5    program   0x000000
    .idata_UARTConfig.o_i    romdata   0x01e3b5    program   0x000000
      .romdata_UnpkMath.o    romdata   0x01e3b5    program   0x000000
           .idata_pow.o_i    romdata   0x01e3b5    program   0x000000
.romdata_Custom_SPI_Low.o    romdata   0x01e3b5    program   0x000000
         .romdata_errno.o    romdata   0x01e3b5    program   0x000000
      .idata_PackMath.o_i    romdata   0x01e3b5    program   0x000000
         .romdata_DHCPs.o    romdata   0x01e3b5    program   0x000000
         .romdata_frexp.o    romdata   0x01e3b5    program   0x000000
 .romdata_CustomSNMPApp.o    romdata   0x01e3b5    program   0x000000
.romdata_TCPPerformanceTest.o    romdata   0x01e3b5    program   0x000000
          .idata_SNMP.o_i    romdata   0x01e3b5    program   0x000000
         .romdata_ldexp.o    romdata   0x01e3b5    program   0x000000
          .idata_NBNS.o_i    romdata   0x01e3b5    program   0x000001
          .romdata_NBNS.o    romdata   0x01e3b5    program   0x000000
    .idata__user_putc.o_i    romdata   0x01e3b5    program   0x000000
           .romdata_FTP.o    romdata   0x01e3b5    program   0x000000
     .romdata_SPIEEPROM.o    romdata   0x01e3b5    program   0x000000
          .romdata_SMTP.o    romdata   0x01e3b5    program   0x000000
        .idata_SPIRAM.o_i    romdata   0x01e3b5    program   0x000000
            .romdata_IP.o    romdata   0x01e3b5    program   0x000000
       .romdata_sprintf.o    romdata   0x01e3b5    program   0x000000
         .code_swckti2c.o       code   0x01e3b6    program   0x000010
.romdata_BerkeleyTCPClientDemo.o    romdata   0x01e3c6    program   0x00000f
      .romdata_MainDemo.o    romdata   0x01e3d5    program   0x000006
 .romdata_CustomHTTPApp.o    romdata   0x01e3db    program   0x000006
.romdata_Misc_Functions.o    romdata   0x01e3e1    program   0x000000
         .romdata_Delay.o    romdata   0x01e3e1    program   0x000000
      .idata_swckti2c.o_i    romdata   0x01e3e1    program   0x000000
        .romdata_Reboot.o    romdata   0x01e3e1    program   0x000000
        .idata_Reboot.o_i    romdata   0x01e3e1    program   0x000001
           .idata_log.o_i    romdata   0x01e3e1    program   0x000000
         .romdata_c018i.o    romdata   0x01e3e1    program   0x000000
      .idata_fxd1616u.o_i    romdata   0x01e3e1    program   0x000000
        .idata___init.o_i    romdata   0x01e3e1    program   0x000000
          .romdata_DHCP.o    romdata   0x01e3e1    program   0x000000
      .romdata_Announce.o    romdata   0x01e3e1    program   0x000000
       .romdata_fxm3232.o    romdata   0x01e3e1    program   0x000000
      .romdata_ETH97J60.o    romdata   0x01e3e1    program   0x000000
           .idata_exp.o_i    romdata   0x01e3e1    program   0x000000
         .romdata_fchop.o    romdata   0x01e3e1    program   0x000000
      .romdata_StackTsk.o    romdata   0x01e3e1    program   0x000000
.romdata_BerkeleyUDPClientDemo.o    romdata   0x01e3e1    program   0x000000
          .idata_UART.o_i    romdata   0x01e3e1    program   0x000000
          .romdata_UART.o    romdata   0x01e3e1    program   0x000000
      .idata_SPIFlash.o_i    romdata   0x01e3e1    program   0x000000
          .romdata_ICMP.o    romdata   0x01e3e1    program   0x000000
.romdata_UDPPerformanceTest.o    romdata   0x01e3e1    program   0x000000
    .romdata_Custom_SPI.o    romdata   0x01e3e1    program   0x000000
          .romdata_putc.o    romdata   0x01e3e1    program   0x000000
          .romdata_SNTP.o    romdata   0x01e3e1    program   0x000000
       .code__user_putc.o       code   0x01e3e2    program   0x000002
           .code___init.o       code   0x01e3e4    program   0x000002
           .idata_UDP.o_i    romdata   0x01e3e6    program   0x000002
.idata_UART2TCPBridge.o_i    romdata   0x01e3e8    program   0x00000a
          .idata_Tick.o_i    romdata   0x01e3f2    program   0x000004
.idata_TCPPerformanceTest.o_i    romdata   0x01e3f6    program   0x000002
           .idata_TCP.o_i    romdata   0x01e3f8    program   0x000002
      .idata_StackTsk.o_i    romdata   0x01e3fa    program   0x000002
          .idata_SNTP.o_i    romdata   0x01e3fc    program   0x00000a
      .idata_SMTPDemo.o_i    romdata   0x01e406    program   0x000048
          .idata_SMTP.o_i    romdata   0x01e44e    program   0x000003
      .idata_MainDemo.o_i    romdata   0x01e451    program   0x00000a
.idata_Misc_Functions.o_i    romdata   0x01e451    program   0x000000
         .idata_MPFS2.o_i    romdata   0x01e45b    program   0x000000
   .idata_LCDBlocking.o_i    romdata   0x01e45b    program   0x000000
            .idata_IP.o_i    romdata   0x01e45b    program   0x000002
          .idata_ICMP.o_i    romdata   0x01e45d    program   0x000001
       .idata_Helpers.o_i    romdata   0x01e45e    program   0x000004
.idata_GenericTCPServer.o_i    romdata   0x01e462    program   0x000001
         .idata_HTTP2.o_i    romdata   0x01e462    program   0x000000
        .idata_Hashes.o_i    romdata   0x01e462    program   0x000000
.idata_GenericTCPClient.o_i    romdata   0x01e463    program   0x000013
      .idata_ETH97J60.o_i    romdata   0x01e476    program   0x000000
    .idata_ENCX24J600.o_i    romdata   0x01e476    program   0x000000
      .idata_ENC28J60.o_i    romdata   0x01e476    program   0x000000
           .idata_FTP.o_i    romdata   0x01e476    program   0x000000
        .idata_DynDNS.o_i    romdata   0x01e476    program   0x000000
          .idata_DNSs.o_i    romdata   0x01e476    program   0x000000
           .idata_DNS.o_i    romdata   0x01e476    program   0x000003
         .idata_Delay.o_i    romdata   0x01e476    program   0x000000
         .idata_DHCPs.o_i    romdata   0x01e479    program   0x000008
          .idata_DHCP.o_i    romdata   0x01e481    program   0x000001
.idata_Custom_SPI_Low.o_i    romdata   0x01e482    program   0x000000
    .idata_Custom_SPI.o_i    romdata   0x01e482    program   0x000000
.idata_Custom_I2C_Low.o_i    romdata   0x01e482    program   0x000001
.idata_Custom_UART_Low.o_i    romdata   0x01e482    program   0x000000
   .idata_Custom_UART.o_i    romdata   0x01e482    program   0x000000
 .idata_CustomSNMPApp.o_i    romdata   0x01e483    program   0x000000
 .idata_CustomHTTPApp.o_i    romdata   0x01e483    program   0x00001a
    .idata_Custom_I2C.o_i    romdata   0x01e483    program   0x000000
.idata_BerkeleyUDPClientDemo.o_i    romdata   0x01e49d    program   0x000009
.idata_BerkeleyTCPServerDemo.o_i    romdata   0x01e4a6    program   0x000001
.idata_BerkeleyTCPClientDemo.o_i    romdata   0x01e4a7    program   0x00006e
   .idata_BerkeleyAPI.o_i    romdata   0x01e515    program   0x000002
      .idata_Announce.o_i    romdata   0x01e517    program   0x000001
        .idata_AutoIP.o_i    romdata   0x01e517    program   0x000000
           .idata_ARP.o_i    romdata   0x01e518    program   0x000001
      .code_LCDBlocking.o       code   0x01e51a    program   0x000000
            .code_Delay.o       code   0x01e51a    program   0x000000
             .code_SNMP.o       code   0x01e51a    program   0x000000
            .code_c018i.o       code   0x01e51a    program   0x000000
        .code_SPIEEPROM.o       code   0x01e51a    program   0x000000
    .code_CustomSNMPApp.o       code   0x01e51a    program   0x000000
            .code_errno.o       code   0x01e51a    program   0x000000
.code_UDPPerformanceTest.o       code   0x01e51a    program   0x000000
             .code_DNSs.o       code   0x01e51a    program   0x000000
              .code_FTP.o       code   0x01e51a    program   0x000000
           .code_DynDNS.o       code   0x01e51a    program   0x000000
           .code_SPIRAM.o       code   0x01e51a    program   0x000000
            .code_TFTPc.o       code   0x01e51a    program   0x000000
         .code_ENC28J60.o       code   0x01e51a    program   0x000000
       .code_ENCX24J600.o       code   0x01e51a    program   0x000000
 .config_1fff8_MainDemo.o    romdata   0x01fff8    program   0x000001
 .config_1fffa_MainDemo.o    romdata   0x01fffa    program   0x000001
 .config_1fffd_MainDemo.o    romdata   0x01fffd    program   0x000001
                 .tmpdata      udata   0x000000       data   0x000020
                MATH_DATA      udata   0x000020       data   0x000014
                DELAYDAT1      udata   0x000034       data   0x000001
           .udata_MPFS2.o      udata   0x000060       data   0x00009a
          .udata_Telnet.o      udata   0x0000fa       data   0x000006
                 TCB_uRAM      udata   0x000100       data   0x0000fc
            .udata_SNTP.o      udata   0x0001fc       data   0x000004
             .udata_UDP.o      udata   0x000200       data   0x0000f6
           .udata_c018i.o      udata   0x0002f6       data   0x00000a
             .udata_TCP.o      udata   0x000300       data   0x0000cf
            .udata_DHCP.o      udata   0x0003cf       data   0x000031
   HTTP_CONNECTION_STATES      udata   0x000400       data   0x000084
           .udata_DHCPs.o      udata   0x000484       data   0x000077
            .udata_NBNS.o      udata   0x0004fb       data   0x000005
.idata_BerkeleyTCPClientDemo.o      idata   0x000500       data   0x00006e
          .udata_Hashes.o      udata   0x00056e       data   0x00006a
             .udata_ARP.o      udata   0x0005d8       data   0x000027
.udata_GenericTCPServer.o      udata   0x0005ff       data   0x000001
  .udata_UART2TCPBridge.o      udata   0x000600       data   0x000053
        .udata_MainDemo.o      udata   0x000653       data   0x00004d
                 BSD_uRAM      udata   0x0006a0       data   0x00004b
.idata_GenericTCPClient.o      idata   0x0006eb       data   0x000013
              temp_tblptr      udata   0x0006fe       data   0x000002
         .udata_Helpers.o      udata   0x000700       data   0x00004a
        .idata_SMTPDemo.o      idata   0x00074a       data   0x000048
     .udata_BerkeleyAPI.o      udata   0x000792       data   0x000046
             .udata_DNS.o      udata   0x0007d8       data   0x000026
        .udata_swgtci2c.o      udata   0x0007fe       data   0x000002
       SYN_QUEUE_RAM_SECT      udata   0x000800       data   0x00003c
          .udata_AutoIP.o      udata   0x00083c       data   0x00003c
        .udata_SPIFlash.o      udata   0x000878       data   0x000037
        .udata_ETH97J60.o      udata   0x0008af       data   0x000034
   .idata_CustomHTTPApp.o      idata   0x0008e3       data   0x00001a
            .idata_SMTP.o      idata   0x0008fd       data   0x000003
           .udata_HTTP2.o      udata   0x000900       data   0x000021
.udata_TCPPerformanceTest.o      udata   0x000921       data   0x000020
            .udata_ICMP.o      udata   0x000941       data   0x00001e
.udata_BerkeleyUDPClientDemo.o      udata   0x00095f       data   0x000019
              .udata_IP.o      udata   0x000978       data   0x000012
.udata_BerkeleyTCPClientDemo.o      udata   0x00098a       data   0x000011
      .udata_Custom_I2C.o      udata   0x00099b       data   0x00000d
            .udata_UART.o      udata   0x0009a8       data   0x00000c
     .udata_Custom_UART.o      udata   0x0009b4       data   0x00000c
            .udata_Tick.o      udata   0x0009c0       data   0x00000a
  .idata_UART2TCPBridge.o      idata   0x0009ca       data   0x00000a
            .idata_SNTP.o      idata   0x0009d4       data   0x00000a
        .idata_MainDemo.o      idata   0x0009de       data   0x00000a
.idata_BerkeleyUDPClientDemo.o      idata   0x0009e8       data   0x000009
           .idata_DHCPs.o      idata   0x0009f1       data   0x000008
  .udata_Misc_Functions.o      udata   0x0009f9       data   0x000007
              UART_BUFFER      udata   0x000a00       data   0x000100
 .udata_Custom_UART_Low.o      udata   0x000b00       data   0x000005
      .udata_Custom_SPI.o      udata   0x000b05       data   0x000005
        .udata_SMTPDemo.o      udata   0x000b0a       data   0x000004
        .udata_PingDemo.o      udata   0x000b0e       data   0x000004
.udata_GenericTCPClient.o      udata   0x000b12       data   0x000004
.udata_BerkeleyTCPServerDemo.o      udata   0x000b16       data   0x000004
            .idata_Tick.o      idata   0x000b1a       data   0x000004
         .idata_Helpers.o      idata   0x000b1e       data   0x000004
             .idata_DNS.o      idata   0x000b22       data   0x000003
           .udata_errno.o      udata   0x000b25       data   0x000002
             .idata_UDP.o      idata   0x000b27       data   0x000002
.idata_TCPPerformanceTest.o      idata   0x000b29       data   0x000002
             .idata_TCP.o      idata   0x000b2b       data   0x000002
        .idata_StackTsk.o      idata   0x000b2d       data   0x000002
              .idata_IP.o      idata   0x000b2f       data   0x000002
     .idata_BerkeleyAPI.o      idata   0x000b31       data   0x000002
  .udata_Custom_I2C_Low.o      udata   0x000b33       data   0x000001
        .udata_Announce.o      udata   0x000b34       data   0x000001
          .idata_Telnet.o      idata   0x000b35       data   0x000001
          .idata_Reboot.o      idata   0x000b36       data   0x000001
        .idata_PingDemo.o      idata   0x000b37       data   0x000001
            .idata_NBNS.o      idata   0x000b38       data   0x000001
            .idata_ICMP.o      idata   0x000b39       data   0x000001
.idata_GenericTCPServer.o      idata   0x000b3a       data   0x000001
            .idata_DHCP.o      idata   0x000b3b       data   0x000001
  .idata_Custom_I2C_Low.o      idata   0x000b3c       data   0x000001
.idata_BerkeleyTCPServerDemo.o      idata   0x000b3d       data   0x000001
        .idata_Announce.o      idata   0x000b3e       data   0x000001
             .idata_ARP.o      idata   0x000b3f       data   0x000001
        .idata_UnpkMath.o      idata   0x000b40       data   0x000000
           .udata_fchop.o      udata   0x000b40       data   0x000000
             .idata_pow.o      idata   0x000b40       data   0x000000
           .idata_MPFS2.o      idata   0x000b40       data   0x000000
             .udata_pow.o      udata   0x000b40       data   0x000000
             .udata_FTP.o      udata   0x000b40       data   0x000000
     .idata_LCDBlocking.o      idata   0x000b40       data   0x000000
             .idata_FTP.o      idata   0x000b40       data   0x000000
     .udata_LCDBlocking.o      udata   0x000b40       data   0x000000
           .idata_errno.o      idata   0x000b40       data   0x000000
          .idata_Hashes.o      idata   0x000b40       data   0x000000
        .idata_PackMath.o      idata   0x000b40       data   0x000000
        .udata_PackMath.o      udata   0x000b40       data   0x000000
           .idata_HTTP2.o      idata   0x000b40       data   0x000000
           .idata_frexp.o      idata   0x000b40       data   0x000000
           .udata_frexp.o      udata   0x000b40       data   0x000000
           .idata_c018i.o      idata   0x000b40       data   0x000000
   .idata_CustomSNMPApp.o      idata   0x000b40       data   0x000000
   .udata_CustomSNMPApp.o      udata   0x000b40       data   0x000000
.idata_UDPPerformanceTest.o      idata   0x000b40       data   0x000000
.udata_UDPPerformanceTest.o      udata   0x000b40       data   0x000000
            .idata_UART.o      idata   0x000b40       data   0x000000
        .idata_swgtci2c.o      idata   0x000b40       data   0x000000
           .idata_TFTPc.o      idata   0x000b40       data   0x000000
           .udata_TFTPc.o      udata   0x000b40       data   0x000000
        .udata_swckti2c.o      udata   0x000b40       data   0x000000
        .idata_swckti2c.o      idata   0x000b40       data   0x000000
        .udata_fxd1616u.o      udata   0x000b40       data   0x000000
        .idata_fxd1616u.o      idata   0x000b40       data   0x000000
        .udata_fxd3232u.o      udata   0x000b40       data   0x000000
          .idata_SPIRAM.o      idata   0x000b40       data   0x000000
          .udata_SPIRAM.o      udata   0x000b40       data   0x000000
        .idata_fxd3232u.o      idata   0x000b40       data   0x000000
         .udata_fxm3232.o      udata   0x000b40       data   0x000000
         .idata_fxm3232.o      idata   0x000b40       data   0x000000
          .udata___init.o      udata   0x000b40       data   0x000000
          .idata___init.o      idata   0x000b40       data   0x000000
        .idata_SPIFlash.o      idata   0x000b40       data   0x000000
       .idata_SPIEEPROM.o      idata   0x000b40       data   0x000000
       .udata_SPIEEPROM.o      udata   0x000b40       data   0x000000
            .idata_SNMP.o      idata   0x000b40       data   0x000000
            .udata_SNMP.o      udata   0x000b40       data   0x000000
             .udata_log.o      udata   0x000b40       data   0x000000
          .udata_Reboot.o      udata   0x000b40       data   0x000000
             .idata_log.o      idata   0x000b40       data   0x000000
        .udata_UnpkMath.o      udata   0x000b40       data   0x000000
        .idata_ENC28J60.o      idata   0x000b40       data   0x000000
        .udata_ENC28J60.o      udata   0x000b40       data   0x000000
          .idata_DynDNS.o      idata   0x000b40       data   0x000000
          .udata_DynDNS.o      udata   0x000b40       data   0x000000
            .idata_DNSs.o      idata   0x000b40       data   0x000000
            .udata_DNSs.o      udata   0x000b40       data   0x000000
           .idata_ldexp.o      idata   0x000b40       data   0x000000
         .udata_sprintf.o      udata   0x000b40       data   0x000000
         .idata_sprintf.o      idata   0x000b40       data   0x000000
        .udata_vfprintf.o      udata   0x000b40       data   0x000000
           .idata_Delay.o      idata   0x000b40       data   0x000000
           .udata_Delay.o      udata   0x000b40       data   0x000000
        .idata_vfprintf.o      idata   0x000b40       data   0x000000
            .udata_putc.o      udata   0x000b40       data   0x000000
          .idata_AutoIP.o      idata   0x000b40       data   0x000000
            .idata_putc.o      idata   0x000b40       data   0x000000
  .idata_Misc_Functions.o      idata   0x000b40       data   0x000000
 .idata_Custom_UART_Low.o      idata   0x000b40       data   0x000000
     .idata_Custom_UART.o      idata   0x000b40       data   0x000000
  .idata_Custom_SPI_Low.o      idata   0x000b40       data   0x000000
      .udata__user_putc.o      udata   0x000b40       data   0x000000
      .idata_Custom_SPI.o      idata   0x000b40       data   0x000000
      .idata_Custom_I2C.o      idata   0x000b40       data   0x000000
      .idata__user_putc.o      idata   0x000b40       data   0x000000
      .idata_UARTConfig.o      idata   0x000b40       data   0x000000
      .udata_UARTConfig.o      udata   0x000b40       data   0x000000
            .udata_fabs.o      udata   0x000b40       data   0x000000
             .idata_exp.o      idata   0x000b40       data   0x000000
      .idata_ENCX24J600.o      idata   0x000b40       data   0x000000
             .udata_exp.o      udata   0x000b40       data   0x000000
        .idata_ETH97J60.o      idata   0x000b40       data   0x000000
      .udata_ENCX24J600.o      udata   0x000b40       data   0x000000
            .idata_fabs.o      idata   0x000b40       data   0x000000
           .udata_ldexp.o      udata   0x000b40       data   0x000000
           .idata_fchop.o      idata   0x000b40       data   0x000000
        SNTP.o:SNTPClient     actrec   0x000c00       data   0x000032
 Announce.o:DiscoveryTask     actrec   0x000c00       data   0x000001
          DHCP.o:DHCPInit     actrec   0x000c00       data   0x000001
   TCP.o:TCPGetTxFIFOFull     actrec   0x000c00       data   0x000004
      DHCP.o:_DHCPReceive     actrec   0x000c00       data   0x000009
SMTP.o:FindROMEmailAddress     actrec   0x000c00       data   0x000005
  SMTP.o:FindEmailAddress     actrec   0x000c00       data   0x000004
    ETH97J60.o:ReadPHYReg     actrec   0x000c00       data   0x000002
    UART.o:ReadStringUART     actrec   0x000c00       data   0x000002
   SMTP.o:SMTPPutROMArray     actrec   0x000c00       data   0x000002
            TCP.o:TCPTick     actrec   0x000c00       data   0x00000a
      SMTP.o:SMTPPutArray     actrec   0x000c00       data   0x000002
         DHCP.o:_DHCPSend     actrec   0x000c00       data   0x000005
GenericTCPClient.o:GenericTCPClient     actrec   0x000c00       data   0x00000c
      Reboot.o:RebootTask     actrec   0x000c00       data   0x00000e
   DHCPs.o:DHCPServerTask     actrec   0x000c00       data   0x00002f
         UART.o:getsUSART     actrec   0x000c00       data   0x000002
       TCP.o:TCPPeekArray     actrec   0x000c00       data   0x000006
  TCP.o:TCPAdjustFIFOSize     actrec   0x000c00       data   0x000006
         ARP.o:ARPProcess     actrec   0x000c00       data   0x00001d
BerkeleyTCPServerDemo.o:BerkeleyTCPServerDemo     actrec   0x000c00       data   0x000035
TCPPerformanceTest.o:TCPTXPerformanceTask     actrec   0x000c00       data   0x000014
BerkeleyAPI.o:BerkeleySocketInit     actrec   0x000c00       data   0x000004
TCPPerformanceTest.o:TCPRXPerformanceTask     actrec   0x000c00       data   0x000018
         ARP.o:ARPSendPkt     actrec   0x000c00       data   0x00001c
         TCP.o:TCPProcess     actrec   0x000c00       data   0x000025
      Telnet.o:TelnetTask     actrec   0x000c00       data   0x000044
Custom_UART.o:UART_Read_Array     actrec   0x000c00       data   0x000002
Custom_UART.o:UART_Read_String     actrec   0x000c00       data   0x000002
Custom_UART.o:UART_Write_Array     actrec   0x000c00       data   0x000002
  ETH97J60.o:MACGetHeader     actrec   0x000c00       data   0x000014
BerkeleyAPI.o:gethostname     actrec   0x000c00       data   0x000005
BerkeleyTCPClientDemo.o:BerkeleyTCPClientDemo     actrec   0x000c00       data   0x00000d
GenericTCPServer.o:GenericTCPServer     actrec   0x000c00       data   0x00002b
    Hashes.o:MD5HashBlock     actrec   0x000c00       data   0x00001a
UART2TCPBridge.o:UART2TCPBridgeTask     actrec   0x000c00       data   0x00000f
   ETH97J60.o:WritePHYReg     actrec   0x000c00       data   0x000001
      HTTP2.o:HTTPIncFile     actrec   0x000c00       data   0x000045
   HTTP2.o:HTTPMPFSUpload     actrec   0x000c00       data   0x000014
CustomHTTPApp.o:HTTPPrint_pot     actrec   0x000c00       data   0x00000a
CustomHTTPApp.o:HTTPPrint_UART_Output     actrec   0x000c00       data   0x000082
CustomHTTPApp.o:HTTPPrint_lcdtext     actrec   0x000c00       data   0x000002
CustomHTTPApp.o:HTTPPrint_hellomsg     actrec   0x000c00       data   0x000002
HTTP2.o:HTTPHeaderParseContentLength     actrec   0x000c00       data   0x00000c
HTTP2.o:HTTPHeaderParseCookie     actrec   0x000c00       data   0x000004
HTTP2.o:HTTPHeaderParseAuthorization     actrec   0x000c00       data   0x00002c
     HTTP2.o:HTTPSendFile     actrec   0x000c00       data   0x000045
Helpers.o:GenerateRandomDWORD     actrec   0x000c00       data   0x000014
     HTTP2.o:HTTPLoadConn     actrec   0x000c00       data   0x000002
CustomHTTPApp.o:HTTPPrint_cookiename     actrec   0x000c00       data   0x000002
         HTTP2.o:HTTPInit     actrec   0x000c00       data   0x000002
CustomHTTPApp.o:HTTPPrint_uploadedmd5     actrec   0x000c00       data   0x000001
CustomHTTPApp.o:HTTPPrintIP     actrec   0x000c00       data   0x000005
   Helpers.o:Base64Encode     actrec   0x000c00       data   0x000008
      Helpers.o:strncpy_m     actrec   0x000c00       data   0x000008
        Helpers.o:strnchr     actrec   0x000c00       data   0x000001
CustomHTTPApp.o:HTTPPrint_config_mac     actrec   0x000c00       data   0x000001
 Helpers.o:stricmppgm2ram     actrec   0x000c00       data   0x000002
            UDP.o:UDPInit     actrec   0x000c00       data   0x000001
          NBNS.o:NBNSTask     actrec   0x000c00       data   0x000021
            UDP.o:UDPTask     actrec   0x000c00       data   0x000005
BerkeleyUDPClientDemo.o:BerkeleyUDPClientDemo     actrec   0x000c00       data   0x000034
MainDemo.o:convertToDegrees     actrec   0x000c00       data   0x00000c
 MainDemo.o:InitAppConfig     actrec   0x000c00       data   0x000007
         UDP.o:UDPProcess     actrec   0x000c00       data   0x000019
MainDemo.o:DisplayIPValue     actrec   0x000c00       data   0x000005
         MPFS2.o:MPFSOpen     actrec   0x000c00       data   0x000018
         MPFS2.o:MPFSInit     actrec   0x000c00       data   0x000001
UARTConfig.o:DownloadMPFS     actrec   0x000c00       data   0x00008e
BerkeleyUDPClientDemo.o:BerkeleySNTPGetUTCSeconds     actrec   0x000c00       data   0x000008
CustomHTTPApp.o:HTTPExecuteGet     actrec   0x000c00       data   0x000044
         IP.o:IPGetHeader     actrec   0x000c00       data   0x000016
CustomHTTPApp.o:HTTPPostConfig     actrec   0x000c00       data   0x000039
CustomHTTPApp.o:HTTPPostEmail     actrec   0x000c00       data   0x00000c
      ICMP.o:ICMPGetReply     actrec   0x000c00       data   0x00000a
       ICMP.o:ICMPProcess     actrec   0x000c00       data   0x000004
CustomHTTPApp.o:HTTPPrint_temp     actrec   0x000c00       data   0x000014
       ETH97J60.o:MACInit     actrec   0x000c01       data   0x000001
     AutoIP.o:AutoIPTasks     actrec   0x000c02       data   0x000001
    Announce.o:AnnounceIP     actrec   0x000c02       data   0x000002
            TCP.o:TCPPeek     actrec   0x000c06       data   0x000001
          SMTP.o:SMTPTask     actrec   0x000c08       data   0x000007
          DHCP.o:DHCPTask     actrec   0x000c09       data   0x000001
      PingDemo.o:PingDemo     actrec   0x000c0a       data   0x000004
  SMTP.o:SMTPPutROMString     actrec   0x000c0c       data   0x000002
     SMTP.o:SMTPPutString     actrec   0x000c0c       data   0x000002
     MainDemo.o:ProcessIO     actrec   0x000c0c       data   0x000009
    BerkeleyAPI.o:connect     actrec   0x000c0d       data   0x00000c
            TCP.o:TCPInit     actrec   0x000c14       data   0x00000b
          Helpers.o:uitoa     actrec   0x000c15       data   0x000006
ETH97J60.o:MACCalcRxChecksum     actrec   0x000c16       data   0x000004
 UDP.o:FindMatchingSocket     actrec   0x000c19       data   0x000004
    Hashes.o:MD5Calculate     actrec   0x000c1a       data   0x000015
   Hashes.o:MD5AddROMData     actrec   0x000c1a       data   0x000002
      Hashes.o:MD5AddData     actrec   0x000c1a       data   0x000002
   Helpers.o:LFSRSeedRand     actrec   0x000c1f       data   0x000005
       NBNS.o:NBNSGetName     actrec   0x000c21       data   0x000003
       NBNS.o:NBNSPutName     actrec   0x000c21       data   0x000002
       TCP.o:HandleTCPSeg     actrec   0x000c25       data   0x00001c
 TCP.o:FindMatchingSocket     actrec   0x000c25       data   0x000006
   Helpers.o:Base64Decode     actrec   0x000c2c       data   0x000004
DHCPs.o:DHCPReplyToRequest     actrec   0x000c2f       data   0x000012
   DHCPs.o:DHCPServerInit     actrec   0x000c2f       data   0x000002
 DHCPs.o:renew_dhcps_Pool     actrec   0x000c2f       data   0x000006
CustomHTTPApp.o:HTTPPostMD5     actrec   0x000c2f       data   0x000004
   DHCPs.o:isIpAddrInPool     actrec   0x000c2f       data   0x000002
DHCPs.o:preAssign_ToDHCPClient_FromPool     actrec   0x000c2f       data   0x000006
Helpers.o:leftRotateDWORD     actrec   0x000c33       data   0x000002
      DNS.o:DNSIsResolved     actrec   0x000c34       data   0x000019
   BerkeleyAPI.o:recvfrom     actrec   0x000c34       data   0x000006
     Tick.o:TickGetDiv64K     actrec   0x000c34       data   0x000004
Helpers.o:ROMStringToIPAddress     actrec   0x000c34       data   0x000007
DHCPs.o:DHCPReplyToDiscovery     actrec   0x000c35       data   0x000006
BerkeleyAPI.o:closesocket     actrec   0x000c35       data   0x000003
     BerkeleyAPI.o:socket     actrec   0x000c35       data   0x000003
     BerkeleyAPI.o:listen     actrec   0x000c35       data   0x000006
     BerkeleyAPI.o:sendto     actrec   0x000c35       data   0x000020
     BerkeleyAPI.o:accept     actrec   0x000c35       data   0x000009
    HTTP2.o:HTTPURLDecode     actrec   0x000c39       data   0x000009
Helpers.o:FormatNetBIOSName     actrec   0x000c39       data   0x000001
       HTTP2.o:HTTPReadTo     actrec   0x000c39       data   0x000003
Helpers.o:StringToIPAddress     actrec   0x000c39       data   0x000007
 MainDemo.o:SaveAppConfig     actrec   0x000c39       data   0x000006
       BerkeleyAPI.o:recv     actrec   0x000c3a       data   0x000002
DHCPs.o:GetIPAddrFromIndex_DhcpPool     actrec   0x000c41       data   0x000004
DHCPs.o:isMacAddr_Effective     actrec   0x000c41       data   0x000002
DHCPs.o:postAssign_ToDHCPClient_FromPool     actrec   0x000c41       data   0x000002
TCP.o:GetMaxSegSizeOption     actrec   0x000c41       data   0x000004
 HTTP2.o:HTTPReadPostName     actrec   0x000c42       data   0x000001
HTTP2.o:HTTPReadPostValue     actrec   0x000c42       data   0x000001
DHCPs.o:getIndexByMacaddr_DhcpPool     actrec   0x000c43       data   0x000002
             TCP.o:TCPPut     actrec   0x000c44       data   0x000002
             TCP.o:TCPGet     actrec   0x000c44       data   0x000002
  TCP.o:TCPFindROMArrayEx     actrec   0x000c44       data   0x000031
     TCP.o:TCPFindArrayEx     actrec   0x000c44       data   0x000030
        TCP.o:TCPGetArray     actrec   0x000c44       data   0x000004
   TCP.o:TCPGetRxFIFOFree     actrec   0x000c44       data   0x000004
            TCP.o:TCPOpen     actrec   0x000c44       data   0x000001
      TCP.o:TCPRAMCopyROM     actrec   0x000c44       data   0x000012
Misc_Functions.o:Convert_String_to_Int     actrec   0x000c44       data   0x00000e
Custom_I2C.o:I2C_Transmit     actrec   0x000c44       data   0x000002
Misc_Functions.o:ConvertArrayToString     actrec   0x000c44       data   0x000003
  MPFS2.o:MPFSGetFilename     actrec   0x000c44       data   0x000004
MainDemo.o:fixTempOffsetUsingPotmeter     actrec   0x000c44       data   0x000002
 Custom_I2C.o:I2C_Receive     actrec   0x000c44       data   0x000003
Custom_UART.o:UART_Write_String     actrec   0x000c44       data   0x000002
Custom_SPI_Low.o:ReadSPI1     actrec   0x000c44       data   0x000001
Custom_SPI_Low.o:WriteSPI1     actrec   0x000c44       data   0x000001
 SNTP.o:SNTPGetUTCSeconds     actrec   0x000c44       data   0x000008
         MPFS2.o:MPFSSeek     actrec   0x000c45       data   0x000004
      MPFS2.o:MPFSOpenROM     actrec   0x000c45       data   0x000019
       MPFS2.o:MPFSOpenID     actrec   0x000c45       data   0x000001
 DHCPs.o:Compare_MAC_addr     actrec   0x000c45       data   0x000002
ETH97J60.o:MACSetReadPtrInRx     actrec   0x000c4d       data   0x000002
  ETH97J60.o:MACDiscardRx     actrec   0x000c4d       data   0x000002
    DNS.o:DNSPutROMString     actrec   0x000c4d       data   0x000005
       DNS.o:DNSPutString     actrec   0x000c4d       data   0x000004
        UDP.o:UDPGetArray     actrec   0x000c4d       data   0x000002
     DNS.o:DNSDiscardName     actrec   0x000c4f       data   0x000001
     UDP.o:UDPPutROMArray     actrec   0x000c52       data   0x000002
BerkeleyAPI.o:HandlePossibleTCPDisconnection     actrec   0x000c55       data   0x000004
        UDP.o:UDPPutArray     actrec   0x000c55       data   0x000002
           UDP.o:UDPFlush     actrec   0x000c55       data   0x00001c
       BerkeleyAPI.o:bind     actrec   0x000c55       data   0x000006
         ARP.o:ARPResolve     actrec   0x000c55       data   0x00001c
     TCP.o:TCPPutROMArray     actrec   0x000c56       data   0x000006
       Helpers.o:LFSRRand     actrec   0x000c59       data   0x000001
          UDP.o:UDPOpenEx     actrec   0x000c5b       data   0x000003
     StackTsk.o:StackTask     actrec   0x000c71       data   0x000009
      TCP.o:TCPIsPutReady     actrec   0x000c82       data   0x000001
            TCP.o:SendTCP     actrec   0x000c82       data   0x000028
     Tick.o:TickGetDiv256     actrec   0x000c82       data   0x000004
UARTConfig.o:DoUARTConfig     actrec   0x000c8e       data   0x00001d
ETH97J60.o:MACGetFreeRxSize     actrec   0x000caa       data   0x000004
      ETH97J60.o:MACFlush     actrec   0x000caa       data   0x000001
ETH97J60.o:MACSetWritePtr     actrec   0x000caa       data   0x000002
 ETH97J60.o:MACSetReadPtr     actrec   0x000caa       data   0x000002
         IP.o:IPPutHeader     actrec   0x000caa       data   0x000014
ETH97J60.o:CalcIPBufferChecksum     actrec   0x000caa       data   0x00001e
ETH97J60.o:MACMemCopyAsync     actrec   0x000caa       data   0x000006
           Tick.o:TickGet     actrec   0x000cab       data   0x000004
  SPIFlash.o:ByteToBuffer     actrec   0x000cab       data   0x000002
SPIFlash.o:ReadBufferFromMainMemory     actrec   0x000cab       data   0x000002
SPIFlash.o:WriteBufferToMainMemory     actrec   0x000cab       data   0x000002
SPIFlash.o:SPIFlashReadArray     actrec   0x000cab       data   0x000004
       MPFS2.o:MPFSFormat     actrec   0x000cab       data   0x000001
SPIFlash.o:SPIFlashIsBusy     actrec   0x000cad       data   0x000001
          Helpers.o:swaps     actrec   0x000cbe       data   0x000003
 Helpers.o:CalcIPChecksum     actrec   0x000cbe       data   0x000008
      HTTP2.o:HTTPProcess     actrec   0x000cc8       data   0x000019
        TCP.o:TCPPutArray     actrec   0x000ce1       data   0x000006
CustomHTTPApp.o:HTTPExecutePost     actrec   0x000ce1       data   0x000014
          MainDemo.o:main     actrec   0x000cf5       data   0x000004
   ETH97J60.o:MACGetArray     actrec   0x000cf9       data   0x000003
       HTTP2.o:HTTPServer     actrec   0x000cfc       data   0x000001
                   .stack      udata   0x000d00       data   0x000100
   .udata_CustomHTTPApp.o      udata   0x000e00       data   0x000075
        .udata_StackTsk.o      udata   0x000e75       data   0x00000b
              SFR_BANKED0      udata   0x000e80       data   0x000006
              SFR_BANKED1      udata   0x000e8a       data   0x000001
              SFR_BANKED2      udata   0x000e97       data   0x000003
              SFR_BANKED3      udata   0x000ea0       data   0x000001
              SFR_BANKED4      udata   0x000ea2       data   0x000003
              SFR_BANKED5      udata   0x000ea6       data   0x000002
              SFR_BANKED6      udata   0x000eaa       data   0x000002
              SFR_BANKED7      udata   0x000eb2       data   0x000001
              SFR_BANKED8      udata   0x000eb4       data   0x000001
              SFR_BANKED9      udata   0x000eb6       data   0x000004
             SFR_BANKED10      udata   0x000ec0       data   0x000012
             SFR_BANKED11      udata   0x000ed4       data   0x000002
             SFR_BANKED12      udata   0x000ed8       data   0x000002
             SFR_BANKED13      udata   0x000ee2       data   0x000016
             SFR_BANKED14      udata   0x000efb       data   0x000001
             SFR_BANKED15      udata   0x000efd       data   0x000002
            .udata_SMTP.o      udata   0x000f00       data   0x000057
  .udata_Custom_SPI_Low.o      udata   0x000f57       data   0x000009
            SFR_UNBANKED0      udata   0x000f60       data   0x0000a0



                              Program Memory Usage 
                               Start         End      
                           ---------   ---------      
                            0x000000    0x000005      
                            0x000008    0x00000d      
                            0x000018    0x00001d      
                            0x00002a    0x01e518      
                            0x01fff8    0x01fff8      
                            0x01fffa    0x01fffa      
                            0x01fffd    0x01fffd      
            124164 out of 131072 program addresses used, program memory utilization is 94%



                              Symbols - Sorted by Name
                     Name    Address   Location    Storage File                     
                ---------  ---------  ---------  --------- ---------                
                  ARPInit   0x019cde    program     extern C:\Users\Tim\Desktop\PIC-WEB-5-42-UEXT-full\Microchip\TCPIP Stack\ARP.c
            ARPIsResolved   0x019f2c    program     extern C:\Users\Tim\Desktop\PIC-WEB-5-42-UEXT-full\Microchip\TCPIP Stack\ARP.c
               ARPProcess   0x019cf6    program     extern C:\Users\Tim\Desktop\PIC-WEB-5-42-UEXT-full\Microchip\TCPIP Stack\ARP.c
                   ARPPut   0x019bd6    program     static C:\Users\Tim\Desktop\PIC-WEB-5-42-UEXT-full\Microchip\TCPIP Stack\ARP.c
               ARPResolve   0x019ea4    program     extern C:\Users\Tim\Desktop\PIC-WEB-5-42-UEXT-full\Microchip\TCPIP Stack\ARP.c
               ARPSendPkt   0x019b92    program     extern C:\Users\Tim\Desktop\PIC-WEB-5-42-UEXT-full\Microchip\TCPIP Stack\ARP.c
               AnnounceIP   0x01c29a    program     extern C:\Users\Tim\Desktop\PIC-WEB-5-42-UEXT-full\Microchip\TCPIP Stack\Announce.c
 AutoIPConfigIsInProgress   0x0174f8    program     extern C:\Users\Tim\Desktop\PIC-WEB-5-42-UEXT-full\Microchip\TCPIP Stack\AutoIP.c
           AutoIPConflict   0x017b2a    program     extern C:\Users\Tim\Desktop\PIC-WEB-5-42-UEXT-full\Microchip\TCPIP Stack\AutoIP.c
            AutoIPDisable   0x017bca    program     extern C:\Users\Tim\Desktop\PIC-WEB-5-42-UEXT-full\Microchip\TCPIP Stack\AutoIP.c
             AutoIPEnable   0x017bfc    program     extern C:\Users\Tim\Desktop\PIC-WEB-5-42-UEXT-full\Microchip\TCPIP Stack\AutoIP.c
               AutoIPInit   0x0174d4    program     extern C:\Users\Tim\Desktop\PIC-WEB-5-42-UEXT-full\Microchip\TCPIP Stack\AutoIP.c
       AutoIPIsConfigured   0x0174ec    program     extern C:\Users\Tim\Desktop\PIC-WEB-5-42-UEXT-full\Microchip\TCPIP Stack\AutoIP.c
         AutoIPIsDisabled   0x017c06    program     extern C:\Users\Tim\Desktop\PIC-WEB-5-42-UEXT-full\Microchip\TCPIP Stack\AutoIP.c
               AutoIPRand   0x017c22    program     extern C:\Users\Tim\Desktop\PIC-WEB-5-42-UEXT-full\Microchip\TCPIP Stack\AutoIP.c
           AutoIPRandSeed   0x017c10    program     extern C:\Users\Tim\Desktop\PIC-WEB-5-42-UEXT-full\Microchip\TCPIP Stack\AutoIP.c
              AutoIPTasks   0x017504    program     extern C:\Users\Tim\Desktop\PIC-WEB-5-42-UEXT-full\Microchip\TCPIP Stack\AutoIP.c
             Base64Decode   0x01295e    program     extern C:\Users\Tim\Desktop\PIC-WEB-5-42-UEXT-full\Microchip\TCPIP Stack\Helpers.c
             Base64Encode   0x012ab6    program     extern C:\Users\Tim\Desktop\PIC-WEB-5-42-UEXT-full\Microchip\TCPIP Stack\Helpers.c
BerkeleySNTPGetUTCSeconds   0x01acb2    program     extern C:\Users\Tim\Desktop\PIC-WEB-5-42-UEXT-full\TCPIP\Demo App\BerkeleyUDPClientDemo.c
       BerkeleySocketInit   0x00c26a    program     extern C:\Users\Tim\Desktop\PIC-WEB-5-42-UEXT-full\Microchip\TCPIP Stack\BerkeleyAPI.c
    BerkeleyTCPClientDemo   0x01c962    program     extern C:\Users\Tim\Desktop\PIC-WEB-5-42-UEXT-full\TCPIP\Demo App\BerkeleyTCPClientDemo.c
    BerkeleyTCPServerDemo   0x01c50e    program     extern C:\Users\Tim\Desktop\PIC-WEB-5-42-UEXT-full\TCPIP\Demo App\BerkeleyTCPServerDemo.c
    BerkeleyUDPClientDemo   0x01a93a    program     extern C:\Users\Tim\Desktop\PIC-WEB-5-42-UEXT-full\TCPIP\Demo App\BerkeleyUDPClientDemo.c
                BusyUSART   0x01d908    program     extern C:\Users\Tim\Desktop\PIC-WEB-5-42-UEXT-full\Microchip\TCPIP Stack\UART.c
             ByteToBuffer   0x01a46c    program     extern C:\Users\Tim\Desktop\PIC-WEB-5-42-UEXT-full\Microchip\TCPIP Stack\SPIFlash.c
     CalcIPBufferChecksum   0x016924    program     extern C:\Users\Tim\Desktop\PIC-WEB-5-42-UEXT-full\Microchip\TCPIP Stack\ETH97J60.c
           CalcIPChecksum   0x012df6    program     extern C:\Users\Tim\Desktop\PIC-WEB-5-42-UEXT-full\Microchip\TCPIP Stack\Helpers.c
               Clock_test   0x01e3b6    program     extern E:\3.46\pic18-lt\cxx-framework\src\pmc_common\SW_I2C\swckti2c.c
                CloseSPI1   0x01ddc2    program     extern C:\Users\Tim\Desktop\PIC-WEB-5-42-UEXT-full\TCPIP\Demo App\Olimex_Demo_Files\Custom_SPI_Low.c
              CloseSocket   0x002f3e    program     static C:\Users\Tim\Desktop\PIC-WEB-5-42-UEXT-full\Microchip\TCPIP Stack\TCP.c
               CloseUSART   0x01d914    program     extern C:\Users\Tim\Desktop\PIC-WEB-5-42-UEXT-full\Microchip\TCPIP Stack\UART.c
         Compare_MAC_addr   0x00be0e    program     static C:\Users\Tim\Desktop\PIC-WEB-5-42-UEXT-full\Microchip\TCPIP Stack\DHCPs.c
     ConvertArrayToString   0x018ca6    program     extern C:\Users\Tim\Desktop\PIC-WEB-5-42-UEXT-full\TCPIP\Demo App\Olimex_Demo_Files\Misc_Functions.c
    Convert_String_to_Int   0x018d6a    program     extern C:\Users\Tim\Desktop\PIC-WEB-5-42-UEXT-full\TCPIP\Demo App\Olimex_Demo_Files\Misc_Functions.c
          Custom_SWAckI2C   0x01d2c4    program     extern C:\Users\Tim\Desktop\PIC-WEB-5-42-UEXT-full\TCPIP\Demo App\Olimex_Demo_Files\Custom_I2C_Low.c
       Custom_SWNotAckI2C   0x01d2e6    program     extern C:\Users\Tim\Desktop\PIC-WEB-5-42-UEXT-full\TCPIP\Demo App\Olimex_Demo_Files\Custom_I2C_Low.c
         Custom_SWReadI2C   0x01d280    program     extern C:\Users\Tim\Desktop\PIC-WEB-5-42-UEXT-full\TCPIP\Demo App\Olimex_Demo_Files\Custom_I2C_Low.c
        Custom_SWStartI2C   0x01d1d2    program     extern C:\Users\Tim\Desktop\PIC-WEB-5-42-UEXT-full\TCPIP\Demo App\Olimex_Demo_Files\Custom_I2C_Low.c
         Custom_SWStopI2C   0x01d1e2    program     extern C:\Users\Tim\Desktop\PIC-WEB-5-42-UEXT-full\TCPIP\Demo App\Olimex_Demo_Files\Custom_I2C_Low.c
        Custom_SWWriteI2C   0x01d218    program     extern C:\Users\Tim\Desktop\PIC-WEB-5-42-UEXT-full\TCPIP\Demo App\Olimex_Demo_Files\Custom_I2C_Low.c
                    D10_1   0x01e39e    program     static E:\3.46\pic18-lt\cxx-framework\src\traditional\delays\d10tcyx.asm
                     D10x   0x01e396    program     static E:\3.46\pic18-lt\cxx-framework\src\traditional\delays\d10tcyx.asm
                   D1616S   0x017066    program     static E:\3.46\pic18-lt\cxx-framework\src\traditional\math\fxd1616s.asm
                D1616SNEG   0x017074    program     static E:\3.46\pic18-lt\cxx-framework\src\traditional\math\fxd1616s.asm
                 D1616SOK   0x017070    program     static E:\3.46\pic18-lt\cxx-framework\src\traditional\math\fxd1616s.asm
                  D1616SX   0x017086    program     static E:\3.46\pic18-lt\cxx-framework\src\traditional\math\fxd1616s.asm
                    D1K_1   0x01e342    program     static E:\3.46\pic18-lt\cxx-framework\src\traditional\delays\d1ktcyx.asm
                     D1Kx   0x01e340    program     static E:\3.46\pic18-lt\cxx-framework\src\traditional\delays\d1ktcyx.asm
                   D3232S   0x0170c0    program     static E:\3.46\pic18-lt\cxx-framework\src\traditional\math\fxd3232s.asm
                D3232SNEG   0x0170ce    program     static E:\3.46\pic18-lt\cxx-framework\src\traditional\math\fxd3232s.asm
                 D3232SOK   0x0170ca    program     static E:\3.46\pic18-lt\cxx-framework\src\traditional\math\fxd3232s.asm
                  D3232SX   0x0170ee    program     static E:\3.46\pic18-lt\cxx-framework\src\traditional\math\fxd3232s.asm
                  DA1616S   0x017056    program     static E:\3.46\pic18-lt\cxx-framework\src\traditional\math\fxd1616s.asm
                  DA3232S   0x0170aa    program     static E:\3.46\pic18-lt\cxx-framework\src\traditional\math\fxd3232s.asm
              DHCPDisable   0x010a28    program     extern C:\Users\Tim\Desktop\PIC-WEB-5-42-UEXT-full\Microchip\TCPIP Stack\DHCP.c
               DHCPEnable   0x010a40    program     extern C:\Users\Tim\Desktop\PIC-WEB-5-42-UEXT-full\Microchip\TCPIP Stack\DHCP.c
                 DHCPInit   0x0109e0    program     extern C:\Users\Tim\Desktop\PIC-WEB-5-42-UEXT-full\Microchip\TCPIP Stack\DHCP.c
              DHCPIsBound   0x010a62    program     extern C:\Users\Tim\Desktop\PIC-WEB-5-42-UEXT-full\Microchip\TCPIP Stack\DHCP.c
            DHCPIsEnabled   0x010a58    program     extern C:\Users\Tim\Desktop\PIC-WEB-5-42-UEXT-full\Microchip\TCPIP Stack\DHCP.c
     DHCPIsServerDetected   0x010a76    program     extern C:\Users\Tim\Desktop\PIC-WEB-5-42-UEXT-full\Microchip\TCPIP Stack\DHCP.c
     DHCPReplyToDiscovery   0x00b074    program     static C:\Users\Tim\Desktop\PIC-WEB-5-42-UEXT-full\Microchip\TCPIP Stack\DHCPs.c
       DHCPReplyToRequest   0x00b356    program     static C:\Users\Tim\Desktop\PIC-WEB-5-42-UEXT-full\Microchip\TCPIP Stack\DHCPs.c
           DHCPServerInit   0x00b7d8    program     static C:\Users\Tim\Desktop\PIC-WEB-5-42-UEXT-full\Microchip\TCPIP Stack\DHCPs.c
           DHCPServerTask   0x00adbe    program     extern C:\Users\Tim\Desktop\PIC-WEB-5-42-UEXT-full\Microchip\TCPIP Stack\DHCPs.c
       DHCPServer_Disable   0x00c246    program     extern C:\Users\Tim\Desktop\PIC-WEB-5-42-UEXT-full\Microchip\TCPIP Stack\DHCPs.c
        DHCPServer_Enable   0x00c25e    program     extern C:\Users\Tim\Desktop\PIC-WEB-5-42-UEXT-full\Microchip\TCPIP Stack\DHCPs.c
         DHCPStateChanged   0x010a6a    program     extern C:\Users\Tim\Desktop\PIC-WEB-5-42-UEXT-full\Microchip\TCPIP Stack\DHCP.c
                 DHCPTask   0x010a94    program     extern C:\Users\Tim\Desktop\PIC-WEB-5-42-UEXT-full\Microchip\TCPIP Stack\DHCP.c
           DHCPTempIPAddr   0x010a82    program     extern C:\Users\Tim\Desktop\PIC-WEB-5-42-UEXT-full\Microchip\TCPIP Stack\DHCP.c
            DNSBeginUsage   0x0151e6    program     extern C:\Users\Tim\Desktop\PIC-WEB-5-42-UEXT-full\Microchip\TCPIP Stack\DNS.c
           DNSDiscardName   0x015b12    program     static C:\Users\Tim\Desktop\PIC-WEB-5-42-UEXT-full\Microchip\TCPIP Stack\DNS.c
              DNSEndUsage   0x0151f0    program     extern C:\Users\Tim\Desktop\PIC-WEB-5-42-UEXT-full\Microchip\TCPIP Stack\DNS.c
            DNSIsResolved   0x01529a    program     extern C:\Users\Tim\Desktop\PIC-WEB-5-42-UEXT-full\Microchip\TCPIP Stack\DNS.c
          DNSPutROMString   0x015a46    program     static C:\Users\Tim\Desktop\PIC-WEB-5-42-UEXT-full\Microchip\TCPIP Stack\DNS.c
             DNSPutString   0x01599a    program     static C:\Users\Tim\Desktop\PIC-WEB-5-42-UEXT-full\Microchip\TCPIP Stack\DNS.c
               DNSResolve   0x015214    program     extern C:\Users\Tim\Desktop\PIC-WEB-5-42-UEXT-full\Microchip\TCPIP Stack\DNS.c
            DNSResolveROM   0x015254    program     extern C:\Users\Tim\Desktop\PIC-WEB-5-42-UEXT-full\Microchip\TCPIP Stack\DNS.c
              DataRdySPI1   0x01de32    program     extern C:\Users\Tim\Desktop\PIC-WEB-5-42-UEXT-full\TCPIP\Demo App\Olimex_Demo_Files\Custom_SPI_Low.c
             DataRdyUSART   0x01d920    program     extern C:\Users\Tim\Desktop\PIC-WEB-5-42-UEXT-full\Microchip\TCPIP Stack\UART.c
              Delay10TCYx   0x01e38e    program     extern E:\3.46\pic18-lt\cxx-framework\src\traditional\delays\d10tcyx.asm
              Delay1KTCYx   0x01e336    program     extern E:\3.46\pic18-lt\cxx-framework\src\traditional\delays\d1ktcyx.asm
            DiscoveryTask   0x01c38a    program     extern C:\Users\Tim\Desktop\PIC-WEB-5-42-UEXT-full\Microchip\TCPIP Stack\Announce.c
           DisplayIPValue   0x015ed2    program     extern C:\Users\Tim\Desktop\PIC-WEB-5-42-UEXT-full\TCPIP\Demo App\MainDemo.c
             DoUARTConfig   0x01876e    program     extern C:\Users\Tim\Desktop\PIC-WEB-5-42-UEXT-full\TCPIP\Demo App\UARTConfig.c
             DownloadMPFS   0x018b20    program     static C:\Users\Tim\Desktop\PIC-WEB-5-42-UEXT-full\TCPIP\Demo App\UARTConfig.c
                 FLO0832S   0x016d4e    program     extern E:\3.46\pic18-lt\cxx-framework\src\traditional\math\cast08FP.asm
                 FLO0832U   0x016d4a    program     extern E:\3.46\pic18-lt\cxx-framework\src\traditional\math\cast08FP.asm
                 FLO1632S   0x016d70    program     extern E:\3.46\pic18-lt\cxx-framework\src\traditional\math\cast16FP.asm
                 FLO1632U   0x016d6c    program     extern E:\3.46\pic18-lt\cxx-framework\src\traditional\math\cast16FP.asm
                    FPA32   0x016d98    program     extern E:\3.46\pic18-lt\cxx-framework\src\traditional\math\addFP.asm
                    FPD32   0x016ec4    program     extern E:\3.46\pic18-lt\cxx-framework\src\traditional\math\divFP.asm
                    FPM32   0x016f6a    program     extern E:\3.46\pic18-lt\cxx-framework\src\traditional\math\mulFP.asm
                    FPS32   0x016d96    program     extern E:\3.46\pic18-lt\cxx-framework\src\traditional\math\addFP.asm
                 FXD1616S   0x017044    program     extern E:\3.46\pic18-lt\cxx-framework\src\traditional\math\fxd1616s.asm
                 FXD1616U   0x01e2ba    program     extern E:\3.46\pic18-lt\cxx-framework\src\traditional\math\fxd1616u.c
                 FXD3232S   0x017090    program     extern E:\3.46\pic18-lt\cxx-framework\src\traditional\math\fxd3232s.asm
                 FXD3232U   0x01e1c6    program     extern E:\3.46\pic18-lt\cxx-framework\src\traditional\math\fxd3232u.c
                 FXM1616S   0x0170f8    program     extern E:\3.46\pic18-lt\cxx-framework\src\traditional\math\fxm1616s.asm
                 FXM1616U   0x017152    program     extern E:\3.46\pic18-lt\cxx-framework\src\traditional\math\fxm1616u.asm
                 FXM2424U   0x01718e    program     extern E:\3.46\pic18-lt\cxx-framework\src\traditional\math\fxm2424u.asm
                  FXM3232   0x01e094    program     extern E:\3.46\pic18-lt\cxx-framework\src\traditional\math\fxm3232.c
         FindEmailAddress   0x00ac22    program     static C:\Users\Tim\Desktop\PIC-WEB-5-42-UEXT-full\Microchip\TCPIP Stack\SMTP.c
       FindMatchingSocket   0x002892    program     static C:\Users\Tim\Desktop\PIC-WEB-5-42-UEXT-full\Microchip\TCPIP Stack\TCP.c
       FindMatchingSocket   0x01086c    program     static C:\Users\Tim\Desktop\PIC-WEB-5-42-UEXT-full\Microchip\TCPIP Stack\UDP.c
      FindROMEmailAddress   0x00ace4    program     static C:\Users\Tim\Desktop\PIC-WEB-5-42-UEXT-full\Microchip\TCPIP Stack\SMTP.c
        FormatNetBIOSName   0x012f36    program     extern C:\Users\Tim\Desktop\PIC-WEB-5-42-UEXT-full\Microchip\TCPIP Stack\Helpers.c
      GenerateRandomDWORD   0x012598    program     extern C:\Users\Tim\Desktop\PIC-WEB-5-42-UEXT-full\Microchip\TCPIP Stack\Helpers.c
         GenericTCPClient   0x01c73a    program     extern C:\Users\Tim\Desktop\PIC-WEB-5-42-UEXT-full\TCPIP\Demo App\GenericTCPClient.c
         GenericTCPServer   0x01cca4    program     extern C:\Users\Tim\Desktop\PIC-WEB-5-42-UEXT-full\TCPIP\Demo App\GenericTCPServer.c
GetIPAddrFromIndex_DhcpPool   0x00bdac    program     static C:\Users\Tim\Desktop\PIC-WEB-5-42-UEXT-full\Microchip\TCPIP Stack\DHCPs.c
      GetMaxSegSizeOption   0x002fc8    program     static C:\Users\Tim\Desktop\PIC-WEB-5-42-UEXT-full\Microchip\TCPIP Stack\TCP.c
              GetTickCopy   0x01dcb6    program     static C:\Users\Tim\Desktop\PIC-WEB-5-42-UEXT-full\Microchip\TCPIP Stack\Tick.c
          HTML_DOWN_ARROW   0x01e3de    program     extern C:\Users\Tim\Desktop\PIC-WEB-5-42-UEXT-full\TCPIP\Demo App\CustomHTTPApp.c
            HTML_UP_ARROW   0x01e3db    program     extern C:\Users\Tim\Desktop\PIC-WEB-5-42-UEXT-full\TCPIP\Demo App\CustomHTTPApp.c
            HTTPCheckAuth   0x0073e2    program     extern C:\Users\Tim\Desktop\PIC-WEB-5-42-UEXT-full\TCPIP\Demo App\CustomHTTPApp.c
           HTTPExecuteGet   0x00742e    program     extern C:\Users\Tim\Desktop\PIC-WEB-5-42-UEXT-full\TCPIP\Demo App\CustomHTTPApp.c
          HTTPExecutePost   0x007bc0    program     extern C:\Users\Tim\Desktop\PIC-WEB-5-42-UEXT-full\TCPIP\Demo App\CustomHTTPApp.c
               HTTPGetArg   0x0068fe    program     extern C:\Users\Tim\Desktop\PIC-WEB-5-42-UEXT-full\Microchip\TCPIP Stack\HTTP2.c
            HTTPGetROMArg   0x0069b6    program     extern C:\Users\Tim\Desktop\PIC-WEB-5-42-UEXT-full\Microchip\TCPIP Stack\HTTP2.c
HTTPHeaderParseAuthorization   0x00638c    program     static C:\Users\Tim\Desktop\PIC-WEB-5-42-UEXT-full\Microchip\TCPIP Stack\HTTP2.c
HTTPHeaderParseContentLength   0x00670e    program     static C:\Users\Tim\Desktop\PIC-WEB-5-42-UEXT-full\Microchip\TCPIP Stack\HTTP2.c
    HTTPHeaderParseCookie   0x006508    program     static C:\Users\Tim\Desktop\PIC-WEB-5-42-UEXT-full\Microchip\TCPIP Stack\HTTP2.c
    HTTPHeaderParseLookup   0x006370    program     static C:\Users\Tim\Desktop\PIC-WEB-5-42-UEXT-full\Microchip\TCPIP Stack\HTTP2.c
              HTTPIncFile   0x00723c    program     extern C:\Users\Tim\Desktop\PIC-WEB-5-42-UEXT-full\Microchip\TCPIP Stack\HTTP2.c
                 HTTPInit   0x0048d6    program     extern C:\Users\Tim\Desktop\PIC-WEB-5-42-UEXT-full\Microchip\TCPIP Stack\HTTP2.c
             HTTPLoadConn   0x004aae    program     static C:\Users\Tim\Desktop\PIC-WEB-5-42-UEXT-full\Microchip\TCPIP Stack\HTTP2.c
           HTTPMPFSUpload   0x006e70    program     static C:\Users\Tim\Desktop\PIC-WEB-5-42-UEXT-full\Microchip\TCPIP Stack\HTTP2.c
            HTTPNeedsAuth   0x007388    program     extern C:\Users\Tim\Desktop\PIC-WEB-5-42-UEXT-full\TCPIP\Demo App\CustomHTTPApp.c
           HTTPPostConfig   0x007c60    program     static C:\Users\Tim\Desktop\PIC-WEB-5-42-UEXT-full\TCPIP\Demo App\CustomHTTPApp.c
            HTTPPostEmail   0x0084de    program     static C:\Users\Tim\Desktop\PIC-WEB-5-42-UEXT-full\TCPIP\Demo App\CustomHTTPApp.c
              HTTPPostMD5   0x008192    program     static C:\Users\Tim\Desktop\PIC-WEB-5-42-UEXT-full\TCPIP\Demo App\CustomHTTPApp.c
                HTTPPrint   0x0043da    program     extern C:\Users\Tim\Desktop\PIC-WEB-5-42-UEXT-full\TCPIP\Demo App\HTTPPrint.h
              HTTPPrintIP   0x00949e    program     extern C:\Users\Tim\Desktop\PIC-WEB-5-42-UEXT-full\TCPIP\Demo App\CustomHTTPApp.c
               HTTPPrint_   0x0048b0    program     extern C:\Users\Tim\Desktop\PIC-WEB-5-42-UEXT-full\TCPIP\Demo App\HTTPPrint.h
         HTTPPrint_I2CRes   0x00918c    program     extern C:\Users\Tim\Desktop\PIC-WEB-5-42-UEXT-full\TCPIP\Demo App\CustomHTTPApp.c
         HTTPPrint_SPIRes   0x0091b6    program     extern C:\Users\Tim\Desktop\PIC-WEB-5-42-UEXT-full\TCPIP\Demo App\CustomHTTPApp.c
    HTTPPrint_UART_Output   0x0090c4    program     extern C:\Users\Tim\Desktop\PIC-WEB-5-42-UEXT-full\TCPIP\Demo App\CustomHTTPApp.c
            HTTPPrint_btn   0x008cee    program     extern C:\Users\Tim\Desktop\PIC-WEB-5-42-UEXT-full\TCPIP\Demo App\CustomHTTPApp.c
      HTTPPrint_builddate   0x008c0e    program     extern C:\Users\Tim\Desktop\PIC-WEB-5-42-UEXT-full\TCPIP\Demo App\CustomHTTPApp.c
HTTPPrint_config_dhcpchecked   0x009552    program     extern C:\Users\Tim\Desktop\PIC-WEB-5-42-UEXT-full\TCPIP\Demo App\CustomHTTPApp.c
    HTTPPrint_config_dns1   0x0095c4    program     extern C:\Users\Tim\Desktop\PIC-WEB-5-42-UEXT-full\TCPIP\Demo App\CustomHTTPApp.c
    HTTPPrint_config_dns2   0x0095d8    program     extern C:\Users\Tim\Desktop\PIC-WEB-5-42-UEXT-full\TCPIP\Demo App\CustomHTTPApp.c
      HTTPPrint_config_gw   0x00959c    program     extern C:\Users\Tim\Desktop\PIC-WEB-5-42-UEXT-full\TCPIP\Demo App\CustomHTTPApp.c
HTTPPrint_config_hostname   0x009528    program     extern C:\Users\Tim\Desktop\PIC-WEB-5-42-UEXT-full\TCPIP\Demo App\CustomHTTPApp.c
      HTTPPrint_config_ip   0x009588    program     extern C:\Users\Tim\Desktop\PIC-WEB-5-42-UEXT-full\TCPIP\Demo App\CustomHTTPApp.c
     HTTPPrint_config_mac   0x0095ec    program     extern C:\Users\Tim\Desktop\PIC-WEB-5-42-UEXT-full\TCPIP\Demo App\CustomHTTPApp.c
  HTTPPrint_config_subnet   0x0095b0    program     extern C:\Users\Tim\Desktop\PIC-WEB-5-42-UEXT-full\TCPIP\Demo App\CustomHTTPApp.c
     HTTPPrint_cookiename   0x0092b8    program     extern C:\Users\Tim\Desktop\PIC-WEB-5-42-UEXT-full\TCPIP\Demo App\CustomHTTPApp.c
      HTTPPrint_ddns_host   0x009716    program     extern C:\Users\Tim\Desktop\PIC-WEB-5-42-UEXT-full\TCPIP\Demo App\CustomHTTPApp.c
      HTTPPrint_ddns_pass   0x009714    program     extern C:\Users\Tim\Desktop\PIC-WEB-5-42-UEXT-full\TCPIP\Demo App\CustomHTTPApp.c
   HTTPPrint_ddns_service   0x009718    program     extern C:\Users\Tim\Desktop\PIC-WEB-5-42-UEXT-full\TCPIP\Demo App\CustomHTTPApp.c
    HTTPPrint_ddns_status   0x00971a    program     extern C:\Users\Tim\Desktop\PIC-WEB-5-42-UEXT-full\TCPIP\Demo App\CustomHTTPApp.c
HTTPPrint_ddns_status_msg   0x009748    program     extern C:\Users\Tim\Desktop\PIC-WEB-5-42-UEXT-full\TCPIP\Demo App\CustomHTTPApp.c
      HTTPPrint_ddns_user   0x009712    program     extern C:\Users\Tim\Desktop\PIC-WEB-5-42-UEXT-full\TCPIP\Demo App\CustomHTTPApp.c
       HTTPPrint_hellomsg   0x009236    program     extern C:\Users\Tim\Desktop\PIC-WEB-5-42-UEXT-full\TCPIP\Demo App\CustomHTTPApp.c
        HTTPPrint_lcdtext   0x0091e0    program     extern C:\Users\Tim\Desktop\PIC-WEB-5-42-UEXT-full\TCPIP\Demo App\CustomHTTPApp.c
            HTTPPrint_led   0x008d6c    program     extern C:\Users\Tim\Desktop\PIC-WEB-5-42-UEXT-full\TCPIP\Demo App\CustomHTTPApp.c
    HTTPPrint_ledSelected   0x008e06    program     extern C:\Users\Tim\Desktop\PIC-WEB-5-42-UEXT-full\TCPIP\Demo App\CustomHTTPApp.c
            HTTPPrint_pot   0x00906e    program     extern C:\Users\Tim\Desktop\PIC-WEB-5-42-UEXT-full\TCPIP\Demo App\CustomHTTPApp.c
      HTTPPrint_read_comm   0x0096e0    program     extern C:\Users\Tim\Desktop\PIC-WEB-5-42-UEXT-full\TCPIP\Demo App\CustomHTTPApp.c
         HTTPPrint_reboot   0x0096e4    program     extern C:\Users\Tim\Desktop\PIC-WEB-5-42-UEXT-full\TCPIP\Demo App\CustomHTTPApp.c
     HTTPPrint_rebootaddr   0x0096e8    program     extern C:\Users\Tim\Desktop\PIC-WEB-5-42-UEXT-full\TCPIP\Demo App\CustomHTTPApp.c
       HTTPPrint_smtps_en   0x0097bc    program     extern C:\Users\Tim\Desktop\PIC-WEB-5-42-UEXT-full\TCPIP\Demo App\CustomHTTPApp.c
        HTTPPrint_snmp_en   0x0097ea    program     extern C:\Users\Tim\Desktop\PIC-WEB-5-42-UEXT-full\TCPIP\Demo App\CustomHTTPApp.c
    HTTPPrint_status_fail   0x009860    program     extern C:\Users\Tim\Desktop\PIC-WEB-5-42-UEXT-full\TCPIP\Demo App\CustomHTTPApp.c
      HTTPPrint_status_ok   0x009818    program     extern C:\Users\Tim\Desktop\PIC-WEB-5-42-UEXT-full\TCPIP\Demo App\CustomHTTPApp.c
           HTTPPrint_temp   0x008eb8    program     extern C:\Users\Tim\Desktop\PIC-WEB-5-42-UEXT-full\TCPIP\Demo App\CustomHTTPApp.c
   HTTPPrint_uploadeImage   0x009338    program     extern C:\Users\Tim\Desktop\PIC-WEB-5-42-UEXT-full\TCPIP\Demo App\CustomHTTPApp.c
    HTTPPrint_uploadedmd5   0x00933a    program     extern C:\Users\Tim\Desktop\PIC-WEB-5-42-UEXT-full\TCPIP\Demo App\CustomHTTPApp.c
        HTTPPrint_version   0x008cc0    program     extern C:\Users\Tim\Desktop\PIC-WEB-5-42-UEXT-full\TCPIP\Demo App\CustomHTTPApp.c
     HTTPPrint_write_comm   0x0096e2    program     extern C:\Users\Tim\Desktop\PIC-WEB-5-42-UEXT-full\TCPIP\Demo App\CustomHTTPApp.c
              HTTPProcess   0x004b6c    program     static C:\Users\Tim\Desktop\PIC-WEB-5-42-UEXT-full\Microchip\TCPIP Stack\HTTP2.c
         HTTPReadPostName   0x006aaa    program     extern C:\Users\Tim\Desktop\PIC-WEB-5-42-UEXT-full\Microchip\TCPIP Stack\HTTP2.c
        HTTPReadPostValue   0x006aea    program     extern C:\Users\Tim\Desktop\PIC-WEB-5-42-UEXT-full\Microchip\TCPIP Stack\HTTP2.c
               HTTPReadTo   0x006b92    program     static C:\Users\Tim\Desktop\PIC-WEB-5-42-UEXT-full\Microchip\TCPIP Stack\HTTP2.c
       HTTPRequestHeaders   0x01e08b    program     static C:\Users\Tim\Desktop\PIC-WEB-5-42-UEXT-full\Microchip\TCPIP Stack\HTTP2.c
      HTTPResponseHeaders   0x01e061    program     static C:\Users\Tim\Desktop\PIC-WEB-5-42-UEXT-full\Microchip\TCPIP Stack\HTTP2.c
             HTTPSendFile   0x006168    program     static C:\Users\Tim\Desktop\PIC-WEB-5-42-UEXT-full\Microchip\TCPIP Stack\HTTP2.c
               HTTPServer   0x004998    program     extern C:\Users\Tim\Desktop\PIC-WEB-5-42-UEXT-full\Microchip\TCPIP Stack\HTTP2.c
            HTTPURLDecode   0x0067e4    program     extern C:\Users\Tim\Desktop\PIC-WEB-5-42-UEXT-full\Microchip\TCPIP Stack\HTTP2.c
                HTTP_CRLF   0x01e016    program     static C:\Users\Tim\Desktop\PIC-WEB-5-42-UEXT-full\Microchip\TCPIP Stack\HTTP2.c
HandlePossibleTCPDisconnection   0x00d58a    program     static C:\Users\Tim\Desktop\PIC-WEB-5-42-UEXT-full\Microchip\TCPIP Stack\BerkeleyAPI.c
             HandleTCPSeg   0x0030b4    program     static C:\Users\Tim\Desktop\PIC-WEB-5-42-UEXT-full\Microchip\TCPIP Stack\TCP.c
              HashAddData   0x0146fa    program     extern C:\Users\Tim\Desktop\PIC-WEB-5-42-UEXT-full\Microchip\TCPIP Stack\Hashes.c
           HashAddROMData   0x014726    program     extern C:\Users\Tim\Desktop\PIC-WEB-5-42-UEXT-full\Microchip\TCPIP Stack\Hashes.c
                  HighISR   0x015c12    program     extern C:\Users\Tim\Desktop\PIC-WEB-5-42-UEXT-full\TCPIP\Demo App\MainDemo.c
               HighVector   0x000008    program     extern C:\Users\Tim\Desktop\PIC-WEB-5-42-UEXT-full\TCPIP\Demo App\MainDemo.c
              I2C_Receive   0x01ce96    program     extern C:\Users\Tim\Desktop\PIC-WEB-5-42-UEXT-full\TCPIP\Demo App\Olimex_Demo_Files\Custom_I2C.c
             I2C_Transmit   0x01ce0c    program     extern C:\Users\Tim\Desktop\PIC-WEB-5-42-UEXT-full\TCPIP\Demo App\Olimex_Demo_Files\Custom_I2C.c
           ICMPBeginUsage   0x01b120    program     extern C:\Users\Tim\Desktop\PIC-WEB-5-42-UEXT-full\Microchip\TCPIP Stack\ICMP.c
             ICMPEndUsage   0x01b12a    program     extern C:\Users\Tim\Desktop\PIC-WEB-5-42-UEXT-full\Microchip\TCPIP Stack\ICMP.c
             ICMPGetReply   0x01af40    program     extern C:\Users\Tim\Desktop\PIC-WEB-5-42-UEXT-full\Microchip\TCPIP Stack\ICMP.c
              ICMPProcess   0x01ad5a    program     extern C:\Users\Tim\Desktop\PIC-WEB-5-42-UEXT-full\Microchip\TCPIP Stack\ICMP.c
             ICMPSendPing   0x01aeb4    program     extern C:\Users\Tim\Desktop\PIC-WEB-5-42-UEXT-full\Microchip\TCPIP Stack\ICMP.c
       ICMPSendPingToHost   0x01aee4    program     extern C:\Users\Tim\Desktop\PIC-WEB-5-42-UEXT-full\Microchip\TCPIP Stack\ICMP.c
    ICMPSendPingToHostROM   0x01af10    program     extern C:\Users\Tim\Desktop\PIC-WEB-5-42-UEXT-full\Microchip\TCPIP Stack\ICMP.c
                  INT3216   0x017220    program     extern E:\3.46\pic18-lt\cxx-framework\src\traditional\math\castFP16.asm
                  INT3232   0x017446    program     extern E:\3.46\pic18-lt\cxx-framework\src\traditional\math\castFP32.asm
              IPGetHeader   0x01bd8e    program     extern C:\Users\Tim\Desktop\PIC-WEB-5-42-UEXT-full\Microchip\TCPIP Stack\IP.c
              IPPutHeader   0x01be78    program     extern C:\Users\Tim\Desktop\PIC-WEB-5-42-UEXT-full\Microchip\TCPIP Stack\IP.c
            IPSetRxBuffer   0x01bf5e    program     extern C:\Users\Tim\Desktop\PIC-WEB-5-42-UEXT-full\Microchip\TCPIP Stack\IP.c
            InitAppConfig   0x01606e    program     static C:\Users\Tim\Desktop\PIC-WEB-5-42-UEXT-full\TCPIP\Demo App\MainDemo.c
          InitializeBoard   0x01602c    program     static C:\Users\Tim\Desktop\PIC-WEB-5-42-UEXT-full\TCPIP\Demo App\MainDemo.c
                 LFSRRand   0x012520    program     extern C:\Users\Tim\Desktop\PIC-WEB-5-42-UEXT-full\Microchip\TCPIP Stack\Helpers.c
             LFSRSeedRand   0x0124c6    program     extern C:\Users\Tim\Desktop\PIC-WEB-5-42-UEXT-full\Microchip\TCPIP Stack\Helpers.c
                   LowISR   0x015b58    program     extern C:\Users\Tim\Desktop\PIC-WEB-5-42-UEXT-full\TCPIP\Demo App\MainDemo.c
                LowVector   0x000018    program     extern C:\Users\Tim\Desktop\PIC-WEB-5-42-UEXT-full\TCPIP\Demo App\MainDemo.c
        MACCalcRxChecksum   0x0168b6    program     extern C:\Users\Tim\Desktop\PIC-WEB-5-42-UEXT-full\Microchip\TCPIP Stack\ETH97J60.c
             MACDiscardRx   0x0165ac    program     extern C:\Users\Tim\Desktop\PIC-WEB-5-42-UEXT-full\Microchip\TCPIP Stack\ETH97J60.c
                 MACFlush   0x01680e    program     extern C:\Users\Tim\Desktop\PIC-WEB-5-42-UEXT-full\Microchip\TCPIP Stack\ETH97J60.c
                   MACGet   0x016bec    program     extern C:\Users\Tim\Desktop\PIC-WEB-5-42-UEXT-full\Microchip\TCPIP Stack\ETH97J60.c
              MACGetArray   0x016bf0    program     extern C:\Users\Tim\Desktop\PIC-WEB-5-42-UEXT-full\Microchip\TCPIP Stack\ETH97J60.c
         MACGetFreeRxSize   0x016618    program     extern C:\Users\Tim\Desktop\PIC-WEB-5-42-UEXT-full\Microchip\TCPIP Stack\ETH97J60.c
             MACGetHeader   0x016696    program     extern C:\Users\Tim\Desktop\PIC-WEB-5-42-UEXT-full\Microchip\TCPIP Stack\ETH97J60.c
                  MACInit   0x01647e    program     extern C:\Users\Tim\Desktop\PIC-WEB-5-42-UEXT-full\Microchip\TCPIP Stack\ETH97J60.c
              MACIsLinked   0x016568    program     extern C:\Users\Tim\Desktop\PIC-WEB-5-42-UEXT-full\Microchip\TCPIP Stack\ETH97J60.c
         MACIsMemCopyDone   0x016be0    program     extern C:\Users\Tim\Desktop\PIC-WEB-5-42-UEXT-full\Microchip\TCPIP Stack\ETH97J60.c
             MACIsTxReady   0x01657a    program     extern C:\Users\Tim\Desktop\PIC-WEB-5-42-UEXT-full\Microchip\TCPIP Stack\ETH97J60.c
          MACMemCopyAsync   0x016a38    program     extern C:\Users\Tim\Desktop\PIC-WEB-5-42-UEXT-full\Microchip\TCPIP Stack\ETH97J60.c
             MACPowerDown   0x016d2a    program     extern C:\Users\Tim\Desktop\PIC-WEB-5-42-UEXT-full\Microchip\TCPIP Stack\ETH97J60.c
               MACPowerUp   0x016d3c    program     extern C:\Users\Tim\Desktop\PIC-WEB-5-42-UEXT-full\Microchip\TCPIP Stack\ETH97J60.c
                   MACPut   0x016c52    program     extern C:\Users\Tim\Desktop\PIC-WEB-5-42-UEXT-full\Microchip\TCPIP Stack\ETH97J60.c
              MACPutArray   0x016c5c    program     extern C:\Users\Tim\Desktop\PIC-WEB-5-42-UEXT-full\Microchip\TCPIP Stack\ETH97J60.c
             MACPutHeader   0x0167b0    program     extern C:\Users\Tim\Desktop\PIC-WEB-5-42-UEXT-full\Microchip\TCPIP Stack\ETH97J60.c
           MACPutROMArray   0x016c8e    program     extern C:\Users\Tim\Desktop\PIC-WEB-5-42-UEXT-full\Microchip\TCPIP Stack\ETH97J60.c
            MACSetReadPtr   0x01689c    program     extern C:\Users\Tim\Desktop\PIC-WEB-5-42-UEXT-full\Microchip\TCPIP Stack\ETH97J60.c
        MACSetReadPtrInRx   0x016832    program     extern C:\Users\Tim\Desktop\PIC-WEB-5-42-UEXT-full\Microchip\TCPIP Stack\ETH97J60.c
           MACSetWritePtr   0x016882    program     extern C:\Users\Tim\Desktop\PIC-WEB-5-42-UEXT-full\Microchip\TCPIP Stack\ETH97J60.c
               MD5AddData   0x0147fa    program     extern C:\Users\Tim\Desktop\PIC-WEB-5-42-UEXT-full\Microchip\TCPIP Stack\Hashes.c
            MD5AddROMData   0x014960    program     extern C:\Users\Tim\Desktop\PIC-WEB-5-42-UEXT-full\Microchip\TCPIP Stack\Hashes.c
             MD5Calculate   0x014e70    program     extern C:\Users\Tim\Desktop\PIC-WEB-5-42-UEXT-full\Microchip\TCPIP Stack\Hashes.c
             MD5HashBlock   0x014ace    program     static C:\Users\Tim\Desktop\PIC-WEB-5-42-UEXT-full\Microchip\TCPIP Stack\Hashes.c
            MD5Initialize   0x014756    program     extern C:\Users\Tim\Desktop\PIC-WEB-5-42-UEXT-full\Microchip\TCPIP Stack\Hashes.c
                MPFSClose   0x00dd0c    program     extern C:\Users\Tim\Desktop\PIC-WEB-5-42-UEXT-full\Microchip\TCPIP Stack\MPFS2.c
               MPFSFormat   0x00e31e    program     extern C:\Users\Tim\Desktop\PIC-WEB-5-42-UEXT-full\Microchip\TCPIP Stack\MPFS2.c
                  MPFSGet   0x00dd4e    program     extern C:\Users\Tim\Desktop\PIC-WEB-5-42-UEXT-full\Microchip\TCPIP Stack\MPFS2.c
             MPFSGetArray   0x00de66    program     extern C:\Users\Tim\Desktop\PIC-WEB-5-42-UEXT-full\Microchip\TCPIP Stack\MPFS2.c
          MPFSGetBytesRem   0x00e652    program     extern C:\Users\Tim\Desktop\PIC-WEB-5-42-UEXT-full\Microchip\TCPIP Stack\MPFS2.c
           MPFSGetEndAddr   0x00e77e    program     extern C:\Users\Tim\Desktop\PIC-WEB-5-42-UEXT-full\Microchip\TCPIP Stack\MPFS2.c
          MPFSGetFilename   0x00e82c    program     extern C:\Users\Tim\Desktop\PIC-WEB-5-42-UEXT-full\Microchip\TCPIP Stack\MPFS2.c
             MPFSGetFlags   0x00e542    program     extern C:\Users\Tim\Desktop\PIC-WEB-5-42-UEXT-full\Microchip\TCPIP Stack\MPFS2.c
                MPFSGetID   0x00e962    program     extern C:\Users\Tim\Desktop\PIC-WEB-5-42-UEXT-full\Microchip\TCPIP Stack\MPFS2.c
              MPFSGetLong   0x00dfe8    program     extern C:\Users\Tim\Desktop\PIC-WEB-5-42-UEXT-full\Microchip\TCPIP Stack\MPFS2.c
         MPFSGetMicrotime   0x00e4b4    program     extern C:\Users\Tim\Desktop\PIC-WEB-5-42-UEXT-full\Microchip\TCPIP Stack\MPFS2.c
          MPFSGetPosition   0x00e8e6    program     extern C:\Users\Tim\Desktop\PIC-WEB-5-42-UEXT-full\Microchip\TCPIP Stack\MPFS2.c
              MPFSGetSize   0x00e5c4    program     extern C:\Users\Tim\Desktop\PIC-WEB-5-42-UEXT-full\Microchip\TCPIP Stack\MPFS2.c
         MPFSGetStartAddr   0x00e6e6    program     extern C:\Users\Tim\Desktop\PIC-WEB-5-42-UEXT-full\Microchip\TCPIP Stack\MPFS2.c
         MPFSGetTimestamp   0x00e426    program     extern C:\Users\Tim\Desktop\PIC-WEB-5-42-UEXT-full\Microchip\TCPIP Stack\MPFS2.c
                 MPFSInit   0x00d6a6    program     extern C:\Users\Tim\Desktop\PIC-WEB-5-42-UEXT-full\Microchip\TCPIP Stack\MPFS2.c
                 MPFSOpen   0x00d6f8    program     extern C:\Users\Tim\Desktop\PIC-WEB-5-42-UEXT-full\Microchip\TCPIP Stack\MPFS2.c
               MPFSOpenID   0x00dc04    program     extern C:\Users\Tim\Desktop\PIC-WEB-5-42-UEXT-full\Microchip\TCPIP Stack\MPFS2.c
              MPFSOpenROM   0x00d968    program     extern C:\Users\Tim\Desktop\PIC-WEB-5-42-UEXT-full\Microchip\TCPIP Stack\MPFS2.c
             MPFSPutArray   0x00e376    program     extern C:\Users\Tim\Desktop\PIC-WEB-5-42-UEXT-full\Microchip\TCPIP Stack\MPFS2.c
               MPFSPutEnd   0x00e394    program     extern C:\Users\Tim\Desktop\PIC-WEB-5-42-UEXT-full\Microchip\TCPIP Stack\MPFS2.c
                 MPFSSeek   0x00e010    program     extern C:\Users\Tim\Desktop\PIC-WEB-5-42-UEXT-full\Microchip\TCPIP Stack\MPFS2.c
              NBNSGetName   0x01a894    program     static C:\Users\Tim\Desktop\PIC-WEB-5-42-UEXT-full\Microchip\TCPIP Stack\NBNS.c
              NBNSPutName   0x01a83e    program     static C:\Users\Tim\Desktop\PIC-WEB-5-42-UEXT-full\Microchip\TCPIP Stack\NBNS.c
                 NBNSTask   0x01a4d8    program     extern C:\Users\Tim\Desktop\PIC-WEB-5-42-UEXT-full\Microchip\TCPIP Stack\NBNS.c
                  OneByte   0x019b80    program     static E:\3.46\pic18-lt\cxx-framework\src\traditional\stdclib\ltobcd.asm
                  OneByte   0x019a06    program     static E:\3.46\pic18-lt\cxx-framework\src\traditional\stdclib\itobcd.asm
                 OpenSPI1   0x01ddee    program     extern C:\Users\Tim\Desktop\PIC-WEB-5-42-UEXT-full\TCPIP\Demo App\Olimex_Demo_Files\Custom_SPI_Low.c
                 PingDemo   0x01dbc2    program     extern C:\Users\Tim\Desktop\PIC-WEB-5-42-UEXT-full\TCPIP\Demo App\PingDemo.c
                ProcLower   0x019b18    program     static E:\3.46\pic18-lt\cxx-framework\src\traditional\stdclib\ultoa.asm
                ProcLower   0x0199ba    program     static E:\3.46\pic18-lt\cxx-framework\src\traditional\stdclib\itoa.asm
                ProcUpper   0x019b0e    program     static E:\3.46\pic18-lt\cxx-framework\src\traditional\stdclib\ultoa.asm
                ProcUpper   0x0199b0    program     static E:\3.46\pic18-lt\cxx-framework\src\traditional\stdclib\itoa.asm
                ProcessIO   0x015f46    program     static C:\Users\Tim\Desktop\PIC-WEB-5-42-UEXT-full\TCPIP\Demo App\MainDemo.c
     ROMStringToIPAddress   0x01281c    program     extern C:\Users\Tim\Desktop\PIC-WEB-5-42-UEXT-full\Microchip\TCPIP Stack\Helpers.c
 ReadBufferFromMainMemory   0x01a3fe    program     extern C:\Users\Tim\Desktop\PIC-WEB-5-42-UEXT-full\Microchip\TCPIP Stack\SPIFlash.c
               ReadPHYReg   0x016cca    program     extern C:\Users\Tim\Desktop\PIC-WEB-5-42-UEXT-full\Microchip\TCPIP Stack\ETH97J60.c
                 ReadSPI1   0x01de38    program     extern C:\Users\Tim\Desktop\PIC-WEB-5-42-UEXT-full\TCPIP\Demo App\Olimex_Demo_Files\Custom_SPI_Low.c
           ReadStringUART   0x01d8ba    program     extern C:\Users\Tim\Desktop\PIC-WEB-5-42-UEXT-full\Microchip\TCPIP Stack\UART.c
                ReadUSART   0x01d932    program     extern C:\Users\Tim\Desktop\PIC-WEB-5-42-UEXT-full\Microchip\TCPIP Stack\UART.c
               RebootTask   0x01d43a    program     extern C:\Users\Tim\Desktop\PIC-WEB-5-42-UEXT-full\Microchip\TCPIP Stack\Reboot.c
                RemoteURL   0x01e286    program     static C:\Users\Tim\Desktop\PIC-WEB-5-42-UEXT-full\TCPIP\Demo App\GenericTCPClient.c
           SMTPBeginUsage   0x0098a8    program     extern C:\Users\Tim\Desktop\PIC-WEB-5-42-UEXT-full\Microchip\TCPIP Stack\SMTP.c
                 SMTPDemo   0x01dadc    program     extern C:\Users\Tim\Desktop\PIC-WEB-5-42-UEXT-full\TCPIP\Demo App\SMTPDemo.c
             SMTPEndUsage   0x0098de    program     extern C:\Users\Tim\Desktop\PIC-WEB-5-42-UEXT-full\Microchip\TCPIP Stack\SMTP.c
                SMTPFlush   0x00ac14    program     extern C:\Users\Tim\Desktop\PIC-WEB-5-42-UEXT-full\Microchip\TCPIP Stack\SMTP.c
               SMTPIsBusy   0x00aa3a    program     extern C:\Users\Tim\Desktop\PIC-WEB-5-42-UEXT-full\Microchip\TCPIP Stack\SMTP.c
           SMTPIsPutReady   0x00aa44    program     extern C:\Users\Tim\Desktop\PIC-WEB-5-42-UEXT-full\Microchip\TCPIP Stack\SMTP.c
                  SMTPPut   0x00aa5a    program     extern C:\Users\Tim\Desktop\PIC-WEB-5-42-UEXT-full\Microchip\TCPIP Stack\SMTP.c
             SMTPPutArray   0x00aaca    program     extern C:\Users\Tim\Desktop\PIC-WEB-5-42-UEXT-full\Microchip\TCPIP Stack\SMTP.c
              SMTPPutDone   0x00ac1c    program     extern C:\Users\Tim\Desktop\PIC-WEB-5-42-UEXT-full\Microchip\TCPIP Stack\SMTP.c
          SMTPPutROMArray   0x00ab1a    program     extern C:\Users\Tim\Desktop\PIC-WEB-5-42-UEXT-full\Microchip\TCPIP Stack\SMTP.c
         SMTPPutROMString   0x00abbc    program     extern C:\Users\Tim\Desktop\PIC-WEB-5-42-UEXT-full\Microchip\TCPIP Stack\SMTP.c
            SMTPPutString   0x00ab74    program     extern C:\Users\Tim\Desktop\PIC-WEB-5-42-UEXT-full\Microchip\TCPIP Stack\SMTP.c
             SMTPSendMail   0x00aa34    program     extern C:\Users\Tim\Desktop\PIC-WEB-5-42-UEXT-full\Microchip\TCPIP Stack\SMTP.c
                 SMTPTask   0x009922    program     extern C:\Users\Tim\Desktop\PIC-WEB-5-42-UEXT-full\Microchip\TCPIP Stack\SMTP.c
               SNTPClient   0x01b4de    program     extern C:\Users\Tim\Desktop\PIC-WEB-5-42-UEXT-full\Microchip\TCPIP Stack\SNTP.c
        SNTPGetUTCSeconds   0x01b762    program     extern C:\Users\Tim\Desktop\PIC-WEB-5-42-UEXT-full\Microchip\TCPIP Stack\SNTP.c
        SPIFlashBeginRead   0x01a098    program     extern C:\Users\Tim\Desktop\PIC-WEB-5-42-UEXT-full\Microchip\TCPIP Stack\SPIFlash.c
       SPIFlashBeginWrite   0x01a1fa    program     extern C:\Users\Tim\Desktop\PIC-WEB-5-42-UEXT-full\Microchip\TCPIP Stack\SPIFlash.c
         SPIFlashEndWrite   0x01a2f4    program     extern C:\Users\Tim\Desktop\PIC-WEB-5-42-UEXT-full\Microchip\TCPIP Stack\SPIFlash.c
             SPIFlashInit   0x01a07c    program     extern C:\Users\Tim\Desktop\PIC-WEB-5-42-UEXT-full\Microchip\TCPIP Stack\SPIFlash.c
           SPIFlashIsBusy   0x01a360    program     extern C:\Users\Tim\Desktop\PIC-WEB-5-42-UEXT-full\Microchip\TCPIP Stack\SPIFlash.c
             SPIFlashRead   0x01a0b4    program     extern C:\Users\Tim\Desktop\PIC-WEB-5-42-UEXT-full\Microchip\TCPIP Stack\SPIFlash.c
        SPIFlashReadArray   0x01a10e    program     extern C:\Users\Tim\Desktop\PIC-WEB-5-42-UEXT-full\Microchip\TCPIP Stack\SPIFlash.c
            SPIFlashWrite   0x01a21a    program     extern C:\Users\Tim\Desktop\PIC-WEB-5-42-UEXT-full\Microchip\TCPIP Stack\SPIFlash.c
       SPIFlashWriteArray   0x01a2c4    program     extern C:\Users\Tim\Desktop\PIC-WEB-5-42-UEXT-full\Microchip\TCPIP Stack\SPIFlash.c
              SPITransfer   0x01a06e    program     extern C:\Users\Tim\Desktop\PIC-WEB-5-42-UEXT-full\Microchip\TCPIP Stack\SPIFlash.c
           SPI_Initialize   0x01e20e    program     extern C:\Users\Tim\Desktop\PIC-WEB-5-42-UEXT-full\TCPIP\Demo App\Olimex_Demo_Files\Custom_SPI.c
              SPI_Receive   0x01e236    program     extern C:\Users\Tim\Desktop\PIC-WEB-5-42-UEXT-full\TCPIP\Demo App\Olimex_Demo_Files\Custom_SPI.c
             SPI_Transmit   0x01e224    program     extern C:\Users\Tim\Desktop\PIC-WEB-5-42-UEXT-full\TCPIP\Demo App\Olimex_Demo_Files\Custom_SPI.c
                SWReadI2C   0x01e16a    program     extern E:\3.46\pic18-lt\cxx-framework\src\pmc_common\SW_I2C\swgtci2c.c
            SaveAppConfig   0x016212    program     extern C:\Users\Tim\Desktop\PIC-WEB-5-42-UEXT-full\TCPIP\Demo App\MainDemo.c
                  SendTCP   0x002310    program     static C:\Users\Tim\Desktop\PIC-WEB-5-42-UEXT-full\Microchip\TCPIP Stack\TCP.c
     SerializedMACAddress   0x01e3d5    program     static C:\Users\Tim\Desktop\PIC-WEB-5-42-UEXT-full\TCPIP\Demo App\MainDemo.c
               ServerName   0x01e3c6    program     static C:\Users\Tim\Desktop\PIC-WEB-5-42-UEXT-full\TCPIP\Demo App\BerkeleyTCPClientDemo.c
        StackApplications   0x01c272    program     extern C:\Users\Tim\Desktop\PIC-WEB-5-42-UEXT-full\Microchip\TCPIP Stack\StackTsk.c
                StackInit   0x01c020    program     extern C:\Users\Tim\Desktop\PIC-WEB-5-42-UEXT-full\Microchip\TCPIP Stack\StackTsk.c
                StackTask   0x01c082    program     extern C:\Users\Tim\Desktop\PIC-WEB-5-42-UEXT-full\Microchip\TCPIP Stack\StackTsk.c
        StringToIPAddress   0x0126dc    program     extern C:\Users\Tim\Desktop\PIC-WEB-5-42-UEXT-full\Microchip\TCPIP Stack\Helpers.c
            SwapARPPacket   0x019fd0    program     extern C:\Users\Tim\Desktop\PIC-WEB-5-42-UEXT-full\Microchip\TCPIP Stack\ARP.c
             SwapIPHeader   0x01bf76    program     static C:\Users\Tim\Desktop\PIC-WEB-5-42-UEXT-full\Microchip\TCPIP Stack\IP.c
            SwapTCPHeader   0x002d88    program     static C:\Users\Tim\Desktop\PIC-WEB-5-42-UEXT-full\Microchip\TCPIP Stack\TCP.c
                  SyncTCB   0x000222    program     static C:\Users\Tim\Desktop\PIC-WEB-5-42-UEXT-full\Microchip\TCPIP Stack\TCP.c
              SyncTCBStub   0x000194    program     static C:\Users\Tim\Desktop\PIC-WEB-5-42-UEXT-full\Microchip\TCPIP Stack\TCP.c
                  TAEQB32   0x0174b4    program     extern E:\3.46\pic18-lt\cxx-framework\src\traditional\math\eqFP.asm
                  TAGTB32   0x01738a    program     extern E:\3.46\pic18-lt\cxx-framework\src\traditional\math\gtFP.asm
                  TALTB32   0x0174c2    program     extern E:\3.46\pic18-lt\cxx-framework\src\traditional\math\ltFP.asm
        TCPAdjustFIFOSize   0x00400a    program     extern C:\Users\Tim\Desktop\PIC-WEB-5-42-UEXT-full\Microchip\TCPIP Stack\TCP.c
                 TCPClose   0x000816    program     extern C:\Users\Tim\Desktop\PIC-WEB-5-42-UEXT-full\Microchip\TCPIP Stack\TCP.c
               TCPDiscard   0x000e70    program     extern C:\Users\Tim\Desktop\PIC-WEB-5-42-UEXT-full\Microchip\TCPIP Stack\TCP.c
            TCPDisconnect   0x000752    program     extern C:\Users\Tim\Desktop\PIC-WEB-5-42-UEXT-full\Microchip\TCPIP Stack\TCP.c
           TCPFindArrayEx   0x001302    program     extern C:\Users\Tim\Desktop\PIC-WEB-5-42-UEXT-full\Microchip\TCPIP Stack\TCP.c
                TCPFindEx   0x0019d2    program     extern C:\Users\Tim\Desktop\PIC-WEB-5-42-UEXT-full\Microchip\TCPIP Stack\TCP.c
        TCPFindROMArrayEx   0x001650    program     extern C:\Users\Tim\Desktop\PIC-WEB-5-42-UEXT-full\Microchip\TCPIP Stack\TCP.c
                 TCPFlush   0x000896    program     extern C:\Users\Tim\Desktop\PIC-WEB-5-42-UEXT-full\Microchip\TCPIP Stack\TCP.c
                   TCPGet   0x000f12    program     extern C:\Users\Tim\Desktop\PIC-WEB-5-42-UEXT-full\Microchip\TCPIP Stack\TCP.c
              TCPGetArray   0x000fb8    program     extern C:\Users\Tim\Desktop\PIC-WEB-5-42-UEXT-full\Microchip\TCPIP Stack\TCP.c
         TCPGetRemoteInfo   0x00083c    program     extern C:\Users\Tim\Desktop\PIC-WEB-5-42-UEXT-full\Microchip\TCPIP Stack\TCP.c
         TCPGetRxFIFOFree   0x00111c    program     extern C:\Users\Tim\Desktop\PIC-WEB-5-42-UEXT-full\Microchip\TCPIP Stack\TCP.c
         TCPGetTxFIFOFull   0x000e18    program     extern C:\Users\Tim\Desktop\PIC-WEB-5-42-UEXT-full\Microchip\TCPIP Stack\TCP.c
                  TCPInit   0x0002ca    program     extern C:\Users\Tim\Desktop\PIC-WEB-5-42-UEXT-full\Microchip\TCPIP Stack\TCP.c
           TCPIsConnected   0x00072c    program     extern C:\Users\Tim\Desktop\PIC-WEB-5-42-UEXT-full\Microchip\TCPIP Stack\TCP.c
            TCPIsGetReady   0x000ea6    program     extern C:\Users\Tim\Desktop\PIC-WEB-5-42-UEXT-full\Microchip\TCPIP Stack\TCP.c
            TCPIsPutReady   0x0008d2    program     extern C:\Users\Tim\Desktop\PIC-WEB-5-42-UEXT-full\Microchip\TCPIP Stack\TCP.c
                  TCPOpen   0x00055e    program     extern C:\Users\Tim\Desktop\PIC-WEB-5-42-UEXT-full\Microchip\TCPIP Stack\TCP.c
                  TCPPeek   0x0012dc    program     extern C:\Users\Tim\Desktop\PIC-WEB-5-42-UEXT-full\Microchip\TCPIP Stack\TCP.c
             TCPPeekArray   0x00116c    program     extern C:\Users\Tim\Desktop\PIC-WEB-5-42-UEXT-full\Microchip\TCPIP Stack\TCP.c
       TCPPerformanceTask   0x018220    program     extern C:\Users\Tim\Desktop\PIC-WEB-5-42-UEXT-full\Microchip\TCPIP Stack\TCPPerformanceTest.c
               TCPProcess   0x0021d6    program     extern C:\Users\Tim\Desktop\PIC-WEB-5-42-UEXT-full\Microchip\TCPIP Stack\TCP.c
                   TCPPut   0x00095c    program     extern C:\Users\Tim\Desktop\PIC-WEB-5-42-UEXT-full\Microchip\TCPIP Stack\TCP.c
              TCPPutArray   0x000a50    program     extern C:\Users\Tim\Desktop\PIC-WEB-5-42-UEXT-full\Microchip\TCPIP Stack\TCP.c
           TCPPutROMArray   0x000bea    program     extern C:\Users\Tim\Desktop\PIC-WEB-5-42-UEXT-full\Microchip\TCPIP Stack\TCP.c
          TCPPutROMString   0x000dc6    program     extern C:\Users\Tim\Desktop\PIC-WEB-5-42-UEXT-full\Microchip\TCPIP Stack\TCP.c
             TCPPutString   0x000d8a    program     extern C:\Users\Tim\Desktop\PIC-WEB-5-42-UEXT-full\Microchip\TCPIP Stack\TCP.c
               TCPRAMCopy   0x004240    program     static C:\Users\Tim\Desktop\PIC-WEB-5-42-UEXT-full\Microchip\TCPIP Stack\TCP.c
            TCPRAMCopyROM   0x0042fc    program     static C:\Users\Tim\Desktop\PIC-WEB-5-42-UEXT-full\Microchip\TCPIP Stack\TCP.c
     TCPRXPerformanceTask   0x018534    program     extern C:\Users\Tim\Desktop\PIC-WEB-5-42-UEXT-full\Microchip\TCPIP Stack\TCPPerformanceTest.c
     TCPSocketInitializer   0x01e250    program     extern C:\Users\Tim\Desktop\PIC-WEB-5-42-UEXT-full\TCPIP\Demo App\Configs\TCPIP OLIMEX_PIC_WEB.h
     TCPTXPerformanceTask   0x018226    program     extern C:\Users\Tim\Desktop\PIC-WEB-5-42-UEXT-full\Microchip\TCPIP Stack\TCPPerformanceTest.c
                  TCPTick   0x001a00    program     extern C:\Users\Tim\Desktop\PIC-WEB-5-42-UEXT-full\Microchip\TCPIP Stack\TCP.c
              TCPWasReset   0x000706    program     extern C:\Users\Tim\Desktop\PIC-WEB-5-42-UEXT-full\Microchip\TCPIP Stack\TCP.c
               TSIGN1616A   0x017144    program     static E:\3.46\pic18-lt\cxx-framework\src\traditional\math\fxm1616s.asm
               TelnetTask   0x013bf2    program     extern C:\Users\Tim\Desktop\PIC-WEB-5-42-UEXT-full\Microchip\TCPIP Stack\Telnet.c
TickConvertToMilliseconds   0x01dd48    program     extern C:\Users\Tim\Desktop\PIC-WEB-5-42-UEXT-full\Microchip\TCPIP Stack\Tick.c
                  TickGet   0x01dcdc    program     extern C:\Users\Tim\Desktop\PIC-WEB-5-42-UEXT-full\Microchip\TCPIP Stack\Tick.c
            TickGetDiv256   0x01dd00    program     extern C:\Users\Tim\Desktop\PIC-WEB-5-42-UEXT-full\Microchip\TCPIP Stack\Tick.c
            TickGetDiv64K   0x01dd24    program     extern C:\Users\Tim\Desktop\PIC-WEB-5-42-UEXT-full\Microchip\TCPIP Stack\Tick.c
                 TickInit   0x01dca6    program     extern C:\Users\Tim\Desktop\PIC-WEB-5-42-UEXT-full\Microchip\TCPIP Stack\Tick.c
               TickUpdate   0x01dd72    program     extern C:\Users\Tim\Desktop\PIC-WEB-5-42-UEXT-full\Microchip\TCPIP Stack\Tick.c
                 TstLower   0x0199a4    program     static E:\3.46\pic18-lt\cxx-framework\src\traditional\stdclib\itoa.asm
                 TstLower   0x019b02    program     static E:\3.46\pic18-lt\cxx-framework\src\traditional\stdclib\ultoa.asm
                 TstUpper   0x01999e    program     static E:\3.46\pic18-lt\cxx-framework\src\traditional\stdclib\itoa.asm
                 TstUpper   0x019afc    program     static E:\3.46\pic18-lt\cxx-framework\src\traditional\stdclib\ultoa.asm
        UART2TCPBridgeISR   0x01ba5e    program     extern C:\Users\Tim\Desktop\PIC-WEB-5-42-UEXT-full\Microchip\TCPIP Stack\UART2TCPBridge.c
       UART2TCPBridgeInit   0x01b80a    program     extern C:\Users\Tim\Desktop\PIC-WEB-5-42-UEXT-full\Microchip\TCPIP Stack\UART2TCPBridge.c
       UART2TCPBridgeTask   0x01b822    program     extern C:\Users\Tim\Desktop\PIC-WEB-5-42-UEXT-full\Microchip\TCPIP Stack\UART2TCPBridge.c
                UART_Init   0x01d9d2    program     extern C:\Users\Tim\Desktop\PIC-WEB-5-42-UEXT-full\TCPIP\Demo App\Olimex_Demo_Files\Custom_UART_Low.c
          UART_Read_Array   0x01d3e6    program     extern C:\Users\Tim\Desktop\PIC-WEB-5-42-UEXT-full\TCPIP\Demo App\Olimex_Demo_Files\Custom_UART.c
         UART_Read_String   0x01d3aa    program     extern C:\Users\Tim\Desktop\PIC-WEB-5-42-UEXT-full\TCPIP\Demo App\Olimex_Demo_Files\Custom_UART.c
             UART_Receive   0x01dac8    program     extern C:\Users\Tim\Desktop\PIC-WEB-5-42-UEXT-full\TCPIP\Demo App\Olimex_Demo_Files\Custom_UART_Low.c
            UART_Transmit   0x01dad2    program     extern C:\Users\Tim\Desktop\PIC-WEB-5-42-UEXT-full\TCPIP\Demo App\Olimex_Demo_Files\Custom_UART_Low.c
         UART_Write_Array   0x01d356    program     extern C:\Users\Tim\Desktop\PIC-WEB-5-42-UEXT-full\TCPIP\Demo App\Olimex_Demo_Files\Custom_UART.c
        UART_Write_String   0x01d308    program     extern C:\Users\Tim\Desktop\PIC-WEB-5-42-UEXT-full\TCPIP\Demo App\Olimex_Demo_Files\Custom_UART.c
                 UDPClose   0x010160    program     extern C:\Users\Tim\Desktop\PIC-WEB-5-42-UEXT-full\Microchip\TCPIP Stack\UDP.c
               UDPDiscard   0x010708    program     extern C:\Users\Tim\Desktop\PIC-WEB-5-42-UEXT-full\Microchip\TCPIP Stack\UDP.c
                 UDPFlush   0x01047a    program     extern C:\Users\Tim\Desktop\PIC-WEB-5-42-UEXT-full\Microchip\TCPIP Stack\UDP.c
                   UDPGet   0x01066a    program     extern C:\Users\Tim\Desktop\PIC-WEB-5-42-UEXT-full\Microchip\TCPIP Stack\UDP.c
              UDPGetArray   0x010698    program     extern C:\Users\Tim\Desktop\PIC-WEB-5-42-UEXT-full\Microchip\TCPIP Stack\UDP.c
                  UDPInit   0x00fb0c    program     extern C:\Users\Tim\Desktop\PIC-WEB-5-42-UEXT-full\Microchip\TCPIP Stack\UDP.c
            UDPIsGetReady   0x010632    program     extern C:\Users\Tim\Desktop\PIC-WEB-5-42-UEXT-full\Microchip\TCPIP Stack\UDP.c
              UDPIsOpened   0x010138    program     extern C:\Users\Tim\Desktop\PIC-WEB-5-42-UEXT-full\Microchip\TCPIP Stack\UDP.c
            UDPIsPutReady   0x010238    program     extern C:\Users\Tim\Desktop\PIC-WEB-5-42-UEXT-full\Microchip\TCPIP Stack\UDP.c
                UDPOpenEx   0x00fb28    program     extern C:\Users\Tim\Desktop\PIC-WEB-5-42-UEXT-full\Microchip\TCPIP Stack\UDP.c
               UDPProcess   0x010722    program     extern C:\Users\Tim\Desktop\PIC-WEB-5-42-UEXT-full\Microchip\TCPIP Stack\UDP.c
                   UDPPut   0x01029c    program     extern C:\Users\Tim\Desktop\PIC-WEB-5-42-UEXT-full\Microchip\TCPIP Stack\UDP.c
              UDPPutArray   0x0102e0    program     extern C:\Users\Tim\Desktop\PIC-WEB-5-42-UEXT-full\Microchip\TCPIP Stack\UDP.c
           UDPPutROMArray   0x010368    program     extern C:\Users\Tim\Desktop\PIC-WEB-5-42-UEXT-full\Microchip\TCPIP Stack\UDP.c
          UDPPutROMString   0x01042c    program     extern C:\Users\Tim\Desktop\PIC-WEB-5-42-UEXT-full\Microchip\TCPIP Stack\UDP.c
             UDPPutString   0x0103f4    program     extern C:\Users\Tim\Desktop\PIC-WEB-5-42-UEXT-full\Microchip\TCPIP Stack\UDP.c
           UDPSetRxBuffer   0x010216    program     extern C:\Users\Tim\Desktop\PIC-WEB-5-42-UEXT-full\Microchip\TCPIP Stack\UDP.c
           UDPSetTxBuffer   0x0101c8    program     extern C:\Users\Tim\Desktop\PIC-WEB-5-42-UEXT-full\Microchip\TCPIP Stack\UDP.c
                  UDPTask   0x00fd44    program     extern C:\Users\Tim\Desktop\PIC-WEB-5-42-UEXT-full\Microchip\TCPIP Stack\UDP.c
  WriteBufferToMainMemory   0x01a38a    program     extern C:\Users\Tim\Desktop\PIC-WEB-5-42-UEXT-full\Microchip\TCPIP Stack\SPIFlash.c
              WritePHYReg   0x016cfa    program     extern C:\Users\Tim\Desktop\PIC-WEB-5-42-UEXT-full\Microchip\TCPIP Stack\ETH97J60.c
                WriteSPI1   0x01dd86    program     extern C:\Users\Tim\Desktop\PIC-WEB-5-42-UEXT-full\TCPIP\Demo App\Olimex_Demo_Files\Custom_SPI_Low.c
               WriteUSART   0x01d936    program     extern C:\Users\Tim\Desktop\PIC-WEB-5-42-UEXT-full\Microchip\TCPIP Stack\UART.c
                  _14jEnd   0x0198ac    program     static E:\3.46\pic18-lt\cxx-framework\src\traditional\stdclib\atol.asm
              _2jContinue   0x01b27c    program     static E:\3.46\pic18-lt\cxx-framework\src\traditional\stdclib\memset.asm
                   _2jEnd   0x01b3fc    program     static E:\3.46\pic18-lt\cxx-framework\src\traditional\stdclib\slenpgm.asm
              _3jContinue   0x01b1ac    program     static E:\3.46\pic18-lt\cxx-framework\src\traditional\stdclib\mcmpp2r.asm
              _3jContinue   0x01b248    program     static E:\3.46\pic18-lt\cxx-framework\src\traditional\stdclib\mcpyp2r.asm
                   _3jEnd   0x01b286    program     static E:\3.46\pic18-lt\cxx-framework\src\traditional\stdclib\memset.asm
              _4jContinue   0x01b15c    program     static E:\3.46\pic18-lt\cxx-framework\src\traditional\stdclib\memcmp.asm
              _4jContinue   0x01b446    program     static E:\3.46\pic18-lt\cxx-framework\src\traditional\stdclib\strncpy.asm
              _4jContinue   0x01b1f4    program     static E:\3.46\pic18-lt\cxx-framework\src\traditional\stdclib\memcpy.asm
                   _4jEnd   0x01b252    program     static E:\3.46\pic18-lt\cxx-framework\src\traditional\stdclib\mcpyp2r.asm
                   _4jEnd   0x01b1b6    program     static E:\3.46\pic18-lt\cxx-framework\src\traditional\stdclib\mcmpp2r.asm
                   _5jEnd   0x01b1fe    program     static E:\3.46\pic18-lt\cxx-framework\src\traditional\stdclib\memcpy.asm
                   _5jEnd   0x01b166    program     static E:\3.46\pic18-lt\cxx-framework\src\traditional\stdclib\memcmp.asm
                   _5jEnd   0x01b450    program     static E:\3.46\pic18-lt\cxx-framework\src\traditional\stdclib\strncpy.asm
        _D10TCYXCODE_000A   0x01e398    program     static E:\3.46\pic18-lt\cxx-framework\src\traditional\delays\d10tcyx.asm
        _D10TCYXCODE_000C   0x01e39a    program     static E:\3.46\pic18-lt\cxx-framework\src\traditional\delays\d10tcyx.asm
        _D10TCYXCODE_000E   0x01e39c    program     static E:\3.46\pic18-lt\cxx-framework\src\traditional\delays\d10tcyx.asm
        _D1KTCYXCODE_0010   0x01e346    program     static E:\3.46\pic18-lt\cxx-framework\src\traditional\delays\d1ktcyx.asm
        _D1KTCYXCODE_0016   0x01e34c    program     static E:\3.46\pic18-lt\cxx-framework\src\traditional\delays\d1ktcyx.asm
             _DHCPReceive   0x01125e    program     static C:\Users\Tim\Desktop\PIC-WEB-5-42-UEXT-full\Microchip\TCPIP Stack\DHCP.c
                _DHCPSend   0x011644    program     static C:\Users\Tim\Desktop\PIC-WEB-5-42-UEXT-full\Microchip\TCPIP Stack\DHCP.c
           _LoadFATRecord   0x00e3a0    program     static C:\Users\Tim\Desktop\PIC-WEB-5-42-UEXT-full\Microchip\TCPIP Stack\MPFS2.c
                   _MD5_k   0x01cf9a    program     static C:\Users\Tim\Desktop\PIC-WEB-5-42-UEXT-full\Microchip\TCPIP Stack\Hashes.c
                   _MD5_r   0x01cf5a    program     static C:\Users\Tim\Desktop\PIC-WEB-5-42-UEXT-full\Microchip\TCPIP Stack\Hashes.c
                _PackMath   0x01d7a0    program     extern E:\3.46\pic18-lt\cxx-framework\src\traditional\stdclib\PackMath.c
                _UnpkMath   0x01d684    program     extern E:\3.46\pic18-lt\cxx-framework\src\traditional\stdclib\UnpkMath.c
                _Validate   0x00e992    program     static C:\Users\Tim\Desktop\PIC-WEB-5-42-UEXT-full\Microchip\TCPIP Stack\MPFS2.c
              __FpCompare   0x01739c    program     extern E:\3.46\pic18-lt\cxx-framework\src\traditional\math\compFP.asm
                 __FpExit   0x01728a    program     extern E:\3.46\pic18-lt\cxx-framework\src\traditional\math\packFP.asm
                 __FpPack   0x0172b6    program     extern E:\3.46\pic18-lt\cxx-framework\src\traditional\math\packFP.asm
            __FpReturnNaN   0x01727e    program     extern E:\3.46\pic18-lt\cxx-framework\src\traditional\math\packFP.asm
         __FpReturnNegInf   0x017290    program     extern E:\3.46\pic18-lt\cxx-framework\src\traditional\math\packFP.asm
        __FpReturnNegZero   0x0172a8    program     extern E:\3.46\pic18-lt\cxx-framework\src\traditional\math\packFP.asm
         __FpReturnPosInf   0x017296    program     extern E:\3.46\pic18-lt\cxx-framework\src\traditional\math\packFP.asm
        __FpReturnPosZero   0x0172b0    program     extern E:\3.46\pic18-lt\cxx-framework\src\traditional\math\packFP.asm
        __FpReturnSignInf   0x01728c    program     extern E:\3.46\pic18-lt\cxx-framework\src\traditional\math\packFP.asm
       __FpReturnSignZero   0x0172a4    program     extern E:\3.46\pic18-lt\cxx-framework\src\traditional\math\packFP.asm
              __FpReturnW   0x01730e    program     extern E:\3.46\pic18-lt\cxx-framework\src\traditional\math\packFP.asm
              __FpUnPackA   0x01732e    program     extern E:\3.46\pic18-lt\cxx-framework\src\traditional\math\UnpackFP.asm
              __FpUnPackB   0x01735e    program     extern E:\3.46\pic18-lt\cxx-framework\src\traditional\math\UnpackFP.asm
      ___case_49_lbl00037   0x007b9e    program     static                          
      ___case_50_lbl00038   0x007ba2    program     static                          
      ___case_51_lbl00039   0x007ba6    program     static                          
      ___case_52_lbl00040   0x007baa    program     static                          
      ___case_53_lbl00041   0x007bae    program     static                          
      ___case_54_lbl00042   0x007bb2    program     static                          
      ___case_55_lbl00043   0x007bb6    program     static                          
           ___do_lbl00001   0x01e1ac    program     static                          
           ___do_lbl00002   0x01e1b2    program     static                          
           ___do_lbl00002   0x01dcd4    program     static                          
           ___do_lbl00003   0x01d266    program     static                          
           ___do_lbl00003   0x01dcd8    program     static                          
           ___do_lbl00004   0x01d26c    program     static                          
           ___do_lbl00004   0x01dcb6    program     static                          
           ___do_lbl00006   0x01e172    program     static                          
           ___do_lbl00007   0x01d226    program     static                          
           ___do_lbl00024   0x007952    program     static                          
           ___do_lbl00025   0x007952    program     static                          
           ___do_lbl00028   0x007928    program     static                          
         ___else_lbl00006   0x01d248    program     static                          
         ___else_lbl00046   0x007b28    program     static                          
         ___else_lbl00048   0x007af6    program     static                          
          ___for_lbl00009   0x0075b2    program     static                          
          ___for_lbl00010   0x0075bc    program     static                          
          ___for_lbl00011   0x00752c    program     static                          
          ___for_lbl00015   0x00771a    program     static                          
          ___for_lbl00016   0x007724    program     static                          
          ___for_lbl00017   0x0076d2    program     static                          
          ___for_lbl00147   0x012efe    program     static                          
          ___for_lbl00148   0x012f06    program     static                          
          ___for_lbl00149   0x012ee2    program     static                          
          ___for_lbl00150   0x012f1c    program     static                          
          ___for_lbl00151   0x012f22    program     static                          
          ___for_lbl00152   0x012f06    program     static                          
           ___if_lbl00001   0x01d466    program     static                          
           ___if_lbl00002   0x01d470    program     static                          
           ___if_lbl00003   0x01e19a    program     static                          
           ___if_lbl00003   0x01d488    program     static                          
           ___if_lbl00004   0x01e19a    program     static                          
           ___if_lbl00004   0x01d4f8    program     static                          
           ___if_lbl00005   0x01d262    program     static                          
           ___if_lbl00005   0x01e1ac    program     static                          
           ___if_lbl00007   0x0074a0    program     static                          
           ___if_lbl00008   0x0074a0    program     static                          
           ___if_lbl00012   0x0075d0    program     static                          
           ___if_lbl00012   0x015dc8    program     static                          
           ___if_lbl00013   0x007646    program     static                          
           ___if_lbl00013   0x015dce    program     static                          
           ___if_lbl00014   0x007646    program     static                          
           ___if_lbl00014   0x012642    program     static                          
           ___if_lbl00015   0x012658    program     static                          
           ___if_lbl00016   0x0126aa    program     static                          
           ___if_lbl00016   0x015e34    program     static                          
           ___if_lbl00017   0x0126b2    program     static                          
           ___if_lbl00017   0x015ece    program     static                          
           ___if_lbl00018   0x007724    program     static                          
           ___if_lbl00019   0x007802    program     static                          
           ___if_lbl00020   0x007846    program     static                          
           ___if_lbl00020   0x0166a0    program     static                          
           ___if_lbl00021   0x00788a    program     static                          
           ___if_lbl00021   0x0166b0    program     static                          
           ___if_lbl00022   0x00788e    program     static                          
           ___if_lbl00023   0x007928    program     static                          
           ___if_lbl00027   0x016740    program     static                          
           ___if_lbl00029   0x007986    program     static                          
           ___if_lbl00030   0x0079ba    program     static                          
           ___if_lbl00030   0x0167a6    program     static                          
           ___if_lbl00031   0x0079ba    program     static                          
           ___if_lbl00032   0x007a28    program     static                          
           ___if_lbl00033   0x007a6a    program     static                          
           ___if_lbl00034   0x007aac    program     static                          
           ___if_lbl00035   0x007af4    program     static                          
           ___if_lbl00044   0x007bba    program     static                          
           ___if_lbl00045   0x007bba    program     static                          
           ___if_lbl00047   0x007bba    program     static                          
       ___return_lbl00000   0x01e1c4    program     static                          
       ___return_lbl00000   0x01d55e    program     static                          
       ___return_lbl00000   0x000004    program     static                          
       ___return_lbl00000   0x01e102    program     static                          
       ___return_lbl00000   0x016566    program     static                          
       ___return_lbl00000   0x01e2e4    program     static                          
       ___return_lbl00000   0x01e20c    program     static                          
       ___return_lbl00001   0x01e370    program     static                          
       ___return_lbl00001   0x01dcda    program     static                          
       ___return_lbl00002   0x01df90    program     static                          
       ___return_lbl00002   0x01d27e    program     static                          
       ___return_lbl00003   0x00001c    program     static                          
       ___return_lbl00004   0x00000c    program     static                          
       ___return_lbl00005   0x015ed0    program     static                          
       ___return_lbl00006   0x007bbe    program     static                          
       ___return_lbl00009   0x0126da    program     static                          
       ___return_lbl00019   0x0167ae    program     static                          
       ___return_lbl00079   0x016c5a    program     static                          
       ___return_lbl00080   0x016c8c    program     static                          
       ___return_lbl00083   0x016cc8    program     static                          
       ___return_lbl00086   0x016cf8    program     static                          
       ___return_lbl00089   0x016d28    program     static                          
       ___return_lbl00146   0x012f34    program     static                          
       ___return_lbl00271   0x0096e6    program     static                          
   ___switchexit_lbl00036   0x007bba    program     static                          
        ___while_lbl00001   0x016486    program     static                          
        ___while_lbl00002   0x01648c    program     static                          
        ___while_lbl00006   0x015d0a    program     static                          
        ___while_lbl00007   0x015dca    program     static                          
        ___while_lbl00008   0x015d7c    program     static                          
        ___while_lbl00009   0x015dbe    program     static                          
        ___while_lbl00010   0x0125dc    program     static                          
        ___while_lbl00010   0x015dc0    program     static                          
        ___while_lbl00011   0x015dc4    program     static                          
        ___while_lbl00011   0x0126b4    program     static                          
        ___while_lbl00012   0x0125e4    program     static                          
        ___while_lbl00013   0x0125e8    program     static                          
        ___while_lbl00014   0x015de8    program     static                          
        ___while_lbl00015   0x015ed0    program     static                          
        ___while_lbl00026   0x007930    program     static                          
        ___while_lbl00027   0x007952    program     static                          
        ___while_lbl00081   0x016c5c    program     static                          
        ___while_lbl00082   0x016c8c    program     static                          
        ___while_lbl00084   0x016c8e    program     static                          
        ___while_lbl00085   0x016cc8    program     static                          
        ___while_lbl00087   0x016cd8    program     static                          
        ___while_lbl00088   0x016cde    program     static                          
        ___while_lbl00090   0x016d22    program     static                          
        ___while_lbl00091   0x016d28    program     static                          
               __config_0   0x01fff8    program     static C:\Users\Tim\Desktop\PIC-WEB-5-42-UEXT-full\TCPIP\Demo App\MainDemo.c
               __config_1   0x01fffa    program     static C:\Users\Tim\Desktop\PIC-WEB-5-42-UEXT-full\TCPIP\Demo App\MainDemo.c
               __config_2   0x01fffd    program     static C:\Users\Tim\Desktop\PIC-WEB-5-42-UEXT-full\TCPIP\Demo App\MainDemo.c
                   __init   0x01e3e4    program     extern E:\3.46\pic18-lt\cxx-framework\src\traditional\stdclib\__init.c
                   __pa_0   0x0121e4    program     static E:\3.46\pic18-lt\cxx-framework\src\traditional\stdclib\vfprintf.c
                   __pa_0   0x0138fc    program     static E:\3.46\pic18-lt\cxx-framework\src\traditional\stdclib\pow.c
                   __pa_0   0x01bd76    program     static E:\3.46\pic18-lt\cxx-framework\src\traditional\stdclib\fchop.c
                   __pa_0   0x019570    program     static E:\3.46\pic18-lt\cxx-framework\src\traditional\stdclib\log.c
                   __pa_0   0x01d792    program     static E:\3.46\pic18-lt\cxx-framework\src\traditional\stdclib\UnpkMath.c
                   __pa_0   0x0180ea    program     static E:\3.46\pic18-lt\cxx-framework\src\traditional\stdclib\exp.c
                   __pa_0   0x01d1c8    program     static E:\3.46\pic18-lt\cxx-framework\src\traditional\stdclib\ldexp.c
                   __pa_0   0x01d868    program     static E:\3.46\pic18-lt\cxx-framework\src\traditional\stdclib\PackMath.c
                   __pa_0   0x01d668    program     static E:\3.46\pic18-lt\cxx-framework\src\traditional\stdclib\frexp.c
                   __pa_1   0x0121ec    program     static E:\3.46\pic18-lt\cxx-framework\src\traditional\stdclib\vfprintf.c
                   __pa_1   0x01d676    program     static E:\3.46\pic18-lt\cxx-framework\src\traditional\stdclib\frexp.c
                   __pa_1   0x01d878    program     static E:\3.46\pic18-lt\cxx-framework\src\traditional\stdclib\PackMath.c
                   __pa_1   0x01957c    program     static E:\3.46\pic18-lt\cxx-framework\src\traditional\stdclib\log.c
                   __pa_1   0x013912    program     static E:\3.46\pic18-lt\cxx-framework\src\traditional\stdclib\pow.c
                   __pa_1   0x0180f2    program     static E:\3.46\pic18-lt\cxx-framework\src\traditional\stdclib\exp.c
                   __pa_1   0x01bd80    program     static E:\3.46\pic18-lt\cxx-framework\src\traditional\stdclib\fchop.c
                  __pa_10   0x0122a0    program     static E:\3.46\pic18-lt\cxx-framework\src\traditional\stdclib\vfprintf.c
                  __pa_10   0x019632    program     static E:\3.46\pic18-lt\cxx-framework\src\traditional\stdclib\log.c
                  __pa_10   0x013a0c    program     static E:\3.46\pic18-lt\cxx-framework\src\traditional\stdclib\pow.c
                  __pa_10   0x0181d0    program     static E:\3.46\pic18-lt\cxx-framework\src\traditional\stdclib\exp.c
                  __pa_11   0x013a32    program     static E:\3.46\pic18-lt\cxx-framework\src\traditional\stdclib\pow.c
                  __pa_11   0x0181e2    program     static E:\3.46\pic18-lt\cxx-framework\src\traditional\stdclib\exp.c
                  __pa_11   0x01963a    program     static E:\3.46\pic18-lt\cxx-framework\src\traditional\stdclib\log.c
                  __pa_11   0x0122ae    program     static E:\3.46\pic18-lt\cxx-framework\src\traditional\stdclib\vfprintf.c
                  __pa_12   0x013a44    program     static E:\3.46\pic18-lt\cxx-framework\src\traditional\stdclib\pow.c
                  __pa_12   0x0181f4    program     static E:\3.46\pic18-lt\cxx-framework\src\traditional\stdclib\exp.c
                  __pa_12   0x01964c    program     static E:\3.46\pic18-lt\cxx-framework\src\traditional\stdclib\log.c
                  __pa_12   0x0122c4    program     static E:\3.46\pic18-lt\cxx-framework\src\traditional\stdclib\vfprintf.c
                  __pa_13   0x019666    program     static E:\3.46\pic18-lt\cxx-framework\src\traditional\stdclib\log.c
                  __pa_13   0x0122de    program     static E:\3.46\pic18-lt\cxx-framework\src\traditional\stdclib\vfprintf.c
                  __pa_13   0x018200    program     static E:\3.46\pic18-lt\cxx-framework\src\traditional\stdclib\exp.c
                  __pa_13   0x013a56    program     static E:\3.46\pic18-lt\cxx-framework\src\traditional\stdclib\pow.c
                  __pa_14   0x0122f6    program     static E:\3.46\pic18-lt\cxx-framework\src\traditional\stdclib\vfprintf.c
                  __pa_14   0x013a60    program     static E:\3.46\pic18-lt\cxx-framework\src\traditional\stdclib\pow.c
                  __pa_14   0x01820e    program     static E:\3.46\pic18-lt\cxx-framework\src\traditional\stdclib\exp.c
                  __pa_14   0x019678    program     static E:\3.46\pic18-lt\cxx-framework\src\traditional\stdclib\log.c
                  __pa_15   0x013a7a    program     static E:\3.46\pic18-lt\cxx-framework\src\traditional\stdclib\pow.c
                  __pa_15   0x018218    program     static E:\3.46\pic18-lt\cxx-framework\src\traditional\stdclib\exp.c
                  __pa_15   0x012306    program     static E:\3.46\pic18-lt\cxx-framework\src\traditional\stdclib\vfprintf.c
                  __pa_15   0x01968a    program     static E:\3.46\pic18-lt\cxx-framework\src\traditional\stdclib\log.c
                  __pa_16   0x019696    program     static E:\3.46\pic18-lt\cxx-framework\src\traditional\stdclib\log.c
                  __pa_16   0x013a92    program     static E:\3.46\pic18-lt\cxx-framework\src\traditional\stdclib\pow.c
                  __pa_16   0x01231c    program     static E:\3.46\pic18-lt\cxx-framework\src\traditional\stdclib\vfprintf.c
                  __pa_17   0x01232e    program     static E:\3.46\pic18-lt\cxx-framework\src\traditional\stdclib\vfprintf.c
                  __pa_17   0x013aa0    program     static E:\3.46\pic18-lt\cxx-framework\src\traditional\stdclib\pow.c
                  __pa_18   0x013aae    program     static E:\3.46\pic18-lt\cxx-framework\src\traditional\stdclib\pow.c
                  __pa_18   0x012340    program     static E:\3.46\pic18-lt\cxx-framework\src\traditional\stdclib\vfprintf.c
                  __pa_19   0x013ab6    program     static E:\3.46\pic18-lt\cxx-framework\src\traditional\stdclib\pow.c
                  __pa_19   0x01234a    program     static E:\3.46\pic18-lt\cxx-framework\src\traditional\stdclib\vfprintf.c
                   __pa_2   0x01391a    program     static E:\3.46\pic18-lt\cxx-framework\src\traditional\stdclib\pow.c
                   __pa_2   0x01958e    program     static E:\3.46\pic18-lt\cxx-framework\src\traditional\stdclib\log.c
                   __pa_2   0x0121f6    program     static E:\3.46\pic18-lt\cxx-framework\src\traditional\stdclib\vfprintf.c
                   __pa_2   0x018112    program     static E:\3.46\pic18-lt\cxx-framework\src\traditional\stdclib\exp.c
                   __pa_2   0x01d886    program     static E:\3.46\pic18-lt\cxx-framework\src\traditional\stdclib\PackMath.c
                  __pa_20   0x013ac8    program     static E:\3.46\pic18-lt\cxx-framework\src\traditional\stdclib\pow.c
                  __pa_20   0x01235a    program     static E:\3.46\pic18-lt\cxx-framework\src\traditional\stdclib\vfprintf.c
                  __pa_21   0x013ad4    program     static E:\3.46\pic18-lt\cxx-framework\src\traditional\stdclib\pow.c
                  __pa_21   0x01236a    program     static E:\3.46\pic18-lt\cxx-framework\src\traditional\stdclib\vfprintf.c
                  __pa_22   0x013ae6    program     static E:\3.46\pic18-lt\cxx-framework\src\traditional\stdclib\pow.c
                  __pa_22   0x01237a    program     static E:\3.46\pic18-lt\cxx-framework\src\traditional\stdclib\vfprintf.c
                  __pa_23   0x013af8    program     static E:\3.46\pic18-lt\cxx-framework\src\traditional\stdclib\pow.c
                  __pa_23   0x012386    program     static E:\3.46\pic18-lt\cxx-framework\src\traditional\stdclib\vfprintf.c
                  __pa_24   0x013b04    program     static E:\3.46\pic18-lt\cxx-framework\src\traditional\stdclib\pow.c
                  __pa_24   0x012394    program     static E:\3.46\pic18-lt\cxx-framework\src\traditional\stdclib\vfprintf.c
                  __pa_25   0x01239c    program     static E:\3.46\pic18-lt\cxx-framework\src\traditional\stdclib\vfprintf.c
                  __pa_25   0x013b10    program     static E:\3.46\pic18-lt\cxx-framework\src\traditional\stdclib\pow.c
                  __pa_26   0x0123a6    program     static E:\3.46\pic18-lt\cxx-framework\src\traditional\stdclib\vfprintf.c
                  __pa_26   0x013b20    program     static E:\3.46\pic18-lt\cxx-framework\src\traditional\stdclib\pow.c
                  __pa_27   0x0123b0    program     static E:\3.46\pic18-lt\cxx-framework\src\traditional\stdclib\vfprintf.c
                  __pa_27   0x013b2e    program     static E:\3.46\pic18-lt\cxx-framework\src\traditional\stdclib\pow.c
                  __pa_28   0x0123b8    program     static E:\3.46\pic18-lt\cxx-framework\src\traditional\stdclib\vfprintf.c
                  __pa_28   0x013b38    program     static E:\3.46\pic18-lt\cxx-framework\src\traditional\stdclib\pow.c
                  __pa_29   0x0123c6    program     static E:\3.46\pic18-lt\cxx-framework\src\traditional\stdclib\vfprintf.c
                  __pa_29   0x013b40    program     static E:\3.46\pic18-lt\cxx-framework\src\traditional\stdclib\pow.c
                   __pa_3   0x01d890    program     static E:\3.46\pic18-lt\cxx-framework\src\traditional\stdclib\PackMath.c
                   __pa_3   0x012200    program     static E:\3.46\pic18-lt\cxx-framework\src\traditional\stdclib\vfprintf.c
                   __pa_3   0x01812c    program     static E:\3.46\pic18-lt\cxx-framework\src\traditional\stdclib\exp.c
                   __pa_3   0x013934    program     static E:\3.46\pic18-lt\cxx-framework\src\traditional\stdclib\pow.c
                   __pa_3   0x0195aa    program     static E:\3.46\pic18-lt\cxx-framework\src\traditional\stdclib\log.c
                  __pa_30   0x0123e2    program     static E:\3.46\pic18-lt\cxx-framework\src\traditional\stdclib\vfprintf.c
                  __pa_30   0x013b48    program     static E:\3.46\pic18-lt\cxx-framework\src\traditional\stdclib\pow.c
                  __pa_31   0x013b5a    program     static E:\3.46\pic18-lt\cxx-framework\src\traditional\stdclib\pow.c
                  __pa_31   0x0123fc    program     static E:\3.46\pic18-lt\cxx-framework\src\traditional\stdclib\vfprintf.c
                  __pa_32   0x013b66    program     static E:\3.46\pic18-lt\cxx-framework\src\traditional\stdclib\pow.c
                  __pa_32   0x012416    program     static E:\3.46\pic18-lt\cxx-framework\src\traditional\stdclib\vfprintf.c
                  __pa_33   0x013b6c    program     static E:\3.46\pic18-lt\cxx-framework\src\traditional\stdclib\pow.c
                  __pa_33   0x01242e    program     static E:\3.46\pic18-lt\cxx-framework\src\traditional\stdclib\vfprintf.c
                  __pa_34   0x012438    program     static E:\3.46\pic18-lt\cxx-framework\src\traditional\stdclib\vfprintf.c
                  __pa_34   0x013b74    program     static E:\3.46\pic18-lt\cxx-framework\src\traditional\stdclib\pow.c
                  __pa_35   0x012446    program     static E:\3.46\pic18-lt\cxx-framework\src\traditional\stdclib\vfprintf.c
                  __pa_35   0x013b80    program     static E:\3.46\pic18-lt\cxx-framework\src\traditional\stdclib\pow.c
                  __pa_36   0x01244e    program     static E:\3.46\pic18-lt\cxx-framework\src\traditional\stdclib\vfprintf.c
                  __pa_36   0x013b8e    program     static E:\3.46\pic18-lt\cxx-framework\src\traditional\stdclib\pow.c
                  __pa_37   0x013b96    program     static E:\3.46\pic18-lt\cxx-framework\src\traditional\stdclib\pow.c
                  __pa_37   0x012458    program     static E:\3.46\pic18-lt\cxx-framework\src\traditional\stdclib\vfprintf.c
                  __pa_38   0x012468    program     static E:\3.46\pic18-lt\cxx-framework\src\traditional\stdclib\vfprintf.c
                  __pa_38   0x013ba0    program     static E:\3.46\pic18-lt\cxx-framework\src\traditional\stdclib\pow.c
                  __pa_39   0x013ba8    program     static E:\3.46\pic18-lt\cxx-framework\src\traditional\stdclib\pow.c
                  __pa_39   0x012476    program     static E:\3.46\pic18-lt\cxx-framework\src\traditional\stdclib\vfprintf.c
                   __pa_4   0x0195b0    program     static E:\3.46\pic18-lt\cxx-framework\src\traditional\stdclib\log.c
                   __pa_4   0x013978    program     static E:\3.46\pic18-lt\cxx-framework\src\traditional\stdclib\pow.c
                   __pa_4   0x01d89e    program     static E:\3.46\pic18-lt\cxx-framework\src\traditional\stdclib\PackMath.c
                   __pa_4   0x012218    program     static E:\3.46\pic18-lt\cxx-framework\src\traditional\stdclib\vfprintf.c
                   __pa_4   0x01813c    program     static E:\3.46\pic18-lt\cxx-framework\src\traditional\stdclib\exp.c
                  __pa_40   0x013bb2    program     static E:\3.46\pic18-lt\cxx-framework\src\traditional\stdclib\pow.c
                  __pa_40   0x012482    program     static E:\3.46\pic18-lt\cxx-framework\src\traditional\stdclib\vfprintf.c
                  __pa_41   0x01248e    program     static E:\3.46\pic18-lt\cxx-framework\src\traditional\stdclib\vfprintf.c
                  __pa_41   0x013bc0    program     static E:\3.46\pic18-lt\cxx-framework\src\traditional\stdclib\pow.c
                  __pa_42   0x012496    program     static E:\3.46\pic18-lt\cxx-framework\src\traditional\stdclib\vfprintf.c
                  __pa_42   0x013bc8    program     static E:\3.46\pic18-lt\cxx-framework\src\traditional\stdclib\pow.c
                  __pa_43   0x0124a0    program     static E:\3.46\pic18-lt\cxx-framework\src\traditional\stdclib\vfprintf.c
                  __pa_43   0x013bd4    program     static E:\3.46\pic18-lt\cxx-framework\src\traditional\stdclib\pow.c
                  __pa_44   0x0124a6    program     static E:\3.46\pic18-lt\cxx-framework\src\traditional\stdclib\vfprintf.c
                  __pa_44   0x013be2    program     static E:\3.46\pic18-lt\cxx-framework\src\traditional\stdclib\pow.c
                  __pa_45   0x013bec    program     static E:\3.46\pic18-lt\cxx-framework\src\traditional\stdclib\pow.c
                  __pa_45   0x0124b0    program     static E:\3.46\pic18-lt\cxx-framework\src\traditional\stdclib\vfprintf.c
                  __pa_46   0x0124bc    program     static E:\3.46\pic18-lt\cxx-framework\src\traditional\stdclib\vfprintf.c
                   __pa_5   0x01814e    program     static E:\3.46\pic18-lt\cxx-framework\src\traditional\stdclib\exp.c
                   __pa_5   0x0195ba    program     static E:\3.46\pic18-lt\cxx-framework\src\traditional\stdclib\log.c
                   __pa_5   0x01399c    program     static E:\3.46\pic18-lt\cxx-framework\src\traditional\stdclib\pow.c
                   __pa_5   0x01222c    program     static E:\3.46\pic18-lt\cxx-framework\src\traditional\stdclib\vfprintf.c
                   __pa_5   0x01d8a6    program     static E:\3.46\pic18-lt\cxx-framework\src\traditional\stdclib\PackMath.c
                   __pa_6   0x012248    program     static E:\3.46\pic18-lt\cxx-framework\src\traditional\stdclib\vfprintf.c
                   __pa_6   0x018164    program     static E:\3.46\pic18-lt\cxx-framework\src\traditional\stdclib\exp.c
                   __pa_6   0x0139aa    program     static E:\3.46\pic18-lt\cxx-framework\src\traditional\stdclib\pow.c
                   __pa_6   0x0195d8    program     static E:\3.46\pic18-lt\cxx-framework\src\traditional\stdclib\log.c
                   __pa_6   0x01d8ae    program     static E:\3.46\pic18-lt\cxx-framework\src\traditional\stdclib\PackMath.c
                   __pa_7   0x0139be    program     static E:\3.46\pic18-lt\cxx-framework\src\traditional\stdclib\pow.c
                   __pa_7   0x0195f2    program     static E:\3.46\pic18-lt\cxx-framework\src\traditional\stdclib\log.c
                   __pa_7   0x012252    program     static E:\3.46\pic18-lt\cxx-framework\src\traditional\stdclib\vfprintf.c
                   __pa_7   0x018182    program     static E:\3.46\pic18-lt\cxx-framework\src\traditional\stdclib\exp.c
                   __pa_8   0x0139d8    program     static E:\3.46\pic18-lt\cxx-framework\src\traditional\stdclib\pow.c
                   __pa_8   0x01225e    program     static E:\3.46\pic18-lt\cxx-framework\src\traditional\stdclib\vfprintf.c
                   __pa_8   0x01960c    program     static E:\3.46\pic18-lt\cxx-framework\src\traditional\stdclib\log.c
                   __pa_8   0x01819e    program     static E:\3.46\pic18-lt\cxx-framework\src\traditional\stdclib\exp.c
                   __pa_9   0x0139f2    program     static E:\3.46\pic18-lt\cxx-framework\src\traditional\stdclib\pow.c
                   __pa_9   0x019622    program     static E:\3.46\pic18-lt\cxx-framework\src\traditional\stdclib\log.c
                   __pa_9   0x0181bc    program     static E:\3.46\pic18-lt\cxx-framework\src\traditional\stdclib\exp.c
                   __pa_9   0x012280    program     static E:\3.46\pic18-lt\cxx-framework\src\traditional\stdclib\vfprintf.c
               __string_0   0x00eb9b    program     static C:\Users\Tim\Desktop\PIC-WEB-5-42-UEXT-full\TCPIP\Demo App\PingDemo.c
               __string_0   0x00eb33    program     static C:\Users\Tim\Desktop\PIC-WEB-5-42-UEXT-full\TCPIP\Demo App\BerkeleyUDPClientDemo.c
               __string_0   0x00f610    program     static C:\Users\Tim\Desktop\PIC-WEB-5-42-UEXT-full\Microchip\TCPIP Stack\SMTP.c
               __string_0   0x00edf4    program     static C:\Users\Tim\Desktop\PIC-WEB-5-42-UEXT-full\Microchip\TCPIP Stack\Announce.c
               __string_0   0x00f667    program     static C:\Users\Tim\Desktop\PIC-WEB-5-42-UEXT-full\Microchip\TCPIP Stack\TCPPerformanceTest.c
               __string_0   0x00edb2    program     static C:\Users\Tim\Desktop\PIC-WEB-5-42-UEXT-full\TCPIP\Demo App\UARTConfig.c
               __string_0   0x00f621    program     static C:\Users\Tim\Desktop\PIC-WEB-5-42-UEXT-full\Microchip\TCPIP Stack\SNTP.c
               __string_0   0x00f595    program     static C:\Users\Tim\Desktop\PIC-WEB-5-42-UEXT-full\Microchip\TCPIP Stack\MPFS2.c
               __string_0   0x00f58a    program     static C:\Users\Tim\Desktop\PIC-WEB-5-42-UEXT-full\Microchip\TCPIP Stack\HTTP2.c
               __string_0   0x00fac1    program     static C:\Users\Tim\Desktop\PIC-WEB-5-42-UEXT-full\TCPIP\Demo App\MainDemo.c
               __string_1   0x00f65f    program     static C:\Users\Tim\Desktop\PIC-WEB-5-42-UEXT-full\Microchip\TCPIP Stack\TCPPerformanceTest.c
               __string_1   0x00ed96    program     static C:\Users\Tim\Desktop\PIC-WEB-5-42-UEXT-full\TCPIP\Demo App\UARTConfig.c
               __string_1   0x00f57f    program     static C:\Users\Tim\Desktop\PIC-WEB-5-42-UEXT-full\Microchip\TCPIP Stack\HTTP2.c
               __string_1   0x00faae    program     static C:\Users\Tim\Desktop\PIC-WEB-5-42-UEXT-full\TCPIP\Demo App\MainDemo.c
               __string_1   0x00f5ff    program     static C:\Users\Tim\Desktop\PIC-WEB-5-42-UEXT-full\Microchip\TCPIP Stack\SMTP.c
               __string_1   0x00fa9b    program     static C:\Users\Tim\Desktop\PIC-WEB-5-42-UEXT-full\TCPIP\Demo App\CustomHTTPApp.c
              __string_10   0x00fa55    program     static C:\Users\Tim\Desktop\PIC-WEB-5-42-UEXT-full\TCPIP\Demo App\CustomHTTPApp.c
              __string_10   0x00f55d    program     static C:\Users\Tim\Desktop\PIC-WEB-5-42-UEXT-full\Microchip\TCPIP Stack\HTTP2.c
              __string_10   0x00ecae    program     static C:\Users\Tim\Desktop\PIC-WEB-5-42-UEXT-full\TCPIP\Demo App\UARTConfig.c
              __string_10   0x00f6bf    program     static C:\Users\Tim\Desktop\PIC-WEB-5-42-UEXT-full\Microchip\TCPIP Stack\Telnet.c
              __string_10   0x00f5b9    program     static C:\Users\Tim\Desktop\PIC-WEB-5-42-UEXT-full\Microchip\TCPIP Stack\SMTP.c
              __string_11   0x00f559    program     static C:\Users\Tim\Desktop\PIC-WEB-5-42-UEXT-full\Microchip\TCPIP Stack\HTTP2.c
              __string_11   0x00f6b8    program     static C:\Users\Tim\Desktop\PIC-WEB-5-42-UEXT-full\Microchip\TCPIP Stack\Telnet.c
              __string_11   0x00f5ad    program     static C:\Users\Tim\Desktop\PIC-WEB-5-42-UEXT-full\Microchip\TCPIP Stack\SMTP.c
              __string_11   0x00ec81    program     static C:\Users\Tim\Desktop\PIC-WEB-5-42-UEXT-full\TCPIP\Demo App\UARTConfig.c
              __string_12   0x00f6b2    program     static C:\Users\Tim\Desktop\PIC-WEB-5-42-UEXT-full\Microchip\TCPIP Stack\Telnet.c
              __string_12   0x00f5a7    program     static C:\Users\Tim\Desktop\PIC-WEB-5-42-UEXT-full\Microchip\TCPIP Stack\SMTP.c
              __string_12   0x00f555    program     static C:\Users\Tim\Desktop\PIC-WEB-5-42-UEXT-full\Microchip\TCPIP Stack\HTTP2.c
              __string_12   0x00fa4d    program     static C:\Users\Tim\Desktop\PIC-WEB-5-42-UEXT-full\TCPIP\Demo App\CustomHTTPApp.c
              __string_12   0x00ec79    program     static C:\Users\Tim\Desktop\PIC-WEB-5-42-UEXT-full\TCPIP\Demo App\UARTConfig.c
              __string_13   0x00ec70    program     static C:\Users\Tim\Desktop\PIC-WEB-5-42-UEXT-full\TCPIP\Demo App\UARTConfig.c
              __string_13   0x00f6af    program     static C:\Users\Tim\Desktop\PIC-WEB-5-42-UEXT-full\Microchip\TCPIP Stack\Telnet.c
              __string_13   0x00fa40    program     static C:\Users\Tim\Desktop\PIC-WEB-5-42-UEXT-full\TCPIP\Demo App\CustomHTTPApp.c
              __string_13   0x00f5a3    program     static C:\Users\Tim\Desktop\PIC-WEB-5-42-UEXT-full\Microchip\TCPIP Stack\SMTP.c
              __string_13   0x00f551    program     static C:\Users\Tim\Desktop\PIC-WEB-5-42-UEXT-full\Microchip\TCPIP Stack\HTTP2.c
              __string_14   0x00fa36    program     static C:\Users\Tim\Desktop\PIC-WEB-5-42-UEXT-full\TCPIP\Demo App\CustomHTTPApp.c
              __string_14   0x00f6a8    program     static C:\Users\Tim\Desktop\PIC-WEB-5-42-UEXT-full\Microchip\TCPIP Stack\Telnet.c
              __string_14   0x00f54d    program     static C:\Users\Tim\Desktop\PIC-WEB-5-42-UEXT-full\Microchip\TCPIP Stack\HTTP2.c
              __string_14   0x00f59c    program     static C:\Users\Tim\Desktop\PIC-WEB-5-42-UEXT-full\Microchip\TCPIP Stack\SMTP.c
              __string_14   0x00ec55    program     static C:\Users\Tim\Desktop\PIC-WEB-5-42-UEXT-full\TCPIP\Demo App\UARTConfig.c
              __string_15   0x00f549    program     static C:\Users\Tim\Desktop\PIC-WEB-5-42-UEXT-full\Microchip\TCPIP Stack\HTTP2.c
              __string_15   0x00f6a1    program     static C:\Users\Tim\Desktop\PIC-WEB-5-42-UEXT-full\Microchip\TCPIP Stack\Telnet.c
              __string_15   0x00fa2e    program     static C:\Users\Tim\Desktop\PIC-WEB-5-42-UEXT-full\TCPIP\Demo App\CustomHTTPApp.c
              __string_15   0x00ec42    program     static C:\Users\Tim\Desktop\PIC-WEB-5-42-UEXT-full\TCPIP\Demo App\UARTConfig.c
              __string_16   0x00f53e    program     static C:\Users\Tim\Desktop\PIC-WEB-5-42-UEXT-full\Microchip\TCPIP Stack\HTTP2.c
              __string_16   0x00ec2a    program     static C:\Users\Tim\Desktop\PIC-WEB-5-42-UEXT-full\TCPIP\Demo App\UARTConfig.c
              __string_16   0x00fa28    program     static C:\Users\Tim\Desktop\PIC-WEB-5-42-UEXT-full\TCPIP\Demo App\CustomHTTPApp.c
              __string_16   0x00f69a    program     static C:\Users\Tim\Desktop\PIC-WEB-5-42-UEXT-full\Microchip\TCPIP Stack\Telnet.c
              __string_17   0x00ec27    program     static C:\Users\Tim\Desktop\PIC-WEB-5-42-UEXT-full\TCPIP\Demo App\UARTConfig.c
              __string_17   0x00fa23    program     static C:\Users\Tim\Desktop\PIC-WEB-5-42-UEXT-full\TCPIP\Demo App\CustomHTTPApp.c
              __string_17   0x00f534    program     static C:\Users\Tim\Desktop\PIC-WEB-5-42-UEXT-full\Microchip\TCPIP Stack\HTTP2.c
              __string_17   0x00f693    program     static C:\Users\Tim\Desktop\PIC-WEB-5-42-UEXT-full\Microchip\TCPIP Stack\Telnet.c
              __string_18   0x00f52b    program     static C:\Users\Tim\Desktop\PIC-WEB-5-42-UEXT-full\Microchip\TCPIP Stack\HTTP2.c
              __string_18   0x00fa1d    program     static C:\Users\Tim\Desktop\PIC-WEB-5-42-UEXT-full\TCPIP\Demo App\CustomHTTPApp.c
              __string_18   0x00ec19    program     static C:\Users\Tim\Desktop\PIC-WEB-5-42-UEXT-full\TCPIP\Demo App\UARTConfig.c
              __string_18   0x00f68c    program     static C:\Users\Tim\Desktop\PIC-WEB-5-42-UEXT-full\Microchip\TCPIP Stack\Telnet.c
              __string_19   0x00f522    program     static C:\Users\Tim\Desktop\PIC-WEB-5-42-UEXT-full\Microchip\TCPIP Stack\HTTP2.c
              __string_19   0x00fa10    program     static C:\Users\Tim\Desktop\PIC-WEB-5-42-UEXT-full\TCPIP\Demo App\CustomHTTPApp.c
              __string_19   0x00ec08    program     static C:\Users\Tim\Desktop\PIC-WEB-5-42-UEXT-full\TCPIP\Demo App\UARTConfig.c
              __string_19   0x00f685    program     static C:\Users\Tim\Desktop\PIC-WEB-5-42-UEXT-full\Microchip\TCPIP Stack\Telnet.c
               __string_2   0x00f63e    program     static C:\Users\Tim\Desktop\PIC-WEB-5-42-UEXT-full\Microchip\TCPIP Stack\TCPPerformanceTest.c
               __string_2   0x00eb03    program     static C:\Users\Tim\Desktop\PIC-WEB-5-42-UEXT-full\TCPIP\Demo App\BerkeleyTCPClientDemo.c
               __string_2   0x00eb6f    program     static C:\Users\Tim\Desktop\PIC-WEB-5-42-UEXT-full\TCPIP\Demo App\GenericTCPClient.c
               __string_2   0x00ebf1    program     static C:\Users\Tim\Desktop\PIC-WEB-5-42-UEXT-full\TCPIP\Demo App\SMTPDemo.c
               __string_2   0x00f57a    program     static C:\Users\Tim\Desktop\PIC-WEB-5-42-UEXT-full\Microchip\TCPIP Stack\HTTP2.c
               __string_2   0x00ed7b    program     static C:\Users\Tim\Desktop\PIC-WEB-5-42-UEXT-full\TCPIP\Demo App\UARTConfig.c
               __string_2   0x00f5f2    program     static C:\Users\Tim\Desktop\PIC-WEB-5-42-UEXT-full\Microchip\TCPIP Stack\SMTP.c
               __string_2   0x00fa96    program     static C:\Users\Tim\Desktop\PIC-WEB-5-42-UEXT-full\TCPIP\Demo App\CustomHTTPApp.c
               __string_2   0x00faab    program     static C:\Users\Tim\Desktop\PIC-WEB-5-42-UEXT-full\TCPIP\Demo App\MainDemo.c
              __string_20   0x00f518    program     static C:\Users\Tim\Desktop\PIC-WEB-5-42-UEXT-full\Microchip\TCPIP Stack\HTTP2.c
              __string_20   0x00fa06    program     static C:\Users\Tim\Desktop\PIC-WEB-5-42-UEXT-full\TCPIP\Demo App\CustomHTTPApp.c
              __string_20   0x00ebf6    program     static C:\Users\Tim\Desktop\PIC-WEB-5-42-UEXT-full\TCPIP\Demo App\UARTConfig.c
              __string_21   0x00fa01    program     static C:\Users\Tim\Desktop\PIC-WEB-5-42-UEXT-full\TCPIP\Demo App\CustomHTTPApp.c
              __string_21   0x00f50e    program     static C:\Users\Tim\Desktop\PIC-WEB-5-42-UEXT-full\Microchip\TCPIP Stack\HTTP2.c
              __string_22   0x00f9fc    program     static C:\Users\Tim\Desktop\PIC-WEB-5-42-UEXT-full\TCPIP\Demo App\CustomHTTPApp.c
              __string_22   0x00f503    program     static C:\Users\Tim\Desktop\PIC-WEB-5-42-UEXT-full\Microchip\TCPIP Stack\HTTP2.c
              __string_23   0x00f9f7    program     static C:\Users\Tim\Desktop\PIC-WEB-5-42-UEXT-full\TCPIP\Demo App\CustomHTTPApp.c
              __string_23   0x00f4ef    program     static C:\Users\Tim\Desktop\PIC-WEB-5-42-UEXT-full\Microchip\TCPIP Stack\HTTP2.c
              __string_24   0x00f9f2    program     static C:\Users\Tim\Desktop\PIC-WEB-5-42-UEXT-full\TCPIP\Demo App\CustomHTTPApp.c
              __string_24   0x00f4e2    program     static C:\Users\Tim\Desktop\PIC-WEB-5-42-UEXT-full\Microchip\TCPIP Stack\HTTP2.c
              __string_25   0x00f4e1    program     static C:\Users\Tim\Desktop\PIC-WEB-5-42-UEXT-full\Microchip\TCPIP Stack\HTTP2.c
              __string_25   0x00f9e6    program     static C:\Users\Tim\Desktop\PIC-WEB-5-42-UEXT-full\TCPIP\Demo App\CustomHTTPApp.c
              __string_26   0x00f9dd    program     static C:\Users\Tim\Desktop\PIC-WEB-5-42-UEXT-full\TCPIP\Demo App\CustomHTTPApp.c
              __string_26   0x00f4bc    program     static C:\Users\Tim\Desktop\PIC-WEB-5-42-UEXT-full\Microchip\TCPIP Stack\HTTP2.c
              __string_27   0x00f9d9    program     static C:\Users\Tim\Desktop\PIC-WEB-5-42-UEXT-full\TCPIP\Demo App\CustomHTTPApp.c
              __string_27   0x00f45e    program     static C:\Users\Tim\Desktop\PIC-WEB-5-42-UEXT-full\Microchip\TCPIP Stack\HTTP2.c
              __string_28   0x00f9ce    program     static C:\Users\Tim\Desktop\PIC-WEB-5-42-UEXT-full\TCPIP\Demo App\CustomHTTPApp.c
              __string_28   0x00f3dd    program     static C:\Users\Tim\Desktop\PIC-WEB-5-42-UEXT-full\Microchip\TCPIP Stack\HTTP2.c
              __string_29   0x00f9bb    program     static C:\Users\Tim\Desktop\PIC-WEB-5-42-UEXT-full\TCPIP\Demo App\CustomHTTPApp.c
              __string_29   0x00f33f    program     static C:\Users\Tim\Desktop\PIC-WEB-5-42-UEXT-full\Microchip\TCPIP Stack\HTTP2.c
               __string_3   0x00f5ef    program     static C:\Users\Tim\Desktop\PIC-WEB-5-42-UEXT-full\Microchip\TCPIP Stack\SMTP.c
               __string_3   0x00eb6a    program     static C:\Users\Tim\Desktop\PIC-WEB-5-42-UEXT-full\TCPIP\Demo App\GenericTCPClient.c
               __string_3   0x00ead0    program     static C:\Users\Tim\Desktop\PIC-WEB-5-42-UEXT-full\TCPIP\Demo App\BerkeleyTCPClientDemo.c
               __string_3   0x00fa90    program     static C:\Users\Tim\Desktop\PIC-WEB-5-42-UEXT-full\TCPIP\Demo App\CustomHTTPApp.c
               __string_3   0x00ed59    program     static C:\Users\Tim\Desktop\PIC-WEB-5-42-UEXT-full\TCPIP\Demo App\UARTConfig.c
               __string_3   0x00ebc6    program     static C:\Users\Tim\Desktop\PIC-WEB-5-42-UEXT-full\TCPIP\Demo App\SMTPDemo.c
               __string_3   0x00faa3    program     static C:\Users\Tim\Desktop\PIC-WEB-5-42-UEXT-full\TCPIP\Demo App\MainDemo.c
               __string_3   0x00f62e    program     static C:\Users\Tim\Desktop\PIC-WEB-5-42-UEXT-full\Microchip\TCPIP Stack\TCPPerformanceTest.c
              __string_30   0x00f2d2    program     static C:\Users\Tim\Desktop\PIC-WEB-5-42-UEXT-full\Microchip\TCPIP Stack\HTTP2.c
              __string_30   0x00f9ab    program     static C:\Users\Tim\Desktop\PIC-WEB-5-42-UEXT-full\TCPIP\Demo App\CustomHTTPApp.c
              __string_31   0x00f9a8    program     static C:\Users\Tim\Desktop\PIC-WEB-5-42-UEXT-full\TCPIP\Demo App\CustomHTTPApp.c
              __string_31   0x00f262    program     static C:\Users\Tim\Desktop\PIC-WEB-5-42-UEXT-full\Microchip\TCPIP Stack\HTTP2.c
              __string_32   0x00f1fc    program     static C:\Users\Tim\Desktop\PIC-WEB-5-42-UEXT-full\Microchip\TCPIP Stack\HTTP2.c
              __string_32   0x00f9a5    program     static C:\Users\Tim\Desktop\PIC-WEB-5-42-UEXT-full\TCPIP\Demo App\CustomHTTPApp.c
              __string_33   0x00f0dc    program     static C:\Users\Tim\Desktop\PIC-WEB-5-42-UEXT-full\Microchip\TCPIP Stack\HTTP2.c
              __string_33   0x00f9a1    program     static C:\Users\Tim\Desktop\PIC-WEB-5-42-UEXT-full\TCPIP\Demo App\CustomHTTPApp.c
              __string_34   0x00f02f    program     static C:\Users\Tim\Desktop\PIC-WEB-5-42-UEXT-full\Microchip\TCPIP Stack\HTTP2.c
              __string_34   0x00f99c    program     static C:\Users\Tim\Desktop\PIC-WEB-5-42-UEXT-full\TCPIP\Demo App\CustomHTTPApp.c
              __string_35   0x00f997    program     static C:\Users\Tim\Desktop\PIC-WEB-5-42-UEXT-full\TCPIP\Demo App\CustomHTTPApp.c
              __string_35   0x00ef5c    program     static C:\Users\Tim\Desktop\PIC-WEB-5-42-UEXT-full\Microchip\TCPIP Stack\HTTP2.c
              __string_36   0x00ef2a    program     static C:\Users\Tim\Desktop\PIC-WEB-5-42-UEXT-full\Microchip\TCPIP Stack\HTTP2.c
              __string_36   0x00f993    program     static C:\Users\Tim\Desktop\PIC-WEB-5-42-UEXT-full\TCPIP\Demo App\CustomHTTPApp.c
              __string_37   0x00eed3    program     static C:\Users\Tim\Desktop\PIC-WEB-5-42-UEXT-full\Microchip\TCPIP Stack\HTTP2.c
              __string_37   0x00f98e    program     static C:\Users\Tim\Desktop\PIC-WEB-5-42-UEXT-full\TCPIP\Demo App\CustomHTTPApp.c
              __string_38   0x00eecb    program     static C:\Users\Tim\Desktop\PIC-WEB-5-42-UEXT-full\Microchip\TCPIP Stack\HTTP2.c
              __string_38   0x00f989    program     static C:\Users\Tim\Desktop\PIC-WEB-5-42-UEXT-full\TCPIP\Demo App\CustomHTTPApp.c
              __string_39   0x00f974    program     static C:\Users\Tim\Desktop\PIC-WEB-5-42-UEXT-full\TCPIP\Demo App\CustomHTTPApp.c
              __string_39   0x00eebc    program     static C:\Users\Tim\Desktop\PIC-WEB-5-42-UEXT-full\Microchip\TCPIP Stack\HTTP2.c
               __string_4   0x00f576    program     static C:\Users\Tim\Desktop\PIC-WEB-5-42-UEXT-full\Microchip\TCPIP Stack\HTTP2.c
               __string_4   0x00ebad    program     static C:\Users\Tim\Desktop\PIC-WEB-5-42-UEXT-full\TCPIP\Demo App\SMTPDemo.c
               __string_4   0x00ed33    program     static C:\Users\Tim\Desktop\PIC-WEB-5-42-UEXT-full\TCPIP\Demo App\UARTConfig.c
               __string_4   0x00f5e3    program     static C:\Users\Tim\Desktop\PIC-WEB-5-42-UEXT-full\Microchip\TCPIP Stack\SMTP.c
               __string_4   0x00fa86    program     static C:\Users\Tim\Desktop\PIC-WEB-5-42-UEXT-full\TCPIP\Demo App\CustomHTTPApp.c
               __string_4   0x00ea14    program     static C:\Users\Tim\Desktop\PIC-WEB-5-42-UEXT-full\TCPIP\Demo App\BerkeleyTCPClientDemo.c
               __string_4   0x00eb58    program     static C:\Users\Tim\Desktop\PIC-WEB-5-42-UEXT-full\TCPIP\Demo App\GenericTCPClient.c
              __string_40   0x00eeac    program     static C:\Users\Tim\Desktop\PIC-WEB-5-42-UEXT-full\Microchip\TCPIP Stack\HTTP2.c
              __string_40   0x00f960    program     static C:\Users\Tim\Desktop\PIC-WEB-5-42-UEXT-full\TCPIP\Demo App\CustomHTTPApp.c
              __string_41   0x00eea8    program     static C:\Users\Tim\Desktop\PIC-WEB-5-42-UEXT-full\Microchip\TCPIP Stack\HTTP2.c
              __string_41   0x00f95d    program     static C:\Users\Tim\Desktop\PIC-WEB-5-42-UEXT-full\TCPIP\Demo App\CustomHTTPApp.c
              __string_42   0x00eea3    program     static C:\Users\Tim\Desktop\PIC-WEB-5-42-UEXT-full\Microchip\TCPIP Stack\HTTP2.c
              __string_42   0x00f958    program     static C:\Users\Tim\Desktop\PIC-WEB-5-42-UEXT-full\TCPIP\Demo App\CustomHTTPApp.c
              __string_43   0x00ee98    program     static C:\Users\Tim\Desktop\PIC-WEB-5-42-UEXT-full\Microchip\TCPIP Stack\HTTP2.c
              __string_43   0x00f933    program     static C:\Users\Tim\Desktop\PIC-WEB-5-42-UEXT-full\TCPIP\Demo App\CustomHTTPApp.c
              __string_44   0x00ee8e    program     static C:\Users\Tim\Desktop\PIC-WEB-5-42-UEXT-full\Microchip\TCPIP Stack\HTTP2.c
              __string_44   0x00f908    program     static C:\Users\Tim\Desktop\PIC-WEB-5-42-UEXT-full\TCPIP\Demo App\CustomHTTPApp.c
              __string_45   0x00ee7b    program     static C:\Users\Tim\Desktop\PIC-WEB-5-42-UEXT-full\Microchip\TCPIP Stack\HTTP2.c
              __string_45   0x00f8c0    program     static C:\Users\Tim\Desktop\PIC-WEB-5-42-UEXT-full\TCPIP\Demo App\CustomHTTPApp.c
              __string_46   0x00f8b9    program     static C:\Users\Tim\Desktop\PIC-WEB-5-42-UEXT-full\TCPIP\Demo App\CustomHTTPApp.c
              __string_46   0x00ee6c    program     static C:\Users\Tim\Desktop\PIC-WEB-5-42-UEXT-full\Microchip\TCPIP Stack\HTTP2.c
              __string_47   0x00ee53    program     static C:\Users\Tim\Desktop\PIC-WEB-5-42-UEXT-full\Microchip\TCPIP Stack\HTTP2.c
              __string_47   0x00f8b4    program     static C:\Users\Tim\Desktop\PIC-WEB-5-42-UEXT-full\TCPIP\Demo App\CustomHTTPApp.c
              __string_48   0x00ee43    program     static C:\Users\Tim\Desktop\PIC-WEB-5-42-UEXT-full\Microchip\TCPIP Stack\HTTP2.c
              __string_48   0x00f8af    program     static C:\Users\Tim\Desktop\PIC-WEB-5-42-UEXT-full\TCPIP\Demo App\CustomHTTPApp.c
              __string_49   0x00f8aa    program     static C:\Users\Tim\Desktop\PIC-WEB-5-42-UEXT-full\TCPIP\Demo App\CustomHTTPApp.c
              __string_49   0x00ee3a    program     static C:\Users\Tim\Desktop\PIC-WEB-5-42-UEXT-full\Microchip\TCPIP Stack\HTTP2.c
               __string_5   0x00eb40    program     static C:\Users\Tim\Desktop\PIC-WEB-5-42-UEXT-full\TCPIP\Demo App\GenericTCPClient.c
               __string_5   0x00fa7c    program     static C:\Users\Tim\Desktop\PIC-WEB-5-42-UEXT-full\TCPIP\Demo App\CustomHTTPApp.c
               __string_5   0x00f572    program     static C:\Users\Tim\Desktop\PIC-WEB-5-42-UEXT-full\Microchip\TCPIP Stack\HTTP2.c
               __string_5   0x00f5df    program     static C:\Users\Tim\Desktop\PIC-WEB-5-42-UEXT-full\Microchip\TCPIP Stack\SMTP.c
               __string_5   0x00ed10    program     static C:\Users\Tim\Desktop\PIC-WEB-5-42-UEXT-full\TCPIP\Demo App\UARTConfig.c
              __string_50   0x00ee31    program     static C:\Users\Tim\Desktop\PIC-WEB-5-42-UEXT-full\Microchip\TCPIP Stack\HTTP2.c
              __string_50   0x00f8a7    program     static C:\Users\Tim\Desktop\PIC-WEB-5-42-UEXT-full\TCPIP\Demo App\CustomHTTPApp.c
              __string_51   0x00f8a3    program     static C:\Users\Tim\Desktop\PIC-WEB-5-42-UEXT-full\TCPIP\Demo App\CustomHTTPApp.c
              __string_51   0x00ee2d    program     static C:\Users\Tim\Desktop\PIC-WEB-5-42-UEXT-full\Microchip\TCPIP Stack\HTTP2.c
              __string_52   0x00f874    program     static C:\Users\Tim\Desktop\PIC-WEB-5-42-UEXT-full\TCPIP\Demo App\CustomHTTPApp.c
              __string_52   0x00ee20    program     static C:\Users\Tim\Desktop\PIC-WEB-5-42-UEXT-full\Microchip\TCPIP Stack\HTTP2.c
              __string_53   0x00f84b    program     static C:\Users\Tim\Desktop\PIC-WEB-5-42-UEXT-full\TCPIP\Demo App\CustomHTTPApp.c
              __string_53   0x00ee1b    program     static C:\Users\Tim\Desktop\PIC-WEB-5-42-UEXT-full\Microchip\TCPIP Stack\HTTP2.c
              __string_54   0x00f7ea    program     static C:\Users\Tim\Desktop\PIC-WEB-5-42-UEXT-full\TCPIP\Demo App\CustomHTTPApp.c
              __string_54   0x00ee10    program     static C:\Users\Tim\Desktop\PIC-WEB-5-42-UEXT-full\Microchip\TCPIP Stack\HTTP2.c
              __string_55   0x00f7da    program     static C:\Users\Tim\Desktop\PIC-WEB-5-42-UEXT-full\TCPIP\Demo App\CustomHTTPApp.c
              __string_56   0x00f7d0    program     static C:\Users\Tim\Desktop\PIC-WEB-5-42-UEXT-full\TCPIP\Demo App\CustomHTTPApp.c
              __string_57   0x00f7c9    program     static C:\Users\Tim\Desktop\PIC-WEB-5-42-UEXT-full\TCPIP\Demo App\CustomHTTPApp.c
              __string_58   0x00f7c3    program     static C:\Users\Tim\Desktop\PIC-WEB-5-42-UEXT-full\TCPIP\Demo App\CustomHTTPApp.c
              __string_59   0x00f7b4    program     static C:\Users\Tim\Desktop\PIC-WEB-5-42-UEXT-full\TCPIP\Demo App\CustomHTTPApp.c
               __string_6   0x00ece7    program     static C:\Users\Tim\Desktop\PIC-WEB-5-42-UEXT-full\TCPIP\Demo App\UARTConfig.c
               __string_6   0x00f5d5    program     static C:\Users\Tim\Desktop\PIC-WEB-5-42-UEXT-full\Microchip\TCPIP Stack\SMTP.c
               __string_6   0x00f56d    program     static C:\Users\Tim\Desktop\PIC-WEB-5-42-UEXT-full\Microchip\TCPIP Stack\HTTP2.c
               __string_6   0x00fa76    program     static C:\Users\Tim\Desktop\PIC-WEB-5-42-UEXT-full\TCPIP\Demo App\CustomHTTPApp.c
              __string_60   0x00f7a3    program     static C:\Users\Tim\Desktop\PIC-WEB-5-42-UEXT-full\TCPIP\Demo App\CustomHTTPApp.c
              __string_61   0x00f78e    program     static C:\Users\Tim\Desktop\PIC-WEB-5-42-UEXT-full\TCPIP\Demo App\CustomHTTPApp.c
              __string_62   0x00f788    program     static C:\Users\Tim\Desktop\PIC-WEB-5-42-UEXT-full\TCPIP\Demo App\CustomHTTPApp.c
              __string_65   0x00f77f    program     static C:\Users\Tim\Desktop\PIC-WEB-5-42-UEXT-full\TCPIP\Demo App\CustomHTTPApp.c
              __string_66   0x00f770    program     static C:\Users\Tim\Desktop\PIC-WEB-5-42-UEXT-full\TCPIP\Demo App\CustomHTTPApp.c
              __string_67   0x00f76b    program     static C:\Users\Tim\Desktop\PIC-WEB-5-42-UEXT-full\TCPIP\Demo App\CustomHTTPApp.c
              __string_68   0x00f763    program     static C:\Users\Tim\Desktop\PIC-WEB-5-42-UEXT-full\TCPIP\Demo App\CustomHTTPApp.c
              __string_69   0x00f75b    program     static C:\Users\Tim\Desktop\PIC-WEB-5-42-UEXT-full\TCPIP\Demo App\CustomHTTPApp.c
               __string_7   0x00fa68    program     static C:\Users\Tim\Desktop\PIC-WEB-5-42-UEXT-full\TCPIP\Demo App\CustomHTTPApp.c
               __string_7   0x00ecbc    program     static C:\Users\Tim\Desktop\PIC-WEB-5-42-UEXT-full\TCPIP\Demo App\UARTConfig.c
               __string_7   0x00f5ce    program     static C:\Users\Tim\Desktop\PIC-WEB-5-42-UEXT-full\Microchip\TCPIP Stack\SMTP.c
               __string_7   0x00f569    program     static C:\Users\Tim\Desktop\PIC-WEB-5-42-UEXT-full\Microchip\TCPIP Stack\HTTP2.c
              __string_70   0x00f746    program     static C:\Users\Tim\Desktop\PIC-WEB-5-42-UEXT-full\TCPIP\Demo App\CustomHTTPApp.c
              __string_71   0x00f720    program     static C:\Users\Tim\Desktop\PIC-WEB-5-42-UEXT-full\TCPIP\Demo App\CustomHTTPApp.c
              __string_72   0x00f718    program     static C:\Users\Tim\Desktop\PIC-WEB-5-42-UEXT-full\TCPIP\Demo App\CustomHTTPApp.c
              __string_73   0x00f713    program     static C:\Users\Tim\Desktop\PIC-WEB-5-42-UEXT-full\TCPIP\Demo App\CustomHTTPApp.c
              __string_74   0x00f6ec    program     static C:\Users\Tim\Desktop\PIC-WEB-5-42-UEXT-full\TCPIP\Demo App\CustomHTTPApp.c
              __string_75   0x00f6e7    program     static C:\Users\Tim\Desktop\PIC-WEB-5-42-UEXT-full\TCPIP\Demo App\CustomHTTPApp.c
              __string_76   0x00f6e1    program     static C:\Users\Tim\Desktop\PIC-WEB-5-42-UEXT-full\TCPIP\Demo App\CustomHTTPApp.c
               __string_8   0x00f565    program     static C:\Users\Tim\Desktop\PIC-WEB-5-42-UEXT-full\Microchip\TCPIP Stack\HTTP2.c
               __string_8   0x00f6ce    program     static C:\Users\Tim\Desktop\PIC-WEB-5-42-UEXT-full\Microchip\TCPIP Stack\Telnet.c
               __string_8   0x00ecb5    program     static C:\Users\Tim\Desktop\PIC-WEB-5-42-UEXT-full\TCPIP\Demo App\UARTConfig.c
               __string_8   0x00fa63    program     static C:\Users\Tim\Desktop\PIC-WEB-5-42-UEXT-full\TCPIP\Demo App\CustomHTTPApp.c
               __string_8   0x00f5c7    program     static C:\Users\Tim\Desktop\PIC-WEB-5-42-UEXT-full\Microchip\TCPIP Stack\SMTP.c
               __string_9   0x00f561    program     static C:\Users\Tim\Desktop\PIC-WEB-5-42-UEXT-full\Microchip\TCPIP Stack\HTTP2.c
               __string_9   0x00fa5a    program     static C:\Users\Tim\Desktop\PIC-WEB-5-42-UEXT-full\TCPIP\Demo App\CustomHTTPApp.c
               __string_9   0x00f6c8    program     static C:\Users\Tim\Desktop\PIC-WEB-5-42-UEXT-full\Microchip\TCPIP Stack\Telnet.c
               __string_9   0x00f5c0    program     static C:\Users\Tim\Desktop\PIC-WEB-5-42-UEXT-full\Microchip\TCPIP Stack\SMTP.c
               __string_9   0x00ecb1    program     static C:\Users\Tim\Desktop\PIC-WEB-5-42-UEXT-full\TCPIP\Demo App\UARTConfig.c
               __tmplbl_0   0x012622    program     static                          
               __tmplbl_0   0x01d4f0    program     static                          
               __tmplbl_0   0x015d44    program     static                          
               __tmplbl_1   0x015dba    program     static                          
              __tmplbl_10   0x0146d0    program     static                          
              __tmplbl_10   0x016708    program     static                          
             __tmplbl_100   0x00a84c    program     static                          
              __tmplbl_11   0x0146d0    program     static                          
              __tmplbl_11   0x016706    program     static                          
              __tmplbl_12   0x01679a    program     static                          
              __tmplbl_13   0x01678c    program     static                          
             __tmplbl_137   0x006102    program     static                          
             __tmplbl_138   0x00608a    program     static                          
             __tmplbl_139   0x006020    program     static                          
              __tmplbl_14   0x016792    program     static                          
              __tmplbl_14   0x013c3e    program     static                          
             __tmplbl_140   0x005dc4    program     static                          
             __tmplbl_141   0x0059b0    program     static                          
             __tmplbl_142   0x005948    program     static                          
             __tmplbl_143   0x00571a    program     static                          
             __tmplbl_144   0x0056f4    program     static                          
             __tmplbl_145   0x00567e    program     static                          
             __tmplbl_147   0x00615c    program     static                          
             __tmplbl_148   0x00615c    program     static                          
             __tmplbl_149   0x00615c    program     static                          
             __tmplbl_150   0x00579a    program     static                          
             __tmplbl_152   0x005968    program     static                          
             __tmplbl_155   0x00615c    program     static                          
             __tmplbl_157   0x004008    program     static                          
             __tmplbl_157   0x00615c    program     static                          
             __tmplbl_158   0x00615c    program     static                          
             __tmplbl_165   0x004008    program     static                          
             __tmplbl_165   0x00615c    program     static                          
             __tmplbl_166   0x00615c    program     static                          
             __tmplbl_170   0x004b6c    program     static                          
               __tmplbl_2   0x015e1c    program     static                          
               __tmplbl_2   0x0146f8    program     static                          
               __tmplbl_2   0x007a24    program     static                          
               __tmplbl_3   0x015e82    program     static                          
               __tmplbl_3   0x007a20    program     static                          
               __tmplbl_4   0x007a66    program     static                          
              __tmplbl_42   0x01237a    program     static                          
              __tmplbl_43   0x0121c2    program     static                          
              __tmplbl_44   0x0121a8    program     static                          
               __tmplbl_5   0x007a62    program     static                          
               __tmplbl_5   0x01673e    program     static                          
              __tmplbl_52   0x010a98    program     static                          
               __tmplbl_6   0x007aa8    program     static                          
               __tmplbl_6   0x016734    program     static                          
               __tmplbl_6   0x0146d0    program     static                          
               __tmplbl_7   0x007aa4    program     static                          
               __tmplbl_7   0x0146d0    program     static                          
               __tmplbl_7   0x016726    program     static                          
               __tmplbl_8   0x0146d0    program     static                          
               __tmplbl_8   0x01671c    program     static                          
               __tmplbl_8   0x007aea    program     static                          
              __tmplbl_84   0x00aa22    program     static                          
              __tmplbl_85   0x0118fa    program     static                          
              __tmplbl_88   0x00aa32    program     static                          
               __tmplbl_9   0x016712    program     static                          
               __tmplbl_9   0x0146d0    program     static                          
               __tmplbl_9   0x007ae6    program     static                          
              __tmplbl_91   0x00aa32    program     static                          
              __tmplbl_92   0x00aa32    program     static                          
              __tmplbl_97   0x00a9cc    program     static                          
              __tmplbl_98   0x00a9be    program     static                          
              __tmplbl_99   0x00a894    program     static                          
            __zero_memory   0x01e2e6    program     extern E:\3.46\pic18-lt\cxx-framework\src\traditional\proc\p18f67j60.asm
                _do_cinit   0x01def4    program     extern E:\3.46\pic18-lt\cxx-framework\src\traditional\startup\c018i.c
                   _entry   0x000000    program     extern E:\3.46\pic18-lt\cxx-framework\src\traditional\startup\c018i.c
                   _false   0x01e208    program     static                          
                   _fchop   0x01bafc    program     extern E:\3.46\pic18-lt\cxx-framework\src\traditional\stdclib\fchop.c
                 _startup   0x01e356    program     extern E:\3.46\pic18-lt\cxx-framework\src\traditional\startup\c018i.c
              _usart_putc   0x01e372    program     extern E:\3.46\pic18-lt\cxx-framework\src\pmc_common\USART\_usartpc.asm
               _user_putc   0x01e3e2    program     extern E:\3.46\pic18-lt\cxx-framework\src\traditional\stdclib\_user_putc.c
                   accept   0x00c6f8    program     extern C:\Users\Tim\Desktop\PIC-WEB-5-42-UEXT-full\Microchip\TCPIP Stack\BerkeleyAPI.c
                     atoi   0x0196a4    program     extern E:\3.46\pic18-lt\cxx-framework\src\traditional\stdclib\atoi.asm
                     atol   0x01978e    program     extern E:\3.46\pic18-lt\cxx-framework\src\traditional\stdclib\atol.asm
                     bind   0x00c384    program     extern C:\Users\Tim\Desktop\PIC-WEB-5-42-UEXT-full\Microchip\TCPIP Stack\BerkeleyAPI.c
             btohexa_high   0x012d0c    program     extern C:\Users\Tim\Desktop\PIC-WEB-5-42-UEXT-full\Microchip\TCPIP Stack\Helpers.c
              btohexa_low   0x012d28    program     extern C:\Users\Tim\Desktop\PIC-WEB-5-42-UEXT-full\Microchip\TCPIP Stack\Helpers.c
              closesocket   0x00d328    program     extern C:\Users\Tim\Desktop\PIC-WEB-5-42-UEXT-full\Microchip\TCPIP Stack\BerkeleyAPI.c
                compare_l   0x01e308    program     static E:\3.46\pic18-lt\cxx-framework\src\traditional\proc\p18f67j60.asm
                  connect   0x00c9ae    program     extern C:\Users\Tim\Desktop\PIC-WEB-5-42-UEXT-full\Microchip\TCPIP Stack\BerkeleyAPI.c
         convertToDegrees   0x01627a    program     extern C:\Users\Tim\Desktop\PIC-WEB-5-42-UEXT-full\TCPIP\Demo App\MainDemo.c
                copy_loop   0x01df66    program     static                          
            copy_one_byte   0x01df6c    program     static                          
                     done   0x01df90    program     static                          
             done_copying   0x01df7a    program     static                          
                  endloop   0x01e2e0    program     static                          
                      exp   0x017c5a    program     extern E:\3.46\pic18-lt\cxx-framework\src\traditional\stdclib\exp.c
                     fabs   0x01e104    program     extern E:\3.46\pic18-lt\cxx-framework\src\traditional\stdclib\fabs.c
fixTempOffsetUsingPotmeter   0x01642e    program     extern C:\Users\Tim\Desktop\PIC-WEB-5-42-UEXT-full\TCPIP\Demo App\MainDemo.c
                    frexp   0x01d560    program     extern E:\3.46\pic18-lt\cxx-framework\src\traditional\stdclib\frexp.c
getIndexByMacaddr_DhcpPool   0x00bcc2    program     static C:\Users\Tim\Desktop\PIC-WEB-5-42-UEXT-full\Microchip\TCPIP Stack\DHCPs.c
              gethostname   0x00d27e    program     extern C:\Users\Tim\Desktop\PIC-WEB-5-42-UEXT-full\Microchip\TCPIP Stack\BerkeleyAPI.c
                 getsSPI1   0x01dd9c    program     extern C:\Users\Tim\Desktop\PIC-WEB-5-42-UEXT-full\TCPIP\Demo App\Olimex_Demo_Files\Custom_SPI_Low.c
                getsUSART   0x01d93c    program     extern C:\Users\Tim\Desktop\PIC-WEB-5-42-UEXT-full\Microchip\TCPIP Stack\UART.c
                  hexatob   0x012cd2    program     extern C:\Users\Tim\Desktop\PIC-WEB-5-42-UEXT-full\Microchip\TCPIP Stack\Helpers.c
         httpContentTypes   0x01e03d    program     static C:\Users\Tim\Desktop\PIC-WEB-5-42-UEXT-full\Microchip\TCPIP Stack\HTTP2.c
       httpFileExtensions   0x01e019    program     static C:\Users\Tim\Desktop\PIC-WEB-5-42-UEXT-full\Microchip\TCPIP Stack\HTTP2.c
           isIpAddrInPool   0x00bd40    program     static C:\Users\Tim\Desktop\PIC-WEB-5-42-UEXT-full\Microchip\TCPIP Stack\DHCPs.c
      isMacAddr_Effective   0x00be64    program     static C:\Users\Tim\Desktop\PIC-WEB-5-42-UEXT-full\Microchip\TCPIP Stack\DHCPs.c
                  isdigit   0x01e312    program     extern E:\3.46\pic18-lt\cxx-framework\src\traditional\stdclib\isdigit.asm
                   itoBCD   0x0199c4    program     extern E:\3.46\pic18-lt\cxx-framework\src\traditional\stdclib\itobcd.asm
                     itoa   0x0198e4    program     extern E:\3.46\pic18-lt\cxx-framework\src\traditional\stdclib\itoa.asm
                 jANotInf   0x016ee2    program     static E:\3.46\pic18-lt\cxx-framework\src\traditional\math\divFP.asm
                 jANotInf   0x016f88    program     static E:\3.46\pic18-lt\cxx-framework\src\traditional\math\mulFP.asm
                 jANotInf   0x016dc0    program     static E:\3.46\pic18-lt\cxx-framework\src\traditional\math\addFP.asm
                 jANotNeg   0x016e54    program     static E:\3.46\pic18-lt\cxx-framework\src\traditional\math\addFP.asm
                jANotZero   0x016ef6    program     static E:\3.46\pic18-lt\cxx-framework\src\traditional\math\divFP.asm
              jAandWsetup   0x016e24    program     static E:\3.46\pic18-lt\cxx-framework\src\traditional\math\addFP.asm
                  jAisNeg   0x017418    program     static E:\3.46\pic18-lt\cxx-framework\src\traditional\math\compFP.asm
                 jAltBexp   0x016e12    program     static E:\3.46\pic18-lt\cxx-framework\src\traditional\math\addFP.asm
                jBANotInf   0x016db6    program     static E:\3.46\pic18-lt\cxx-framework\src\traditional\math\addFP.asm
                 jBNotInf   0x016dce    program     static E:\3.46\pic18-lt\cxx-framework\src\traditional\math\addFP.asm
              jBothFinite   0x016f96    program     static E:\3.46\pic18-lt\cxx-framework\src\traditional\math\mulFP.asm
             jBothNotZero   0x0173ba    program     static E:\3.46\pic18-lt\cxx-framework\src\traditional\math\compFP.asm
             jBothNotZero   0x016fa2    program     static E:\3.46\pic18-lt\cxx-framework\src\traditional\math\mulFP.asm
            jDifOrPosSign   0x016de2    program     static E:\3.46\pic18-lt\cxx-framework\src\traditional\math\addFP.asm
                     jDo1   0x01996a    program     static E:\3.46\pic18-lt\cxx-framework\src\traditional\stdclib\itoa.asm
                     jDo1   0x019ac8    program     static E:\3.46\pic18-lt\cxx-framework\src\traditional\stdclib\ultoa.asm
                    jDo10   0x019aa4    program     static E:\3.46\pic18-lt\cxx-framework\src\traditional\stdclib\ultoa.asm
                     jDo2   0x019966    program     static E:\3.46\pic18-lt\cxx-framework\src\traditional\stdclib\itoa.asm
                     jDo2   0x019ac4    program     static E:\3.46\pic18-lt\cxx-framework\src\traditional\stdclib\ultoa.asm
                     jDo3   0x019962    program     static E:\3.46\pic18-lt\cxx-framework\src\traditional\stdclib\itoa.asm
                     jDo3   0x019ac0    program     static E:\3.46\pic18-lt\cxx-framework\src\traditional\stdclib\ultoa.asm
                     jDo4   0x019abc    program     static E:\3.46\pic18-lt\cxx-framework\src\traditional\stdclib\ultoa.asm
                     jDo4   0x01995e    program     static E:\3.46\pic18-lt\cxx-framework\src\traditional\stdclib\itoa.asm
                     jDo5   0x019ab8    program     static E:\3.46\pic18-lt\cxx-framework\src\traditional\stdclib\ultoa.asm
                     jDo5   0x01995a    program     static E:\3.46\pic18-lt\cxx-framework\src\traditional\stdclib\itoa.asm
                     jDo6   0x019ab4    program     static E:\3.46\pic18-lt\cxx-framework\src\traditional\stdclib\ultoa.asm
                     jDo7   0x019ab0    program     static E:\3.46\pic18-lt\cxx-framework\src\traditional\stdclib\ultoa.asm
                     jDo8   0x019aac    program     static E:\3.46\pic18-lt\cxx-framework\src\traditional\stdclib\ultoa.asm
                     jDo9   0x019aa8    program     static E:\3.46\pic18-lt\cxx-framework\src\traditional\stdclib\ultoa.asm
                      jEQ   0x0173d6    program     static E:\3.46\pic18-lt\cxx-framework\src\traditional\math\compFP.asm
                     jEnd   0x01b28e    program     static E:\3.46\pic18-lt\cxx-framework\src\traditional\stdclib\memset.asm
                     jEnd   0x0198ac    program     static E:\3.46\pic18-lt\cxx-framework\src\traditional\stdclib\atol.asm
                     jEnd   0x019b7c    program     static E:\3.46\pic18-lt\cxx-framework\src\traditional\stdclib\ltobcd.asm
                     jEnd   0x01b204    program     static E:\3.46\pic18-lt\cxx-framework\src\traditional\stdclib\memcpy.asm
                     jEnd   0x01b3fe    program     static E:\3.46\pic18-lt\cxx-framework\src\traditional\stdclib\slenpgm.asm
                     jEnd   0x01b3c6    program     static E:\3.46\pic18-lt\cxx-framework\src\traditional\stdclib\strlen.asm
                     jEnd   0x01b3aa    program     static E:\3.46\pic18-lt\cxx-framework\src\traditional\stdclib\scpyp2r.asm
                     jEnd   0x01b45c    program     static E:\3.46\pic18-lt\cxx-framework\src\traditional\stdclib\strncpy.asm
                     jEnd   0x019762    program     static E:\3.46\pic18-lt\cxx-framework\src\traditional\stdclib\atoi.asm
                     jEnd   0x01b378    program     static E:\3.46\pic18-lt\cxx-framework\src\traditional\stdclib\scmpp2r.asm
                     jEnd   0x01b338    program     static E:\3.46\pic18-lt\cxx-framework\src\traditional\stdclib\strcmp.asm
                     jEnd   0x01b2fa    program     static E:\3.46\pic18-lt\cxx-framework\src\traditional\stdclib\schrpgm.asm
                     jEnd   0x01b2b6    program     static E:\3.46\pic18-lt\cxx-framework\src\traditional\stdclib\strchr.asm
                     jEnd   0x01b4dc    program     static E:\3.46\pic18-lt\cxx-framework\src\traditional\stdclib\strupr.asm
                     jEnd   0x019a02    program     static E:\3.46\pic18-lt\cxx-framework\src\traditional\stdclib\itobcd.asm
                     jEnd   0x01b16c    program     static E:\3.46\pic18-lt\cxx-framework\src\traditional\stdclib\memcmp.asm
                     jEnd   0x01b1be    program     static E:\3.46\pic18-lt\cxx-framework\src\traditional\stdclib\mcmpp2r.asm
                     jEnd   0x01b25a    program     static E:\3.46\pic18-lt\cxx-framework\src\traditional\stdclib\mcpyp2r.asm
                 jEndLoop   0x01987c    program     static E:\3.46\pic18-lt\cxx-framework\src\traditional\stdclib\atol.asm
                 jEndLoop   0x01974a    program     static E:\3.46\pic18-lt\cxx-framework\src\traditional\stdclib\atoi.asm
                    jExch   0x0173e2    program     static E:\3.46\pic18-lt\cxx-framework\src\traditional\math\compFP.asm
                    jExit   0x0174b2    program     static E:\3.46\pic18-lt\cxx-framework\src\traditional\math\castFP32.asm
                    jExit   0x01727c    program     static E:\3.46\pic18-lt\cxx-framework\src\traditional\math\castFP16.asm
                   jExpEQ   0x017428    program     static E:\3.46\pic18-lt\cxx-framework\src\traditional\math\compFP.asm
                   jFinal   0x01740c    program     static E:\3.46\pic18-lt\cxx-framework\src\traditional\math\compFP.asm
               jFinalSign   0x016ebc    program     static E:\3.46\pic18-lt\cxx-framework\src\traditional\math\addFP.asm
                jHaveZero   0x016f9e    program     static E:\3.46\pic18-lt\cxx-framework\src\traditional\math\mulFP.asm
                jI2F08Beg   0x016d58    program     static E:\3.46\pic18-lt\cxx-framework\src\traditional\math\cast08FP.asm
                jI2F16Beg   0x016d80    program     static E:\3.46\pic18-lt\cxx-framework\src\traditional\math\cast16FP.asm
               jInnerLoop   0x01b494    program     static E:\3.46\pic18-lt\cxx-framework\src\traditional\stdclib\sstrrp.asm
                    jLoop   0x01b1a0    program     static E:\3.46\pic18-lt\cxx-framework\src\traditional\stdclib\mcmpp2r.asm
                    jLoop   0x01b32e    program     static E:\3.46\pic18-lt\cxx-framework\src\traditional\stdclib\strcmp.asm
                    jLoop   0x01b36c    program     static E:\3.46\pic18-lt\cxx-framework\src\traditional\stdclib\scmpp2r.asm
                    jLoop   0x0196fc    program     static E:\3.46\pic18-lt\cxx-framework\src\traditional\stdclib\atoi.asm
                    jLoop   0x01b270    program     static E:\3.46\pic18-lt\cxx-framework\src\traditional\stdclib\memset.asm
                    jLoop   0x0199dc    program     static E:\3.46\pic18-lt\cxx-framework\src\traditional\stdclib\itobcd.asm
                    jLoop   0x01b1e8    program     static E:\3.46\pic18-lt\cxx-framework\src\traditional\stdclib\memcpy.asm
                    jLoop   0x01b3a0    program     static E:\3.46\pic18-lt\cxx-framework\src\traditional\stdclib\scpyp2r.asm
                    jLoop   0x01b150    program     static E:\3.46\pic18-lt\cxx-framework\src\traditional\stdclib\memcmp.asm
                    jLoop   0x01b23c    program     static E:\3.46\pic18-lt\cxx-framework\src\traditional\stdclib\mcpyp2r.asm
                    jLoop   0x01725c    program     static E:\3.46\pic18-lt\cxx-framework\src\traditional\math\castFP16.asm
                    jLoop   0x01b3e6    program     static E:\3.46\pic18-lt\cxx-framework\src\traditional\stdclib\slenpgm.asm
                    jLoop   0x016f1e    program     static E:\3.46\pic18-lt\cxx-framework\src\traditional\math\divFP.asm
                    jLoop   0x01b4c8    program     static E:\3.46\pic18-lt\cxx-framework\src\traditional\stdclib\strupr.asm
                    jLoop   0x01b3bc    program     static E:\3.46\pic18-lt\cxx-framework\src\traditional\stdclib\strlen.asm
                    jLoop   0x017486    program     static E:\3.46\pic18-lt\cxx-framework\src\traditional\math\castFP32.asm
                    jLoop   0x01b43a    program     static E:\3.46\pic18-lt\cxx-framework\src\traditional\stdclib\strncpy.asm
                    jLoop   0x01b29c    program     static E:\3.46\pic18-lt\cxx-framework\src\traditional\stdclib\strchr.asm
                    jLoop   0x0197ee    program     static E:\3.46\pic18-lt\cxx-framework\src\traditional\stdclib\atol.asm
                    jLoop   0x019b3e    program     static E:\3.46\pic18-lt\cxx-framework\src\traditional\stdclib\ltobcd.asm
                    jLoop   0x01b2ca    program     static E:\3.46\pic18-lt\cxx-framework\src\traditional\stdclib\schrpgm.asm
                jLoopExit   0x01726c    program     static E:\3.46\pic18-lt\cxx-framework\src\traditional\math\castFP16.asm
                jLoopExit   0x01749a    program     static E:\3.46\pic18-lt\cxx-framework\src\traditional\math\castFP32.asm
                   jMatch   0x01e332    program     static E:\3.46\pic18-lt\cxx-framework\src\traditional\stdclib\isdigit.asm
                   jMatch   0x01b2e8    program     static E:\3.46\pic18-lt\cxx-framework\src\traditional\stdclib\schrpgm.asm
                   jMatch   0x01b2ae    program     static E:\3.46\pic18-lt\cxx-framework\src\traditional\stdclib\strchr.asm
                     jMax   0x017456    program     static E:\3.46\pic18-lt\cxx-framework\src\traditional\math\castFP32.asm
                     jMax   0x017230    program     static E:\3.46\pic18-lt\cxx-framework\src\traditional\math\castFP16.asm
                  jMaxNeg   0x017468    program     static E:\3.46\pic18-lt\cxx-framework\src\traditional\math\castFP32.asm
                  jMaxNeg   0x01723e    program     static E:\3.46\pic18-lt\cxx-framework\src\traditional\math\castFP16.asm
                  jMaxPos   0x01745a    program     static E:\3.46\pic18-lt\cxx-framework\src\traditional\math\castFP32.asm
                  jMaxPos   0x017234    program     static E:\3.46\pic18-lt\cxx-framework\src\traditional\math\castFP16.asm
                      jNE   0x0173da    program     static E:\3.46\pic18-lt\cxx-framework\src\traditional\math\compFP.asm
                    jNext   0x016f44    program     static E:\3.46\pic18-lt\cxx-framework\src\traditional\math\divFP.asm
                jNoAdjust   0x016f42    program     static E:\3.46\pic18-lt\cxx-framework\src\traditional\math\divFP.asm
                  jNoExch   0x017402    program     static E:\3.46\pic18-lt\cxx-framework\src\traditional\math\compFP.asm
                 jNoMatch   0x01b4a4    program     static E:\3.46\pic18-lt\cxx-framework\src\traditional\stdclib\sstrrp.asm
                 jNoMatch   0x01e334    program     static E:\3.46\pic18-lt\cxx-framework\src\traditional\stdclib\isdigit.asm
             jNotBothZero   0x016de6    program     static E:\3.46\pic18-lt\cxx-framework\src\traditional\math\addFP.asm
                  jNotInf   0x017474    program     static E:\3.46\pic18-lt\cxx-framework\src\traditional\math\castFP32.asm
                  jNotInf   0x01724c    program     static E:\3.46\pic18-lt\cxx-framework\src\traditional\math\castFP16.asm
                    jNull   0x01b4ae    program     static E:\3.46\pic18-lt\cxx-framework\src\traditional\stdclib\sstrrp.asm
               jOuterLoop   0x01b47a    program     static E:\3.46\pic18-lt\cxx-framework\src\traditional\stdclib\sstrrp.asm
                  jPkLoop   0x0172c4    program     static E:\3.46\pic18-lt\cxx-framework\src\traditional\math\packFP.asm
             jPkRoundDone   0x01730e    program     static E:\3.46\pic18-lt\cxx-framework\src\traditional\math\packFP.asm
               jPkRoundIt   0x0172f6    program     static E:\3.46\pic18-lt\cxx-framework\src\traditional\math\packFP.asm
             jPkShiftDone   0x0172e0    program     static E:\3.46\pic18-lt\cxx-framework\src\traditional\math\packFP.asm
           jReturnPosInf0   0x01729a    program     static E:\3.46\pic18-lt\cxx-framework\src\traditional\math\packFP.asm
                  jRotate   0x017434    program     static E:\3.46\pic18-lt\cxx-framework\src\traditional\math\compFP.asm
                   jShift   0x01741e    program     static E:\3.46\pic18-lt\cxx-framework\src\traditional\math\compFP.asm
               jShiftDone   0x016e7c    program     static E:\3.46\pic18-lt\cxx-framework\src\traditional\math\addFP.asm
               jShiftLoop   0x016e6e    program     static E:\3.46\pic18-lt\cxx-framework\src\traditional\math\addFP.asm
                jSignDone   0x016eac    program     static E:\3.46\pic18-lt\cxx-framework\src\traditional\math\addFP.asm
              jSignedZero   0x016eec    program     static E:\3.46\pic18-lt\cxx-framework\src\traditional\math\divFP.asm
                 jSignsEQ   0x0173be    program     static E:\3.46\pic18-lt\cxx-framework\src\traditional\math\compFP.asm
                    jSkip   0x01b4d8    program     static E:\3.46\pic18-lt\cxx-framework\src\traditional\stdclib\strupr.asm
                  jSkipWS   0x0197c4    program     static E:\3.46\pic18-lt\cxx-framework\src\traditional\stdclib\atol.asm
                  jSkipWS   0x0196d2    program     static E:\3.46\pic18-lt\cxx-framework\src\traditional\stdclib\atoi.asm
                 jSkipWS1   0x0196e4    program     static E:\3.46\pic18-lt\cxx-framework\src\traditional\stdclib\atoi.asm
                 jSkipWS1   0x0197d6    program     static E:\3.46\pic18-lt\cxx-framework\src\traditional\stdclib\atol.asm
                jStrMatch   0x01b4b2    program     static E:\3.46\pic18-lt\cxx-framework\src\traditional\stdclib\sstrrp.asm
                jTstLowZ1   0x019b0c    program     static E:\3.46\pic18-lt\cxx-framework\src\traditional\stdclib\ultoa.asm
                jTstLowZ1   0x0199ae    program     static E:\3.46\pic18-lt\cxx-framework\src\traditional\stdclib\itoa.asm
                 jTstSign   0x0196e8    program     static E:\3.46\pic18-lt\cxx-framework\src\traditional\stdclib\atoi.asm
                 jTstSign   0x0197da    program     static E:\3.46\pic18-lt\cxx-framework\src\traditional\stdclib\atol.asm
                jTstSign1   0x0196f4    program     static E:\3.46\pic18-lt\cxx-framework\src\traditional\stdclib\atoi.asm
                jTstSign1   0x0197e6    program     static E:\3.46\pic18-lt\cxx-framework\src\traditional\stdclib\atol.asm
                jTstSign1   0x019910    program     static E:\3.46\pic18-lt\cxx-framework\src\traditional\stdclib\itoa.asm
                jTstSign2   0x0197ec    program     static E:\3.46\pic18-lt\cxx-framework\src\traditional\stdclib\atol.asm
                jTstSign2   0x0196fa    program     static E:\3.46\pic18-lt\cxx-framework\src\traditional\stdclib\atoi.asm
                jTstSign3   0x0197ee    program     static E:\3.46\pic18-lt\cxx-framework\src\traditional\stdclib\atol.asm
                jTstSign3   0x0196fc    program     static E:\3.46\pic18-lt\cxx-framework\src\traditional\stdclib\atoi.asm
                  jUnpkA1   0x017338    program     static E:\3.46\pic18-lt\cxx-framework\src\traditional\math\UnpackFP.asm
                  jUnpkA2   0x017350    program     static E:\3.46\pic18-lt\cxx-framework\src\traditional\math\UnpackFP.asm
                 jUnpkANZ   0x017346    program     static E:\3.46\pic18-lt\cxx-framework\src\traditional\math\UnpackFP.asm
                  jUnpkB1   0x017368    program     static E:\3.46\pic18-lt\cxx-framework\src\traditional\math\UnpackFP.asm
                  jUnpkB2   0x017380    program     static E:\3.46\pic18-lt\cxx-framework\src\traditional\math\UnpackFP.asm
                 jUnpkBNZ   0x017376    program     static E:\3.46\pic18-lt\cxx-framework\src\traditional\math\UnpackFP.asm
                 jUnpkNaN   0x01735a    program     static E:\3.46\pic18-lt\cxx-framework\src\traditional\math\UnpackFP.asm
                 jWNotNeg   0x016e68    program     static E:\3.46\pic18-lt\cxx-framework\src\traditional\math\addFP.asm
                   jWr123   0x017460    program     static E:\3.46\pic18-lt\cxx-framework\src\traditional\math\castFP32.asm
                  jWrZ123   0x017470    program     static E:\3.46\pic18-lt\cxx-framework\src\traditional\math\castFP32.asm
                    jZero   0x01746e    program     static E:\3.46\pic18-lt\cxx-framework\src\traditional\math\castFP32.asm
                    jZero   0x017246    program     static E:\3.46\pic18-lt\cxx-framework\src\traditional\math\castFP16.asm
               jZero1and2   0x01729e    program     static E:\3.46\pic18-lt\cxx-framework\src\traditional\math\packFP.asm
                    ldexp   0x01d09a    program     extern E:\3.46\pic18-lt\cxx-framework\src\traditional\stdclib\ldexp.c
          leftRotateDWORD   0x012ece    program     extern C:\Users\Tim\Desktop\PIC-WEB-5-42-UEXT-full\Microchip\TCPIP Stack\Helpers.c
                   listen   0x00c496    program     extern C:\Users\Tim\Desktop\PIC-WEB-5-42-UEXT-full\Microchip\TCPIP Stack\BerkeleyAPI.c
                      log   0x0191aa    program     extern E:\3.46\pic18-lt\cxx-framework\src\traditional\stdclib\log.c
                     loop   0x01e382    program     static E:\3.46\pic18-lt\cxx-framework\src\pmc_common\USART\_usartpc.asm
                     loop   0x01e366    program     static                          
                     loop   0x01e1d4    program     static                          
                     loop   0x01e2c4    program     static                          
                   loop_h   0x01e300    program     static E:\3.46\pic18-lt\cxx-framework\src\traditional\proc\p18f67j60.asm
                   loop_l   0x01e30a    program     static E:\3.46\pic18-lt\cxx-framework\src\traditional\proc\p18f67j60.asm
                   ltoBCD   0x019b22    program     extern E:\3.46\pic18-lt\cxx-framework\src\traditional\stdclib\ltobcd.asm
                     main   0x015ce4    program     extern C:\Users\Tim\Desktop\PIC-WEB-5-42-UEXT-full\TCPIP\Demo App\MainDemo.c
                   memcmp   0x01b130    program     extern E:\3.46\pic18-lt\cxx-framework\src\traditional\stdclib\memcmp.asm
            memcmppgm2ram   0x01b182    program     extern E:\3.46\pic18-lt\cxx-framework\src\traditional\stdclib\mcmpp2r.asm
                   memcpy   0x01b1c0    program     extern E:\3.46\pic18-lt\cxx-framework\src\traditional\stdclib\memcpy.asm
            memcpypgm2ram   0x01b216    program     extern E:\3.46\pic18-lt\cxx-framework\src\traditional\stdclib\mcpyp2r.asm
                   memset   0x01b25c    program     extern E:\3.46\pic18-lt\cxx-framework\src\traditional\stdclib\memset.asm
postAssign_ToDHCPClient_FromPool   0x00c112    program     static C:\Users\Tim\Desktop\PIC-WEB-5-42-UEXT-full\Microchip\TCPIP Stack\DHCPs.c
                      pow   0x0130d4    program     extern E:\3.46\pic18-lt\cxx-framework\src\traditional\stdclib\pow.c
preAssign_ToDHCPClient_FromPool   0x00bea0    program     static C:\Users\Tim\Desktop\PIC-WEB-5-42-UEXT-full\Microchip\TCPIP Stack\DHCPs.c
                     putc   0x01df92    program     extern E:\3.46\pic18-lt\cxx-framework\src\traditional\stdclib\putc.c
               putrsUSART   0x01d99a    program     extern C:\Users\Tim\Desktop\PIC-WEB-5-42-UEXT-full\Microchip\TCPIP Stack\UART.c
                 putsSPI1   0x01ddc6    program     extern C:\Users\Tim\Desktop\PIC-WEB-5-42-UEXT-full\TCPIP\Demo App\Olimex_Demo_Files\Custom_SPI_Low.c
                putsUSART   0x01d970    program     extern C:\Users\Tim\Desktop\PIC-WEB-5-42-UEXT-full\Microchip\TCPIP Stack\UART.c
                     recv   0x00cf8c    program     extern C:\Users\Tim\Desktop\PIC-WEB-5-42-UEXT-full\Microchip\TCPIP Stack\BerkeleyAPI.c
                 recvfrom   0x00d05e    program     extern C:\Users\Tim\Desktop\PIC-WEB-5-42-UEXT-full\Microchip\TCPIP Stack\BerkeleyAPI.c
         renew_dhcps_Pool   0x00ba2e    program     static C:\Users\Tim\Desktop\PIC-WEB-5-42-UEXT-full\Microchip\TCPIP Stack\DHCPs.c
                 s_digits   0x01e3a4    program     static E:\3.46\pic18-lt\cxx-framework\src\traditional\stdclib\vfprintf.c
            s_put_n_chars   0x0118a4    program     static E:\3.46\pic18-lt\cxx-framework\src\traditional\stdclib\vfprintf.c
                     send   0x00cc3a    program     extern C:\Users\Tim\Desktop\PIC-WEB-5-42-UEXT-full\Microchip\TCPIP Stack\BerkeleyAPI.c
                   sendto   0x00cc66    program     extern C:\Users\Tim\Desktop\PIC-WEB-5-42-UEXT-full\Microchip\TCPIP Stack\BerkeleyAPI.c
                   socket   0x00c2ca    program     extern C:\Users\Tim\Desktop\PIC-WEB-5-42-UEXT-full\Microchip\TCPIP Stack\BerkeleyAPI.c
                  sprintf   0x01de48    program     extern E:\3.46\pic18-lt\cxx-framework\src\traditional\stdclib\sprintf.c
          strAccessDenied   0x01cbcf    program     static C:\Users\Tim\Desktop\PIC-WEB-5-42-UEXT-full\Microchip\TCPIP Stack\Telnet.c
         strAuthenticated   0x01cbe3    program     static C:\Users\Tim\Desktop\PIC-WEB-5-42-UEXT-full\Microchip\TCPIP Stack\Telnet.c
               strDisplay   0x01cc15    program     static C:\Users\Tim\Desktop\PIC-WEB-5-42-UEXT-full\Microchip\TCPIP Stack\Telnet.c
               strGoodBye   0x01cc89    program     static C:\Users\Tim\Desktop\PIC-WEB-5-42-UEXT-full\Microchip\TCPIP Stack\Telnet.c
              strPassword   0x01cbc1    program     static C:\Users\Tim\Desktop\PIC-WEB-5-42-UEXT-full\Microchip\TCPIP Stack\Telnet.c
                strSpaces   0x01cc7e    program     static C:\Users\Tim\Desktop\PIC-WEB-5-42-UEXT-full\Microchip\TCPIP Stack\Telnet.c
                 strTitle   0x01cb3c    program     static C:\Users\Tim\Desktop\PIC-WEB-5-42-UEXT-full\Microchip\TCPIP Stack\Telnet.c
              strWrongCMD   0x01cc98    program     static C:\Users\Tim\Desktop\PIC-WEB-5-42-UEXT-full\Microchip\TCPIP Stack\Telnet.c
                   strchr   0x01b290    program     extern E:\3.46\pic18-lt\cxx-framework\src\traditional\stdclib\strchr.asm
                strchrpgm   0x01b2b8    program     extern E:\3.46\pic18-lt\cxx-framework\src\traditional\stdclib\schrpgm.asm
                   strcmp   0x01b30e    program     extern E:\3.46\pic18-lt\cxx-framework\src\traditional\stdclib\strcmp.asm
            strcmppgm2ram   0x01b34e    program     extern E:\3.46\pic18-lt\cxx-framework\src\traditional\stdclib\scmpp2r.asm
            strcpypgm2ram   0x01b37a    program     extern E:\3.46\pic18-lt\cxx-framework\src\traditional\stdclib\scpyp2r.asm
           stricmppgm2ram   0x012d42    program     extern C:\Users\Tim\Desktop\PIC-WEB-5-42-UEXT-full\Microchip\TCPIP Stack\Helpers.c
                   strlen   0x01b3ac    program     extern E:\3.46\pic18-lt\cxx-framework\src\traditional\stdclib\strlen.asm
                strlenpgm   0x01b3c8    program     extern E:\3.46\pic18-lt\cxx-framework\src\traditional\stdclib\slenpgm.asm
                  strnchr   0x012f98    program     extern C:\Users\Tim\Desktop\PIC-WEB-5-42-UEXT-full\Microchip\TCPIP Stack\Helpers.c
                  strncpy   0x01b412    program     extern E:\3.46\pic18-lt\cxx-framework\src\traditional\stdclib\strncpy.asm
                strncpy_m   0x012fe8    program     extern C:\Users\Tim\Desktop\PIC-WEB-5-42-UEXT-full\Microchip\TCPIP Stack\Helpers.c
             strstrrampgm   0x01b46e    program     extern E:\3.46\pic18-lt\cxx-framework\src\traditional\stdclib\sstrrp.asm
                   strupr   0x01b4b4    program     extern E:\3.46\pic18-lt\cxx-framework\src\traditional\stdclib\strupr.asm
                    swapl   0x012dca    program     extern C:\Users\Tim\Desktop\PIC-WEB-5-42-UEXT-full\Microchip\TCPIP Stack\Helpers.c
                    swaps   0x012dc0    program     extern C:\Users\Tim\Desktop\PIC-WEB-5-42-UEXT-full\Microchip\TCPIP Stack\Helpers.c
                     test   0x01df0e    program     static                          
                    uitoa   0x012c0e    program     extern C:\Users\Tim\Desktop\PIC-WEB-5-42-UEXT-full\Microchip\TCPIP Stack\Helpers.c
                    ultoa   0x019a18    program     extern E:\3.46\pic18-lt\cxx-framework\src\traditional\stdclib\ultoa.asm
                 vfprintf   0x0118d0    program     extern E:\3.46\pic18-lt\cxx-framework\src\traditional\stdclib\vfprintf.c
               zero_block   0x01e300    program     static E:\3.46\pic18-lt\cxx-framework\src\traditional\proc\p18f67j60.asm
                   ADCON0   0x000fc2       data     extern E:\3.46\pic18-lt\cxx-framework\src\traditional\proc\p18f67j60.asm
               ADCON0Save   0x000c0f       data     static C:\Users\Tim\Desktop\PIC-WEB-5-42-UEXT-full\Microchip\TCPIP Stack\Helpers.c
               ADCON0bits   0x000fc2       data     extern E:\3.46\pic18-lt\cxx-framework\src\traditional\proc\p18f67j60.asm
                   ADCON1   0x000fc1       data     extern E:\3.46\pic18-lt\cxx-framework\src\traditional\proc\p18f67j60.asm
               ADCON1bits   0x000fc1       data     extern E:\3.46\pic18-lt\cxx-framework\src\traditional\proc\p18f67j60.asm
                   ADCON2   0x000fc0       data     extern E:\3.46\pic18-lt\cxx-framework\src\traditional\proc\p18f67j60.asm
               ADCON2Save   0x000c10       data     static C:\Users\Tim\Desktop\PIC-WEB-5-42-UEXT-full\Microchip\TCPIP Stack\Helpers.c
               ADCON2bits   0x000fc0       data     extern E:\3.46\pic18-lt\cxx-framework\src\traditional\proc\p18f67j60.asm
                    ADRES   0x000fc3       data     extern E:\3.46\pic18-lt\cxx-framework\src\traditional\proc\p18f67j60.asm
                   ADRESH   0x000fc4       data     extern E:\3.46\pic18-lt\cxx-framework\src\traditional\proc\p18f67j60.asm
                   ADRESL   0x000fc3       data     extern E:\3.46\pic18-lt\cxx-framework\src\traditional\proc\p18f67j60.asm
                    ADval   0x000c08       data     static C:\Users\Tim\Desktop\PIC-WEB-5-42-UEXT-full\TCPIP\Demo App\CustomHTTPApp.c
                AN0String   0x000c00       data     static C:\Users\Tim\Desktop\PIC-WEB-5-42-UEXT-full\TCPIP\Demo App\CustomHTTPApp.c
                AN0String   0x000688       data     extern C:\Users\Tim\Desktop\PIC-WEB-5-42-UEXT-full\TCPIP\Demo App\MainDemo.c
                AN1String   0x000690       data     extern C:\Users\Tim\Desktop\PIC-WEB-5-42-UEXT-full\TCPIP\Demo App\MainDemo.c
                  Address   0x0009a0       data     static C:\Users\Tim\Desktop\PIC-WEB-5-42-UEXT-full\TCPIP\Demo App\Olimex_Demo_Files\Custom_I2C.c
                  Address   0x00099b       data     static C:\Users\Tim\Desktop\PIC-WEB-5-42-UEXT-full\TCPIP\Demo App\Olimex_Demo_Files\Custom_I2C.c
                  Address   0x000c2b       data     static C:\Users\Tim\Desktop\PIC-WEB-5-42-UEXT-full\TCPIP\Demo App\CustomHTTPApp.c
                AppBuffer   0x000c05       data     static C:\Users\Tim\Desktop\PIC-WEB-5-42-UEXT-full\TCPIP\Demo App\GenericTCPServer.c
                AppConfig   0x000653       data     extern C:\Users\Tim\Desktop\PIC-WEB-5-42-UEXT-full\TCPIP\Demo App\MainDemo.c
               AsciiChars   0x000721       data     static C:\Users\Tim\Desktop\PIC-WEB-5-42-UEXT-full\Microchip\TCPIP Stack\Helpers.c
             AutoIPClient   0x00083c       data     static C:\Users\Tim\Desktop\PIC-WEB-5-42-UEXT-full\Microchip\TCPIP Stack\AutoIP.c
                  BAUDCON   0x000f7e       data     extern E:\3.46\pic18-lt\cxx-framework\src\traditional\proc\p18f67j60.asm
                 BAUDCON1   0x000f7e       data     extern E:\3.46\pic18-lt\cxx-framework\src\traditional\proc\p18f67j60.asm
             BAUDCON1bits   0x000f7e       data     extern E:\3.46\pic18-lt\cxx-framework\src\traditional\proc\p18f67j60.asm
              BAUDCONbits   0x000f7e       data     extern E:\3.46\pic18-lt\cxx-framework\src\traditional\proc\p18f67j60.asm
                  BAUDCTL   0x000f7e       data     extern E:\3.46\pic18-lt\cxx-framework\src\traditional\proc\p18f67j60.asm
                 BAUDCTL1   0x000f7e       data     extern E:\3.46\pic18-lt\cxx-framework\src\traditional\proc\p18f67j60.asm
             BAUDCTL1bits   0x000f7e       data     extern E:\3.46\pic18-lt\cxx-framework\src\traditional\proc\p18f67j60.asm
              BAUDCTLbits   0x000f7e       data     extern E:\3.46\pic18-lt\cxx-framework\src\traditional\proc\p18f67j60.asm
              BIT_COUNTER   0x0007ff       data     extern E:\3.46\pic18-lt\cxx-framework\src\pmc_common\SW_I2C\swgtci2c.c
              BOOTPHeader   0x000c03       data     static C:\Users\Tim\Desktop\PIC-WEB-5-42-UEXT-full\Microchip\TCPIP Stack\DHCPs.c
           BSDClientState   0x00056d       data     static C:\Users\Tim\Desktop\PIC-WEB-5-42-UEXT-full\TCPIP\Demo App\BerkeleyTCPClientDemo.c
           BSDServerState   0x000b3d       data     static C:\Users\Tim\Desktop\PIC-WEB-5-42-UEXT-full\TCPIP\Demo App\BerkeleyTCPServerDemo.c
           BSDSocketArray   0x0006a0       data     static C:\Users\Tim\Desktop\PIC-WEB-5-42-UEXT-full\Microchip\TCPIP Stack\BerkeleyAPI.c
                      BSR   0x000fe0       data     extern E:\3.46\pic18-lt\cxx-framework\src\traditional\proc\p18f67j60.asm
                 BaudRate   0x000b00       data     static C:\Users\Tim\Desktop\PIC-WEB-5-42-UEXT-full\TCPIP\Demo App\Olimex_Demo_Files\Custom_UART_Low.c
                 BaudRate   0x000c1a       data     static C:\Users\Tim\Desktop\PIC-WEB-5-42-UEXT-full\TCPIP\Demo App\CustomHTTPApp.c
        BootloaderAddress   0x000c00       data     static C:\Users\Tim\Desktop\PIC-WEB-5-42-UEXT-full\Microchip\TCPIP Stack\Reboot.c
              BridgeState   0x0009d2       data     static C:\Users\Tim\Desktop\PIC-WEB-5-42-UEXT-full\Microchip\TCPIP Stack\UART2TCPBridge.c
                     Buff   0x000c00       data     static C:\Users\Tim\Desktop\PIC-WEB-5-42-UEXT-full\TCPIP\Demo App\CustomHTTPApp.c
                   Buffer   0x00071f       data     static C:\Users\Tim\Desktop\PIC-WEB-5-42-UEXT-full\Microchip\TCPIP Stack\Helpers.c
                BufferLen   0x0009aa       data     static C:\Users\Tim\Desktop\PIC-WEB-5-42-UEXT-full\Microchip\TCPIP Stack\UART.c
                    Bytes   0x000b08       data     static C:\Users\Tim\Desktop\PIC-WEB-5-42-UEXT-full\TCPIP\Demo App\Olimex_Demo_Files\Custom_SPI.c
                    Bytes   0x0009b8       data     static C:\Users\Tim\Desktop\PIC-WEB-5-42-UEXT-full\TCPIP\Demo App\Olimex_Demo_Files\Custom_UART.c
                    Bytes   0x0009be       data     static C:\Users\Tim\Desktop\PIC-WEB-5-42-UEXT-full\TCPIP\Demo App\Olimex_Demo_Files\Custom_UART.c
                    Bytes   0x0009a6       data     static C:\Users\Tim\Desktop\PIC-WEB-5-42-UEXT-full\TCPIP\Demo App\Olimex_Demo_Files\Custom_I2C.c
                  CCP1CON   0x000fbd       data     extern E:\3.46\pic18-lt\cxx-framework\src\traditional\proc\p18f67j60.asm
              CCP1CONbits   0x000fbd       data     extern E:\3.46\pic18-lt\cxx-framework\src\traditional\proc\p18f67j60.asm
                  CCP2CON   0x000fba       data     extern E:\3.46\pic18-lt\cxx-framework\src\traditional\proc\p18f67j60.asm
              CCP2CONbits   0x000fba       data     extern E:\3.46\pic18-lt\cxx-framework\src\traditional\proc\p18f67j60.asm
                  CCP3CON   0x000fb7       data     extern E:\3.46\pic18-lt\cxx-framework\src\traditional\proc\p18f67j60.asm
              CCP3CONbits   0x000fb7       data     extern E:\3.46\pic18-lt\cxx-framework\src\traditional\proc\p18f67j60.asm
                  CCP4CON   0x000f73       data     extern E:\3.46\pic18-lt\cxx-framework\src\traditional\proc\p18f67j60.asm
              CCP4CONbits   0x000f73       data     extern E:\3.46\pic18-lt\cxx-framework\src\traditional\proc\p18f67j60.asm
                  CCP5CON   0x000f70       data     extern E:\3.46\pic18-lt\cxx-framework\src\traditional\proc\p18f67j60.asm
              CCP5CONbits   0x000f70       data     extern E:\3.46\pic18-lt\cxx-framework\src\traditional\proc\p18f67j60.asm
                    CCPR1   0x000fbe       data     extern E:\3.46\pic18-lt\cxx-framework\src\traditional\proc\p18f67j60.asm
                   CCPR1H   0x000fbf       data     extern E:\3.46\pic18-lt\cxx-framework\src\traditional\proc\p18f67j60.asm
                   CCPR1L   0x000fbe       data     extern E:\3.46\pic18-lt\cxx-framework\src\traditional\proc\p18f67j60.asm
                    CCPR2   0x000fbb       data     extern E:\3.46\pic18-lt\cxx-framework\src\traditional\proc\p18f67j60.asm
                   CCPR2H   0x000fbc       data     extern E:\3.46\pic18-lt\cxx-framework\src\traditional\proc\p18f67j60.asm
                   CCPR2L   0x000fbb       data     extern E:\3.46\pic18-lt\cxx-framework\src\traditional\proc\p18f67j60.asm
                    CCPR3   0x000fb8       data     extern E:\3.46\pic18-lt\cxx-framework\src\traditional\proc\p18f67j60.asm
                   CCPR3H   0x000fb9       data     extern E:\3.46\pic18-lt\cxx-framework\src\traditional\proc\p18f67j60.asm
                   CCPR3L   0x000fb8       data     extern E:\3.46\pic18-lt\cxx-framework\src\traditional\proc\p18f67j60.asm
                    CCPR4   0x000f74       data     extern E:\3.46\pic18-lt\cxx-framework\src\traditional\proc\p18f67j60.asm
                   CCPR4H   0x000f75       data     extern E:\3.46\pic18-lt\cxx-framework\src\traditional\proc\p18f67j60.asm
                   CCPR4L   0x000f74       data     extern E:\3.46\pic18-lt\cxx-framework\src\traditional\proc\p18f67j60.asm
                    CCPR5   0x000f71       data     extern E:\3.46\pic18-lt\cxx-framework\src\traditional\proc\p18f67j60.asm
                   CCPR5H   0x000f72       data     extern E:\3.46\pic18-lt\cxx-framework\src\traditional\proc\p18f67j60.asm
                   CCPR5L   0x000f71       data     extern E:\3.46\pic18-lt\cxx-framework\src\traditional\proc\p18f67j60.asm
                    CMCON   0x000fb4       data     extern E:\3.46\pic18-lt\cxx-framework\src\traditional\proc\p18f67j60.asm
                CMCONbits   0x000fb4       data     extern E:\3.46\pic18-lt\cxx-framework\src\traditional\proc\p18f67j60.asm
                 CRPeriod   0x000f26       data     static C:\Users\Tim\Desktop\PIC-WEB-5-42-UEXT-full\Microchip\TCPIP Stack\SMTP.c
                   CVRCON   0x000fb5       data     extern E:\3.46\pic18-lt\cxx-framework\src\traditional\proc\p18f67j60.asm
               CVRCONbits   0x000fb5       data     extern E:\3.46\pic18-lt\cxx-framework\src\traditional\proc\p18f67j60.asm
                    Cache   0x0005d8       data     static C:\Users\Tim\Desktop\PIC-WEB-5-42-UEXT-full\Microchip\TCPIP Stack\ARP.c
             CalcChecksum   0x000c00       data     static C:\Users\Tim\Desktop\PIC-WEB-5-42-UEXT-full\Microchip\TCPIP Stack\IP.c
                 Checksum   0x000cac       data     static C:\Users\Tim\Desktop\PIC-WEB-5-42-UEXT-full\Microchip\TCPIP Stack\ETH97J60.c
                 ChunkLen   0x000cb0       data     static C:\Users\Tim\Desktop\PIC-WEB-5-42-UEXT-full\Microchip\TCPIP Stack\ETH97J60.c
                    Class   0x000c03       data     static C:\Users\Tim\Desktop\PIC-WEB-5-42-UEXT-full\Microchip\TCPIP Stack\NBNS.c
               ClientSock   0x000b17       data     static C:\Users\Tim\Desktop\PIC-WEB-5-42-UEXT-full\TCPIP\Demo App\BerkeleyTCPServerDemo.c
                  Command   0x000c2d       data     static C:\Users\Tim\Desktop\PIC-WEB-5-42-UEXT-full\TCPIP\Demo App\CustomHTTPApp.c
                  Command   0x0009a2       data     static C:\Users\Tim\Desktop\PIC-WEB-5-42-UEXT-full\TCPIP\Demo App\Olimex_Demo_Files\Custom_I2C.c
                  Command   0x00099d       data     static C:\Users\Tim\Desktop\PIC-WEB-5-42-UEXT-full\TCPIP\Demo App\Olimex_Demo_Files\Custom_I2C.c
    CurrentPacketLocation   0x0008b1       data     static C:\Users\Tim\Desktop\PIC-WEB-5-42-UEXT-full\Microchip\TCPIP Stack\ETH97J60.c
                     DDRA   0x000f92       data     extern E:\3.46\pic18-lt\cxx-framework\src\traditional\proc\p18f67j60.asm
                 DDRAbits   0x000f92       data     extern E:\3.46\pic18-lt\cxx-framework\src\traditional\proc\p18f67j60.asm
                     DDRB   0x000f93       data     extern E:\3.46\pic18-lt\cxx-framework\src\traditional\proc\p18f67j60.asm
                 DDRBbits   0x000f93       data     extern E:\3.46\pic18-lt\cxx-framework\src\traditional\proc\p18f67j60.asm
                     DDRC   0x000f94       data     extern E:\3.46\pic18-lt\cxx-framework\src\traditional\proc\p18f67j60.asm
                 DDRCbits   0x000f94       data     extern E:\3.46\pic18-lt\cxx-framework\src\traditional\proc\p18f67j60.asm
                     DDRD   0x000f95       data     extern E:\3.46\pic18-lt\cxx-framework\src\traditional\proc\p18f67j60.asm
                 DDRDbits   0x000f95       data     extern E:\3.46\pic18-lt\cxx-framework\src\traditional\proc\p18f67j60.asm
                     DDRE   0x000f96       data     extern E:\3.46\pic18-lt\cxx-framework\src\traditional\proc\p18f67j60.asm
                 DDREbits   0x000f96       data     extern E:\3.46\pic18-lt\cxx-framework\src\traditional\proc\p18f67j60.asm
                     DDRF   0x000f97       data     extern E:\3.46\pic18-lt\cxx-framework\src\traditional\proc\p18f67j60.asm
                 DDRFbits   0x000f97       data     extern E:\3.46\pic18-lt\cxx-framework\src\traditional\proc\p18f67j60.asm
                     DDRG   0x000f98       data     extern E:\3.46\pic18-lt\cxx-framework\src\traditional\proc\p18f67j60.asm
                 DDRGbits   0x000f98       data     extern E:\3.46\pic18-lt\cxx-framework\src\traditional\proc\p18f67j60.asm
               DHCPClient   0x0003cf       data     static C:\Users\Tim\Desktop\PIC-WEB-5-42-UEXT-full\Microchip\TCPIP Stack\DHCP.c
DHCPClientInitializedOnce   0x000b3b       data     extern C:\Users\Tim\Desktop\PIC-WEB-5-42-UEXT-full\Microchip\TCPIP Stack\DHCP.c
            DHCPNextLease   0x0004de       data     static C:\Users\Tim\Desktop\PIC-WEB-5-42-UEXT-full\Microchip\TCPIP Stack\DHCPs.c
          DNSAnswerHeader   0x000c43       data     static C:\Users\Tim\Desktop\PIC-WEB-5-42-UEXT-full\Microchip\TCPIP Stack\DNS.c
                DNSHeader   0x000c37       data     static C:\Users\Tim\Desktop\PIC-WEB-5-42-UEXT-full\Microchip\TCPIP Stack\DNS.c
              DNSHostName   0x0007d8       data     static C:\Users\Tim\Desktop\PIC-WEB-5-42-UEXT-full\Microchip\TCPIP Stack\DNS.c
           DNSHostNameROM   0x0007da       data     static C:\Users\Tim\Desktop\PIC-WEB-5-42-UEXT-full\Microchip\TCPIP Stack\DNS.c
                     Data   0x0009bc       data     static C:\Users\Tim\Desktop\PIC-WEB-5-42-UEXT-full\TCPIP\Demo App\Olimex_Demo_Files\Custom_UART.c
                     Data   0x000c33       data     static C:\Users\Tim\Desktop\PIC-WEB-5-42-UEXT-full\TCPIP\Demo App\CustomHTTPApp.c
                     Data   0x0009b6       data     static C:\Users\Tim\Desktop\PIC-WEB-5-42-UEXT-full\TCPIP\Demo App\Olimex_Demo_Files\Custom_UART.c
                     Data   0x000c3d       data     static C:\Users\Tim\Desktop\PIC-WEB-5-42-UEXT-full\TCPIP\Demo App\CustomHTTPApp.c
                     Data   0x0009b4       data     static C:\Users\Tim\Desktop\PIC-WEB-5-42-UEXT-full\TCPIP\Demo App\Olimex_Demo_Files\Custom_UART.c
                     Data   0x0009ba       data     static C:\Users\Tim\Desktop\PIC-WEB-5-42-UEXT-full\TCPIP\Demo App\Olimex_Demo_Files\Custom_UART.c
                     Data   0x000b06       data     static C:\Users\Tim\Desktop\PIC-WEB-5-42-UEXT-full\TCPIP\Demo App\Olimex_Demo_Files\Custom_SPI.c
                     Data   0x000b05       data     static C:\Users\Tim\Desktop\PIC-WEB-5-42-UEXT-full\TCPIP\Demo App\Olimex_Demo_Files\Custom_SPI.c
                     Data   0x0009a4       data     static C:\Users\Tim\Desktop\PIC-WEB-5-42-UEXT-full\TCPIP\Demo App\Olimex_Demo_Files\Custom_I2C.c
                     Data   0x00099f       data     static C:\Users\Tim\Desktop\PIC-WEB-5-42-UEXT-full\TCPIP\Demo App\Olimex_Demo_Files\Custom_I2C.c
                     Data   0x0008e1       data     static C:\Users\Tim\Desktop\PIC-WEB-5-42-UEXT-full\Microchip\TCPIP Stack\ETH97J60.c
                     Data   0x000f4b       data     static C:\Users\Tim\Desktop\PIC-WEB-5-42-UEXT-full\Microchip\TCPIP Stack\SMTP.c
                     Data   0x000f49       data     static C:\Users\Tim\Desktop\PIC-WEB-5-42-UEXT-full\Microchip\TCPIP Stack\SMTP.c
                     Data   0x000f40       data     static C:\Users\Tim\Desktop\PIC-WEB-5-42-UEXT-full\Microchip\TCPIP Stack\SMTP.c
                     Data   0x000f44       data     static C:\Users\Tim\Desktop\PIC-WEB-5-42-UEXT-full\Microchip\TCPIP Stack\SMTP.c
               DataBuffer   0x000cb2       data     static C:\Users\Tim\Desktop\PIC-WEB-5-42-UEXT-full\Microchip\TCPIP Stack\ETH97J60.c
                  DataPtr   0x000cc6       data     static C:\Users\Tim\Desktop\PIC-WEB-5-42-UEXT-full\Microchip\TCPIP Stack\ETH97J60.c
            DelayCounter1   0x000034       data     extern E:\3.46\pic18-lt\cxx-framework\src\traditional\delays\delayd1.asm
                     Dest   0x0009a8       data     static C:\Users\Tim\Desktop\PIC-WEB-5-42-UEXT-full\Microchip\TCPIP Stack\UART.c
               DestIPAddr   0x0005e6       data     static C:\Users\Tim\Desktop\PIC-WEB-5-42-UEXT-full\Microchip\TCPIP Stack\ARP.c
                DestIndex   0x000c45       data     static C:\Users\Tim\Desktop\PIC-WEB-5-42-UEXT-full\TCPIP\Demo App\Olimex_Demo_Files\Misc_Functions.c
              Destination   0x0009fb       data     static C:\Users\Tim\Desktop\PIC-WEB-5-42-UEXT-full\TCPIP\Demo App\Olimex_Demo_Files\Misc_Functions.c
               DhcpIpPool   0x000484       data     extern C:\Users\Tim\Desktop\PIC-WEB-5-42-UEXT-full\Microchip\TCPIP Stack\DHCPs.c
                    Digit   0x000c50       data     static C:\Users\Tim\Desktop\PIC-WEB-5-42-UEXT-full\TCPIP\Demo App\Olimex_Demo_Files\Misc_Functions.c
                    Digit   0x000c16       data     static C:\Users\Tim\Desktop\PIC-WEB-5-42-UEXT-full\Microchip\TCPIP Stack\Helpers.c
              DiscoverySM   0x000b3e       data     static C:\Users\Tim\Desktop\PIC-WEB-5-42-UEXT-full\Microchip\TCPIP Stack\Announce.c
                  Divisor   0x000c18       data     static C:\Users\Tim\Desktop\PIC-WEB-5-42-UEXT-full\Microchip\TCPIP Stack\Helpers.c
                  ECCP1AS   0x000fb6       data     extern E:\3.46\pic18-lt\cxx-framework\src\traditional\proc\p18f67j60.asm
              ECCP1ASbits   0x000fb6       data     extern E:\3.46\pic18-lt\cxx-framework\src\traditional\proc\p18f67j60.asm
                 ECCP1CON   0x000fbd       data     extern E:\3.46\pic18-lt\cxx-framework\src\traditional\proc\p18f67j60.asm
             ECCP1CONbits   0x000fbd       data     extern E:\3.46\pic18-lt\cxx-framework\src\traditional\proc\p18f67j60.asm
                 ECCP1DEL   0x000f79       data     extern E:\3.46\pic18-lt\cxx-framework\src\traditional\proc\p18f67j60.asm
             ECCP1DELbits   0x000f79       data     extern E:\3.46\pic18-lt\cxx-framework\src\traditional\proc\p18f67j60.asm
                  ECCP2AS   0x000f68       data     extern E:\3.46\pic18-lt\cxx-framework\src\traditional\proc\p18f67j60.asm
              ECCP2ASbits   0x000f68       data     extern E:\3.46\pic18-lt\cxx-framework\src\traditional\proc\p18f67j60.asm
                 ECCP2CON   0x000fba       data     extern E:\3.46\pic18-lt\cxx-framework\src\traditional\proc\p18f67j60.asm
             ECCP2CONbits   0x000fba       data     extern E:\3.46\pic18-lt\cxx-framework\src\traditional\proc\p18f67j60.asm
                 ECCP2DEL   0x000f67       data     extern E:\3.46\pic18-lt\cxx-framework\src\traditional\proc\p18f67j60.asm
             ECCP2DELbits   0x000f67       data     extern E:\3.46\pic18-lt\cxx-framework\src\traditional\proc\p18f67j60.asm
                  ECCP3AS   0x000f6a       data     extern E:\3.46\pic18-lt\cxx-framework\src\traditional\proc\p18f67j60.asm
              ECCP3ASbits   0x000f6a       data     extern E:\3.46\pic18-lt\cxx-framework\src\traditional\proc\p18f67j60.asm
                 ECCP3CON   0x000fb7       data     extern E:\3.46\pic18-lt\cxx-framework\src\traditional\proc\p18f67j60.asm
             ECCP3CONbits   0x000fb7       data     extern E:\3.46\pic18-lt\cxx-framework\src\traditional\proc\p18f67j60.asm
                 ECCP3DEL   0x000f69       data     extern E:\3.46\pic18-lt\cxx-framework\src\traditional\proc\p18f67j60.asm
             ECCP3DELbits   0x000f69       data     extern E:\3.46\pic18-lt\cxx-framework\src\traditional\proc\p18f67j60.asm
                    ECON1   0x000fd2       data     extern E:\3.46\pic18-lt\cxx-framework\src\traditional\proc\p18f67j60.asm
                ECON1bits   0x000fd2       data     extern E:\3.46\pic18-lt\cxx-framework\src\traditional\proc\p18f67j60.asm
                    ECON2   0x000efe       data     extern E:\3.46\pic18-lt\cxx-framework\src\traditional\proc\p18f67j60.asm
                ECON2bits   0x000efe       data     extern E:\3.46\pic18-lt\cxx-framework\src\traditional\proc\p18f67j60.asm
                    EDATA   0x000f61       data     extern E:\3.46\pic18-lt\cxx-framework\src\traditional\proc\p18f67j60.asm
                EDATAbits   0x000f61       data     extern E:\3.46\pic18-lt\cxx-framework\src\traditional\proc\p18f67j60.asm
                   EDMACS   0x000ef6       data     extern E:\3.46\pic18-lt\cxx-framework\src\traditional\proc\p18f67j60.asm
                  EDMACSH   0x000ef7       data     extern E:\3.46\pic18-lt\cxx-framework\src\traditional\proc\p18f67j60.asm
                  EDMACSL   0x000ef6       data     extern E:\3.46\pic18-lt\cxx-framework\src\traditional\proc\p18f67j60.asm
                  EDMADST   0x000ef4       data     extern E:\3.46\pic18-lt\cxx-framework\src\traditional\proc\p18f67j60.asm
                 EDMADSTH   0x000ef5       data     extern E:\3.46\pic18-lt\cxx-framework\src\traditional\proc\p18f67j60.asm
                 EDMADSTL   0x000ef4       data     extern E:\3.46\pic18-lt\cxx-framework\src\traditional\proc\p18f67j60.asm
                   EDMAND   0x000ef2       data     extern E:\3.46\pic18-lt\cxx-framework\src\traditional\proc\p18f67j60.asm
                  EDMANDH   0x000ef3       data     extern E:\3.46\pic18-lt\cxx-framework\src\traditional\proc\p18f67j60.asm
                  EDMANDL   0x000ef2       data     extern E:\3.46\pic18-lt\cxx-framework\src\traditional\proc\p18f67j60.asm
                   EDMAST   0x000ef0       data     extern E:\3.46\pic18-lt\cxx-framework\src\traditional\proc\p18f67j60.asm
                  EDMASTH   0x000ef1       data     extern E:\3.46\pic18-lt\cxx-framework\src\traditional\proc\p18f67j60.asm
                  EDMASTL   0x000ef0       data     extern E:\3.46\pic18-lt\cxx-framework\src\traditional\proc\p18f67j60.asm
                   EECON1   0x000fa6       data     extern E:\3.46\pic18-lt\cxx-framework\src\traditional\proc\p18f67j60.asm
               EECON1bits   0x000fa6       data     extern E:\3.46\pic18-lt\cxx-framework\src\traditional\proc\p18f67j60.asm
                   EECON2   0x000fa7       data     extern E:\3.46\pic18-lt\cxx-framework\src\traditional\proc\p18f67j60.asm
                  EFLOCON   0x000e97       data     extern E:\3.46\pic18-lt\cxx-framework\src\traditional\proc\p18f67j60.asm
              EFLOCONbits   0x000e97       data     extern E:\3.46\pic18-lt\cxx-framework\src\traditional\proc\p18f67j60.asm
                     EHT0   0x000ec0       data     extern E:\3.46\pic18-lt\cxx-framework\src\traditional\proc\p18f67j60.asm
                     EHT1   0x000ec1       data     extern E:\3.46\pic18-lt\cxx-framework\src\traditional\proc\p18f67j60.asm
                     EHT2   0x000ec2       data     extern E:\3.46\pic18-lt\cxx-framework\src\traditional\proc\p18f67j60.asm
                     EHT3   0x000ec3       data     extern E:\3.46\pic18-lt\cxx-framework\src\traditional\proc\p18f67j60.asm
                     EHT4   0x000ec4       data     extern E:\3.46\pic18-lt\cxx-framework\src\traditional\proc\p18f67j60.asm
                     EHT5   0x000ec5       data     extern E:\3.46\pic18-lt\cxx-framework\src\traditional\proc\p18f67j60.asm
                     EHT6   0x000ec6       data     extern E:\3.46\pic18-lt\cxx-framework\src\traditional\proc\p18f67j60.asm
                     EHT7   0x000ec7       data     extern E:\3.46\pic18-lt\cxx-framework\src\traditional\proc\p18f67j60.asm
                      EIE   0x000efb       data     extern E:\3.46\pic18-lt\cxx-framework\src\traditional\proc\p18f67j60.asm
                  EIEbits   0x000efb       data     extern E:\3.46\pic18-lt\cxx-framework\src\traditional\proc\p18f67j60.asm
                      EIR   0x000f60       data     extern E:\3.46\pic18-lt\cxx-framework\src\traditional\proc\p18f67j60.asm
                  EIRbits   0x000f60       data     extern E:\3.46\pic18-lt\cxx-framework\src\traditional\proc\p18f67j60.asm
                    EPAUS   0x000e98       data     extern E:\3.46\pic18-lt\cxx-framework\src\traditional\proc\p18f67j60.asm
                   EPAUSH   0x000e99       data     extern E:\3.46\pic18-lt\cxx-framework\src\traditional\proc\p18f67j60.asm
                   EPAUSL   0x000e98       data     extern E:\3.46\pic18-lt\cxx-framework\src\traditional\proc\p18f67j60.asm
                  EPKTCNT   0x000ed9       data     extern E:\3.46\pic18-lt\cxx-framework\src\traditional\proc\p18f67j60.asm
                    EPMCS   0x000ed0       data     extern E:\3.46\pic18-lt\cxx-framework\src\traditional\proc\p18f67j60.asm
                   EPMCSH   0x000ed1       data     extern E:\3.46\pic18-lt\cxx-framework\src\traditional\proc\p18f67j60.asm
                   EPMCSL   0x000ed0       data     extern E:\3.46\pic18-lt\cxx-framework\src\traditional\proc\p18f67j60.asm
                    EPMM0   0x000ec8       data     extern E:\3.46\pic18-lt\cxx-framework\src\traditional\proc\p18f67j60.asm
                    EPMM1   0x000ec9       data     extern E:\3.46\pic18-lt\cxx-framework\src\traditional\proc\p18f67j60.asm
                    EPMM2   0x000eca       data     extern E:\3.46\pic18-lt\cxx-framework\src\traditional\proc\p18f67j60.asm
                    EPMM3   0x000ecb       data     extern E:\3.46\pic18-lt\cxx-framework\src\traditional\proc\p18f67j60.asm
                    EPMM4   0x000ecc       data     extern E:\3.46\pic18-lt\cxx-framework\src\traditional\proc\p18f67j60.asm
                    EPMM5   0x000ecd       data     extern E:\3.46\pic18-lt\cxx-framework\src\traditional\proc\p18f67j60.asm
                    EPMM6   0x000ece       data     extern E:\3.46\pic18-lt\cxx-framework\src\traditional\proc\p18f67j60.asm
                    EPMM7   0x000ecf       data     extern E:\3.46\pic18-lt\cxx-framework\src\traditional\proc\p18f67j60.asm
                     EPMO   0x000ed4       data     extern E:\3.46\pic18-lt\cxx-framework\src\traditional\proc\p18f67j60.asm
                    EPMOH   0x000ed5       data     extern E:\3.46\pic18-lt\cxx-framework\src\traditional\proc\p18f67j60.asm
                    EPMOL   0x000ed4       data     extern E:\3.46\pic18-lt\cxx-framework\src\traditional\proc\p18f67j60.asm
                    ERDPT   0x000f7a       data     extern E:\3.46\pic18-lt\cxx-framework\src\traditional\proc\p18f67j60.asm
                   ERDPTH   0x000f7b       data     extern E:\3.46\pic18-lt\cxx-framework\src\traditional\proc\p18f67j60.asm
                   ERDPTL   0x000f7a       data     extern E:\3.46\pic18-lt\cxx-framework\src\traditional\proc\p18f67j60.asm
                  ERXFCON   0x000ed8       data     extern E:\3.46\pic18-lt\cxx-framework\src\traditional\proc\p18f67j60.asm
              ERXFCONbits   0x000ed8       data     extern E:\3.46\pic18-lt\cxx-framework\src\traditional\proc\p18f67j60.asm
                    ERXND   0x000eea       data     extern E:\3.46\pic18-lt\cxx-framework\src\traditional\proc\p18f67j60.asm
                   ERXNDH   0x000eeb       data     extern E:\3.46\pic18-lt\cxx-framework\src\traditional\proc\p18f67j60.asm
                   ERXNDL   0x000eea       data     extern E:\3.46\pic18-lt\cxx-framework\src\traditional\proc\p18f67j60.asm
                  ERXRDPT   0x000eec       data     extern E:\3.46\pic18-lt\cxx-framework\src\traditional\proc\p18f67j60.asm
                 ERXRDPTH   0x000eed       data     extern E:\3.46\pic18-lt\cxx-framework\src\traditional\proc\p18f67j60.asm
                 ERXRDPTL   0x000eec       data     extern E:\3.46\pic18-lt\cxx-framework\src\traditional\proc\p18f67j60.asm
                    ERXST   0x000ee8       data     extern E:\3.46\pic18-lt\cxx-framework\src\traditional\proc\p18f67j60.asm
                   ERXSTH   0x000ee9       data     extern E:\3.46\pic18-lt\cxx-framework\src\traditional\proc\p18f67j60.asm
                   ERXSTL   0x000ee8       data     extern E:\3.46\pic18-lt\cxx-framework\src\traditional\proc\p18f67j60.asm
                  ERXWRPT   0x000eee       data     extern E:\3.46\pic18-lt\cxx-framework\src\traditional\proc\p18f67j60.asm
                 ERXWRPTH   0x000eef       data     extern E:\3.46\pic18-lt\cxx-framework\src\traditional\proc\p18f67j60.asm
                 ERXWRPTL   0x000eee       data     extern E:\3.46\pic18-lt\cxx-framework\src\traditional\proc\p18f67j60.asm
                    ESTAT   0x000efd       data     extern E:\3.46\pic18-lt\cxx-framework\src\traditional\proc\p18f67j60.asm
                ESTATbits   0x000efd       data     extern E:\3.46\pic18-lt\cxx-framework\src\traditional\proc\p18f67j60.asm
                    ETXND   0x000ee6       data     extern E:\3.46\pic18-lt\cxx-framework\src\traditional\proc\p18f67j60.asm
                   ETXNDH   0x000ee7       data     extern E:\3.46\pic18-lt\cxx-framework\src\traditional\proc\p18f67j60.asm
                   ETXNDL   0x000ee6       data     extern E:\3.46\pic18-lt\cxx-framework\src\traditional\proc\p18f67j60.asm
                    ETXST   0x000ee4       data     extern E:\3.46\pic18-lt\cxx-framework\src\traditional\proc\p18f67j60.asm
                   ETXSTH   0x000ee5       data     extern E:\3.46\pic18-lt\cxx-framework\src\traditional\proc\p18f67j60.asm
                   ETXSTL   0x000ee4       data     extern E:\3.46\pic18-lt\cxx-framework\src\traditional\proc\p18f67j60.asm
                    EWRPT   0x000ee2       data     extern E:\3.46\pic18-lt\cxx-framework\src\traditional\proc\p18f67j60.asm
                   EWRPTH   0x000ee3       data     extern E:\3.46\pic18-lt\cxx-framework\src\traditional\proc\p18f67j60.asm
                   EWRPTL   0x000ee2       data     extern E:\3.46\pic18-lt\cxx-framework\src\traditional\proc\p18f67j60.asm
                    Error   0x000c44       data     static C:\Users\Tim\Desktop\PIC-WEB-5-42-UEXT-full\TCPIP\Demo App\Olimex_Demo_Files\Custom_I2C.c
                    Error   0x000c44       data     static C:\Users\Tim\Desktop\PIC-WEB-5-42-UEXT-full\TCPIP\Demo App\Olimex_Demo_Files\Custom_I2C.c
             FLASHAddress   0x000887       data     extern C:\Users\Tim\Desktop\PIC-WEB-5-42-UEXT-full\Microchip\TCPIP Stack\SPIFlash.c
              FLASHBuffer   0x00087b       data     extern C:\Users\Tim\Desktop\PIC-WEB-5-42-UEXT-full\Microchip\TCPIP Stack\SPIFlash.c
           FLASHBufferPtr   0x000879       data     extern C:\Users\Tim\Desktop\PIC-WEB-5-42-UEXT-full\Microchip\TCPIP Stack\SPIFlash.c
           FLASHReadyFlag   0x000878       data     extern C:\Users\Tim\Desktop\PIC-WEB-5-42-UEXT-full\Microchip\TCPIP Stack\SPIFlash.c
                     FSR0   0x000fe9       data     extern E:\3.46\pic18-lt\cxx-framework\src\traditional\proc\p18f67j60.asm
                    FSR0H   0x000fea       data     extern E:\3.46\pic18-lt\cxx-framework\src\traditional\proc\p18f67j60.asm
                    FSR0L   0x000fe9       data     extern E:\3.46\pic18-lt\cxx-framework\src\traditional\proc\p18f67j60.asm
                     FSR1   0x000fe1       data     extern E:\3.46\pic18-lt\cxx-framework\src\traditional\proc\p18f67j60.asm
                    FSR1H   0x000fe2       data     extern E:\3.46\pic18-lt\cxx-framework\src\traditional\proc\p18f67j60.asm
                    FSR1L   0x000fe1       data     extern E:\3.46\pic18-lt\cxx-framework\src\traditional\proc\p18f67j60.asm
                     FSR2   0x000fd9       data     extern E:\3.46\pic18-lt\cxx-framework\src\traditional\proc\p18f67j60.asm
                    FSR2H   0x000fda       data     extern E:\3.46\pic18-lt\cxx-framework\src\traditional\proc\p18f67j60.asm
                    FSR2L   0x000fd9       data     extern E:\3.46\pic18-lt\cxx-framework\src\traditional\proc\p18f67j60.asm
                    First   0x000c4a       data     static C:\Users\Tim\Desktop\PIC-WEB-5-42-UEXT-full\TCPIP\Demo App\Olimex_Demo_Files\Misc_Functions.c
                    Flags   0x000b23       data     static C:\Users\Tim\Desktop\PIC-WEB-5-42-UEXT-full\Microchip\TCPIP Stack\DNS.c
                    Flags   0x0002c1       data     static C:\Users\Tim\Desktop\PIC-WEB-5-42-UEXT-full\Microchip\TCPIP Stack\UDP.c
                  GIESave   0x000c00       data     static C:\Users\Tim\Desktop\PIC-WEB-5-42-UEXT-full\Microchip\TCPIP Stack\ETH97J60.c
   GenericTCPExampleState   0x0006fd       data     static C:\Users\Tim\Desktop\PIC-WEB-5-42-UEXT-full\TCPIP\Demo App\GenericTCPClient.c
                   Header   0x0004f5       data     static C:\Users\Tim\Desktop\PIC-WEB-5-42-UEXT-full\Microchip\TCPIP Stack\DHCPs.c
                   Header   0x0004e4       data     static C:\Users\Tim\Desktop\PIC-WEB-5-42-UEXT-full\Microchip\TCPIP Stack\DHCPs.c
                   Header   0x0004e2       data     static C:\Users\Tim\Desktop\PIC-WEB-5-42-UEXT-full\Microchip\TCPIP Stack\DHCPs.c
                 HexDigit   0x000c46       data     static C:\Users\Tim\Desktop\PIC-WEB-5-42-UEXT-full\TCPIP\Demo App\Olimex_Demo_Files\Misc_Functions.c
                   HostIP   0x0007ef       data     static C:\Users\Tim\Desktop\PIC-WEB-5-42-UEXT-full\Microchip\TCPIP Stack\DNS.c
                 Hostname   0x0007eb       data     static C:\Users\Tim\Desktop\PIC-WEB-5-42-UEXT-full\Microchip\TCPIP Stack\DNS.c
                 Hostname   0x0007e8       data     static C:\Users\Tim\Desktop\PIC-WEB-5-42-UEXT-full\Microchip\TCPIP Stack\DNS.c
               I2C_BUFFER   0x0007fe       data     extern E:\3.46\pic18-lt\cxx-framework\src\pmc_common\SW_I2C\swgtci2c.c
                I2C_Delay   0x000b3c       data     extern C:\Users\Tim\Desktop\PIC-WEB-5-42-UEXT-full\TCPIP\Demo App\Olimex_Demo_Files\Custom_I2C_Low.c
         I2C_Delay_String   0x000c29       data     static C:\Users\Tim\Desktop\PIC-WEB-5-42-UEXT-full\TCPIP\Demo App\CustomHTTPApp.c
               I2C_String   0x0008e3       data     extern C:\Users\Tim\Desktop\PIC-WEB-5-42-UEXT-full\TCPIP\Demo App\CustomHTTPApp.c
                ICMPFlags   0x000b39       data     static C:\Users\Tim\Desktop\PIC-WEB-5-42-UEXT-full\Microchip\TCPIP Stack\ICMP.c
               ICMPPacket   0x000c00       data     static C:\Users\Tim\Desktop\PIC-WEB-5-42-UEXT-full\Microchip\TCPIP Stack\ICMP.c
                ICMPState   0x000951       data     static C:\Users\Tim\Desktop\PIC-WEB-5-42-UEXT-full\Microchip\TCPIP Stack\ICMP.c
                ICMPTimer   0x000943       data     static C:\Users\Tim\Desktop\PIC-WEB-5-42-UEXT-full\Microchip\TCPIP Stack\ICMP.c
                    INDF0   0x000fef       data     extern E:\3.46\pic18-lt\cxx-framework\src\traditional\proc\p18f67j60.asm
                    INDF1   0x000fe7       data     extern E:\3.46\pic18-lt\cxx-framework\src\traditional\proc\p18f67j60.asm
                    INDF2   0x000fdf       data     extern E:\3.46\pic18-lt\cxx-framework\src\traditional\proc\p18f67j60.asm
                   INTCON   0x000ff2       data     extern E:\3.46\pic18-lt\cxx-framework\src\traditional\proc\p18f67j60.asm
                  INTCON2   0x000ff1       data     extern E:\3.46\pic18-lt\cxx-framework\src\traditional\proc\p18f67j60.asm
              INTCON2bits   0x000ff1       data     extern E:\3.46\pic18-lt\cxx-framework\src\traditional\proc\p18f67j60.asm
                  INTCON3   0x000ff0       data     extern E:\3.46\pic18-lt\cxx-framework\src\traditional\proc\p18f67j60.asm
              INTCON3bits   0x000ff0       data     extern E:\3.46\pic18-lt\cxx-framework\src\traditional\proc\p18f67j60.asm
               INTCONbits   0x000ff2       data     extern E:\3.46\pic18-lt\cxx-framework\src\traditional\proc\p18f67j60.asm
                   IPAddr   0x0005f9       data     static C:\Users\Tim\Desktop\PIC-WEB-5-42-UEXT-full\Microchip\TCPIP Stack\ARP.c
                   IPAddr   0x0005f7       data     static C:\Users\Tim\Desktop\PIC-WEB-5-42-UEXT-full\Microchip\TCPIP Stack\ARP.c
                IPAddress   0x00070b       data     static C:\Users\Tim\Desktop\PIC-WEB-5-42-UEXT-full\Microchip\TCPIP Stack\Helpers.c
                IPAddress   0x000706       data     static C:\Users\Tim\Desktop\PIC-WEB-5-42-UEXT-full\Microchip\TCPIP Stack\Helpers.c
                  IPDigit   0x000c00       data     static C:\Users\Tim\Desktop\PIC-WEB-5-42-UEXT-full\TCPIP\Demo App\MainDemo.c
              IPHeaderLen   0x000978       data     static C:\Users\Tim\Desktop\PIC-WEB-5-42-UEXT-full\Microchip\TCPIP Stack\IP.c
                     IPR1   0x000f9f       data     extern E:\3.46\pic18-lt\cxx-framework\src\traditional\proc\p18f67j60.asm
                 IPR1bits   0x000f9f       data     extern E:\3.46\pic18-lt\cxx-framework\src\traditional\proc\p18f67j60.asm
                     IPR2   0x000fa2       data     extern E:\3.46\pic18-lt\cxx-framework\src\traditional\proc\p18f67j60.asm
                 IPR2bits   0x000fa2       data     extern E:\3.46\pic18-lt\cxx-framework\src\traditional\proc\p18f67j60.asm
                     IPR3   0x000fa5       data     extern E:\3.46\pic18-lt\cxx-framework\src\traditional\proc\p18f67j60.asm
                 IPR3bits   0x000fa5       data     extern E:\3.46\pic18-lt\cxx-framework\src\traditional\proc\p18f67j60.asm
                    IPVal   0x000698       data     static C:\Users\Tim\Desktop\PIC-WEB-5-42-UEXT-full\TCPIP\Demo App\MainDemo.c
              IndexOfPool   0x000c36       data     static C:\Users\Tim\Desktop\PIC-WEB-5-42-UEXT-full\Microchip\TCPIP Stack\DHCPs.c
                     LATA   0x000f89       data     extern E:\3.46\pic18-lt\cxx-framework\src\traditional\proc\p18f67j60.asm
                 LATAbits   0x000f89       data     extern E:\3.46\pic18-lt\cxx-framework\src\traditional\proc\p18f67j60.asm
                     LATB   0x000f8a       data     extern E:\3.46\pic18-lt\cxx-framework\src\traditional\proc\p18f67j60.asm
                 LATBbits   0x000f8a       data     extern E:\3.46\pic18-lt\cxx-framework\src\traditional\proc\p18f67j60.asm
                     LATC   0x000f8b       data     extern E:\3.46\pic18-lt\cxx-framework\src\traditional\proc\p18f67j60.asm
                 LATCbits   0x000f8b       data     extern E:\3.46\pic18-lt\cxx-framework\src\traditional\proc\p18f67j60.asm
                     LATD   0x000f8c       data     extern E:\3.46\pic18-lt\cxx-framework\src\traditional\proc\p18f67j60.asm
                 LATDbits   0x000f8c       data     extern E:\3.46\pic18-lt\cxx-framework\src\traditional\proc\p18f67j60.asm
                     LATE   0x000f8d       data     extern E:\3.46\pic18-lt\cxx-framework\src\traditional\proc\p18f67j60.asm
                 LATEbits   0x000f8d       data     extern E:\3.46\pic18-lt\cxx-framework\src\traditional\proc\p18f67j60.asm
                     LATF   0x000f8e       data     extern E:\3.46\pic18-lt\cxx-framework\src\traditional\proc\p18f67j60.asm
                 LATFbits   0x000f8e       data     extern E:\3.46\pic18-lt\cxx-framework\src\traditional\proc\p18f67j60.asm
                     LATG   0x000f8f       data     extern E:\3.46\pic18-lt\cxx-framework\src\traditional\proc\p18f67j60.asm
                 LATGbits   0x000f8f       data     extern E:\3.46\pic18-lt\cxx-framework\src\traditional\proc\p18f67j60.asm
            LastPutSocket   0x000b27       data     static C:\Users\Tim\Desktop\PIC-WEB-5-42-UEXT-full\Microchip\TCPIP Stack\UDP.c
                      Len   0x000f47       data     static C:\Users\Tim\Desktop\PIC-WEB-5-42-UEXT-full\Microchip\TCPIP Stack\SMTP.c
                      Len   0x000c36       data     static C:\Users\Tim\Desktop\PIC-WEB-5-42-UEXT-full\Microchip\TCPIP Stack\DHCPs.c
                      Len   0x000f42       data     static C:\Users\Tim\Desktop\PIC-WEB-5-42-UEXT-full\Microchip\TCPIP Stack\SMTP.c
                      Len   0x000c02       data     static C:\Users\Tim\Desktop\PIC-WEB-5-42-UEXT-full\Microchip\TCPIP Stack\DHCPs.c
                      Len   0x000c51       data     static C:\Users\Tim\Desktop\PIC-WEB-5-42-UEXT-full\Microchip\TCPIP Stack\DNS.c
                      Len   0x000c50       data     static C:\Users\Tim\Desktop\PIC-WEB-5-42-UEXT-full\Microchip\TCPIP Stack\DNS.c
                   MAADR1   0x000e84       data     extern E:\3.46\pic18-lt\cxx-framework\src\traditional\proc\p18f67j60.asm
                   MAADR2   0x000e85       data     extern E:\3.46\pic18-lt\cxx-framework\src\traditional\proc\p18f67j60.asm
                   MAADR3   0x000e82       data     extern E:\3.46\pic18-lt\cxx-framework\src\traditional\proc\p18f67j60.asm
                   MAADR4   0x000e83       data     extern E:\3.46\pic18-lt\cxx-framework\src\traditional\proc\p18f67j60.asm
                   MAADR5   0x000e80       data     extern E:\3.46\pic18-lt\cxx-framework\src\traditional\proc\p18f67j60.asm
                   MAADR6   0x000e81       data     extern E:\3.46\pic18-lt\cxx-framework\src\traditional\proc\p18f67j60.asm
                  MABBIPG   0x000ea4       data     extern E:\3.46\pic18-lt\cxx-framework\src\traditional\proc\p18f67j60.asm
              MABBIPGbits   0x000ea4       data     extern E:\3.46\pic18-lt\cxx-framework\src\traditional\proc\p18f67j60.asm
                  MACAddr   0x0005fb       data     static C:\Users\Tim\Desktop\PIC-WEB-5-42-UEXT-full\Microchip\TCPIP Stack\ARP.c
                   MACON1   0x000ea0       data     extern E:\3.46\pic18-lt\cxx-framework\src\traditional\proc\p18f67j60.asm
               MACON1bits   0x000ea0       data     extern E:\3.46\pic18-lt\cxx-framework\src\traditional\proc\p18f67j60.asm
                   MACON3   0x000ea2       data     extern E:\3.46\pic18-lt\cxx-framework\src\traditional\proc\p18f67j60.asm
               MACON3bits   0x000ea2       data     extern E:\3.46\pic18-lt\cxx-framework\src\traditional\proc\p18f67j60.asm
                   MACON4   0x000ea3       data     extern E:\3.46\pic18-lt\cxx-framework\src\traditional\proc\p18f67j60.asm
               MACON4bits   0x000ea3       data     extern E:\3.46\pic18-lt\cxx-framework\src\traditional\proc\p18f67j60.asm
                    MAIPG   0x000ea6       data     extern E:\3.46\pic18-lt\cxx-framework\src\traditional\proc\p18f67j60.asm
                   MAIPGH   0x000ea7       data     extern E:\3.46\pic18-lt\cxx-framework\src\traditional\proc\p18f67j60.asm
                   MAIPGL   0x000ea6       data     extern E:\3.46\pic18-lt\cxx-framework\src\traditional\proc\p18f67j60.asm
                   MAMXFL   0x000eaa       data     extern E:\3.46\pic18-lt\cxx-framework\src\traditional\proc\p18f67j60.asm
                  MAMXFLH   0x000eab       data     extern E:\3.46\pic18-lt\cxx-framework\src\traditional\proc\p18f67j60.asm
                  MAMXFLL   0x000eaa       data     extern E:\3.46\pic18-lt\cxx-framework\src\traditional\proc\p18f67j60.asm
                    MICMD   0x000eb2       data     extern E:\3.46\pic18-lt\cxx-framework\src\traditional\proc\p18f67j60.asm
                MICMDbits   0x000eb2       data     extern E:\3.46\pic18-lt\cxx-framework\src\traditional\proc\p18f67j60.asm
                     MIRD   0x000eb8       data     extern E:\3.46\pic18-lt\cxx-framework\src\traditional\proc\p18f67j60.asm
                    MIRDH   0x000eb9       data     extern E:\3.46\pic18-lt\cxx-framework\src\traditional\proc\p18f67j60.asm
                    MIRDL   0x000eb8       data     extern E:\3.46\pic18-lt\cxx-framework\src\traditional\proc\p18f67j60.asm
                 MIREGADR   0x000eb4       data     extern E:\3.46\pic18-lt\cxx-framework\src\traditional\proc\p18f67j60.asm
                   MISTAT   0x000e8a       data     extern E:\3.46\pic18-lt\cxx-framework\src\traditional\proc\p18f67j60.asm
               MISTATbits   0x000e8a       data     extern E:\3.46\pic18-lt\cxx-framework\src\traditional\proc\p18f67j60.asm
                     MIWR   0x000eb6       data     extern E:\3.46\pic18-lt\cxx-framework\src\traditional\proc\p18f67j60.asm
                    MIWRH   0x000eb7       data     extern E:\3.46\pic18-lt\cxx-framework\src\traditional\proc\p18f67j60.asm
                    MIWRL   0x000eb6       data     extern E:\3.46\pic18-lt\cxx-framework\src\traditional\proc\p18f67j60.asm
                MPFSStubs   0x000060       data     static C:\Users\Tim\Desktop\PIC-WEB-5-42-UEXT-full\Microchip\TCPIP Stack\MPFS2.c
                  MacAddr   0x0004e8       data     static C:\Users\Tim\Desktop\PIC-WEB-5-42-UEXT-full\Microchip\TCPIP Stack\DHCPs.c
                MailState   0x00074a       data     static C:\Users\Tim\Desktop\PIC-WEB-5-42-UEXT-full\TCPIP\Demo App\SMTPDemo.c
                     MyIP   0x000c01       data     static C:\Users\Tim\Desktop\PIC-WEB-5-42-UEXT-full\Microchip\TCPIP Stack\DHCP.c
                 MySocket   0x000b2a       data     static C:\Users\Tim\Desktop\PIC-WEB-5-42-UEXT-full\Microchip\TCPIP Stack\TCPPerformanceTest.c
                 MySocket   0x0009f1       data     static C:\Users\Tim\Desktop\PIC-WEB-5-42-UEXT-full\Microchip\TCPIP Stack\DHCPs.c
                 MySocket   0x000b29       data     static C:\Users\Tim\Desktop\PIC-WEB-5-42-UEXT-full\Microchip\TCPIP Stack\TCPPerformanceTest.c
                 MySocket   0x0009dc       data     static C:\Users\Tim\Desktop\PIC-WEB-5-42-UEXT-full\Microchip\TCPIP Stack\SNTP.c
                 MySocket   0x0009d3       data     static C:\Users\Tim\Desktop\PIC-WEB-5-42-UEXT-full\Microchip\TCPIP Stack\UART2TCPBridge.c
                 MySocket   0x0006fc       data     static C:\Users\Tim\Desktop\PIC-WEB-5-42-UEXT-full\TCPIP\Demo App\GenericTCPClient.c
                 MySocket   0x0005ff       data     static C:\Users\Tim\Desktop\PIC-WEB-5-42-UEXT-full\TCPIP\Demo App\GenericTCPServer.c
                 MySocket   0x0008fd       data     static C:\Users\Tim\Desktop\PIC-WEB-5-42-UEXT-full\Microchip\TCPIP Stack\SMTP.c
                 MySocket   0x000b36       data     static C:\Users\Tim\Desktop\PIC-WEB-5-42-UEXT-full\Microchip\TCPIP Stack\Reboot.c
                 MySocket   0x000b34       data     static C:\Users\Tim\Desktop\PIC-WEB-5-42-UEXT-full\Microchip\TCPIP Stack\Announce.c
                 MySocket   0x000c02       data     static C:\Users\Tim\Desktop\PIC-WEB-5-42-UEXT-full\Microchip\TCPIP Stack\Announce.c
                 MySocket   0x000b22       data     static C:\Users\Tim\Desktop\PIC-WEB-5-42-UEXT-full\Microchip\TCPIP Stack\DNS.c
                 MySocket   0x0004fb       data     static C:\Users\Tim\Desktop\PIC-WEB-5-42-UEXT-full\Microchip\TCPIP Stack\NBNS.c
                 MySocket   0x000c0a       data     static C:\Users\Tim\Desktop\PIC-WEB-5-42-UEXT-full\Microchip\TCPIP Stack\Telnet.c
                    MyTCB   0x000302       data     static C:\Users\Tim\Desktop\PIC-WEB-5-42-UEXT-full\Microchip\TCPIP Stack\TCP.c
                MyTCBStub   0x000329       data     static C:\Users\Tim\Desktop\PIC-WEB-5-42-UEXT-full\Microchip\TCPIP Stack\TCP.c
               NBNSHeader   0x000c05       data     static C:\Users\Tim\Desktop\PIC-WEB-5-42-UEXT-full\Microchip\TCPIP Stack\NBNS.c
      NVMValidationStruct   0x000c39       data     static C:\Users\Tim\Desktop\PIC-WEB-5-42-UEXT-full\TCPIP\Demo App\MainDemo.c
      NVMValidationStruct   0x000c01       data     static C:\Users\Tim\Desktop\PIC-WEB-5-42-UEXT-full\TCPIP\Demo App\MainDemo.c
                     Name   0x00073d       data     static C:\Users\Tim\Desktop\PIC-WEB-5-42-UEXT-full\Microchip\TCPIP Stack\Helpers.c
               NameString   0x000c11       data     static C:\Users\Tim\Desktop\PIC-WEB-5-42-UEXT-full\Microchip\TCPIP Stack\NBNS.c
            Negative_Flag   0x000c4c       data     static C:\Users\Tim\Desktop\PIC-WEB-5-42-UEXT-full\TCPIP\Demo App\Olimex_Demo_Files\Misc_Functions.c
              NewBaudRate   0x000c1e       data     static C:\Users\Tim\Desktop\PIC-WEB-5-42-UEXT-full\TCPIP\Demo App\CustomHTTPApp.c
                  NewLine   0x000c24       data     static C:\Users\Tim\Desktop\PIC-WEB-5-42-UEXT-full\TCPIP\Demo App\CustomHTTPApp.c
          NewRXRDLocation   0x000c4d       data     static C:\Users\Tim\Desktop\PIC-WEB-5-42-UEXT-full\Microchip\TCPIP Stack\ETH97J60.c
       NextPacketLocation   0x0008af       data     static C:\Users\Tim\Desktop\PIC-WEB-5-42-UEXT-full\Microchip\TCPIP Stack\ETH97J60.c
                 NextPort   0x000300       data     static C:\Users\Tim\Desktop\PIC-WEB-5-42-UEXT-full\Microchip\TCPIP Stack\TCP.c
                 NextPort   0x0002cb       data     static C:\Users\Tim\Desktop\PIC-WEB-5-42-UEXT-full\Microchip\TCPIP Stack\UDP.c
                   OSCCON   0x000fd3       data     extern E:\3.46\pic18-lt\cxx-framework\src\traditional\proc\p18f67j60.asm
               OSCCONbits   0x000fd3       data     extern E:\3.46\pic18-lt\cxx-framework\src\traditional\proc\p18f67j60.asm
                  OSCTUNE   0x000f9b       data     extern E:\3.46\pic18-lt\cxx-framework\src\traditional\proc\p18f67j60.asm
              OSCTUNEbits   0x000f9b       data     extern E:\3.46\pic18-lt\cxx-framework\src\traditional\proc\p18f67j60.asm
                   Offset   0x000986       data     static C:\Users\Tim\Desktop\PIC-WEB-5-42-UEXT-full\Microchip\TCPIP Stack\IP.c
              Old_OSCTUNE   0x000c34       data     static C:\Users\Tim\Desktop\PIC-WEB-5-42-UEXT-full\TCPIP\Demo App\CustomHTTPApp.c
                   Option   0x000c01       data     static C:\Users\Tim\Desktop\PIC-WEB-5-42-UEXT-full\Microchip\TCPIP Stack\DHCPs.c
                   Option   0x000c35       data     static C:\Users\Tim\Desktop\PIC-WEB-5-42-UEXT-full\Microchip\TCPIP Stack\DHCPs.c
                       PC   0x000ff9       data     extern E:\3.46\pic18-lt\cxx-framework\src\traditional\proc\p18f67j60.asm
                      PCL   0x000ff9       data     extern E:\3.46\pic18-lt\cxx-framework\src\traditional\proc\p18f67j60.asm
                   PCLATH   0x000ffa       data     extern E:\3.46\pic18-lt\cxx-framework\src\traditional\proc\p18f67j60.asm
                   PCLATU   0x000ffb       data     extern E:\3.46\pic18-lt\cxx-framework\src\traditional\proc\p18f67j60.asm
                     PIE1   0x000f9d       data     extern E:\3.46\pic18-lt\cxx-framework\src\traditional\proc\p18f67j60.asm
                 PIE1bits   0x000f9d       data     extern E:\3.46\pic18-lt\cxx-framework\src\traditional\proc\p18f67j60.asm
                     PIE2   0x000fa0       data     extern E:\3.46\pic18-lt\cxx-framework\src\traditional\proc\p18f67j60.asm
                 PIE2bits   0x000fa0       data     extern E:\3.46\pic18-lt\cxx-framework\src\traditional\proc\p18f67j60.asm
                     PIE3   0x000fa3       data     extern E:\3.46\pic18-lt\cxx-framework\src\traditional\proc\p18f67j60.asm
                 PIE3bits   0x000fa3       data     extern E:\3.46\pic18-lt\cxx-framework\src\traditional\proc\p18f67j60.asm
                     PIR1   0x000f9e       data     extern E:\3.46\pic18-lt\cxx-framework\src\traditional\proc\p18f67j60.asm
                 PIR1bits   0x000f9e       data     extern E:\3.46\pic18-lt\cxx-framework\src\traditional\proc\p18f67j60.asm
                     PIR2   0x000fa1       data     extern E:\3.46\pic18-lt\cxx-framework\src\traditional\proc\p18f67j60.asm
                 PIR2bits   0x000fa1       data     extern E:\3.46\pic18-lt\cxx-framework\src\traditional\proc\p18f67j60.asm
                     PIR3   0x000fa4       data     extern E:\3.46\pic18-lt\cxx-framework\src\traditional\proc\p18f67j60.asm
                 PIR3bits   0x000fa4       data     extern E:\3.46\pic18-lt\cxx-framework\src\traditional\proc\p18f67j60.asm
                   PLUSW0   0x000feb       data     extern E:\3.46\pic18-lt\cxx-framework\src\traditional\proc\p18f67j60.asm
                   PLUSW1   0x000fe3       data     extern E:\3.46\pic18-lt\cxx-framework\src\traditional\proc\p18f67j60.asm
                   PLUSW2   0x000fdb       data     extern E:\3.46\pic18-lt\cxx-framework\src\traditional\proc\p18f67j60.asm
                    PORTA   0x000f80       data     extern E:\3.46\pic18-lt\cxx-framework\src\traditional\proc\p18f67j60.asm
                PORTAbits   0x000f80       data     extern E:\3.46\pic18-lt\cxx-framework\src\traditional\proc\p18f67j60.asm
                    PORTB   0x000f81       data     extern E:\3.46\pic18-lt\cxx-framework\src\traditional\proc\p18f67j60.asm
                PORTBbits   0x000f81       data     extern E:\3.46\pic18-lt\cxx-framework\src\traditional\proc\p18f67j60.asm
                    PORTC   0x000f82       data     extern E:\3.46\pic18-lt\cxx-framework\src\traditional\proc\p18f67j60.asm
                PORTCbits   0x000f82       data     extern E:\3.46\pic18-lt\cxx-framework\src\traditional\proc\p18f67j60.asm
                    PORTD   0x000f83       data     extern E:\3.46\pic18-lt\cxx-framework\src\traditional\proc\p18f67j60.asm
                PORTDbits   0x000f83       data     extern E:\3.46\pic18-lt\cxx-framework\src\traditional\proc\p18f67j60.asm
                    PORTE   0x000f84       data     extern E:\3.46\pic18-lt\cxx-framework\src\traditional\proc\p18f67j60.asm
                PORTEbits   0x000f84       data     extern E:\3.46\pic18-lt\cxx-framework\src\traditional\proc\p18f67j60.asm
                    PORTF   0x000f85       data     extern E:\3.46\pic18-lt\cxx-framework\src\traditional\proc\p18f67j60.asm
                PORTFbits   0x000f85       data     extern E:\3.46\pic18-lt\cxx-framework\src\traditional\proc\p18f67j60.asm
                    PORTG   0x000f86       data     extern E:\3.46\pic18-lt\cxx-framework\src\traditional\proc\p18f67j60.asm
                PORTGbits   0x000f86       data     extern E:\3.46\pic18-lt\cxx-framework\src\traditional\proc\p18f67j60.asm
                 POSTDEC0   0x000fed       data     extern E:\3.46\pic18-lt\cxx-framework\src\traditional\proc\p18f67j60.asm
                 POSTDEC1   0x000fe5       data     extern E:\3.46\pic18-lt\cxx-framework\src\traditional\proc\p18f67j60.asm
                 POSTDEC2   0x000fdd       data     extern E:\3.46\pic18-lt\cxx-framework\src\traditional\proc\p18f67j60.asm
                 POSTINC0   0x000fee       data     extern E:\3.46\pic18-lt\cxx-framework\src\traditional\proc\p18f67j60.asm
                 POSTINC1   0x000fe6       data     extern E:\3.46\pic18-lt\cxx-framework\src\traditional\proc\p18f67j60.asm
                 POSTINC2   0x000fde       data     extern E:\3.46\pic18-lt\cxx-framework\src\traditional\proc\p18f67j60.asm
                      PR2   0x000fcb       data     extern E:\3.46\pic18-lt\cxx-framework\src\traditional\proc\p18f67j60.asm
                      PR4   0x000f77       data     extern E:\3.46\pic18-lt\cxx-framework\src\traditional\proc\p18f67j60.asm
                  PREINC0   0x000fec       data     extern E:\3.46\pic18-lt\cxx-framework\src\traditional\proc\p18f67j60.asm
                  PREINC1   0x000fe4       data     extern E:\3.46\pic18-lt\cxx-framework\src\traditional\proc\p18f67j60.asm
                  PREINC2   0x000fdc       data     extern E:\3.46\pic18-lt\cxx-framework\src\traditional\proc\p18f67j60.asm
                     PROD   0x000ff3       data     extern E:\3.46\pic18-lt\cxx-framework\src\traditional\proc\p18f67j60.asm
                    PRODH   0x000ff4       data     extern E:\3.46\pic18-lt\cxx-framework\src\traditional\proc\p18f67j60.asm
                    PRODL   0x000ff3       data     extern E:\3.46\pic18-lt\cxx-framework\src\traditional\proc\p18f67j60.asm
              ParseStates   0x000c03       data     static C:\Users\Tim\Desktop\PIC-WEB-5-42-UEXT-full\Microchip\TCPIP Stack\SMTP.c
              ParseStates   0x000c04       data     static C:\Users\Tim\Desktop\PIC-WEB-5-42-UEXT-full\Microchip\TCPIP Stack\SMTP.c
                PingState   0x000b37       data     static C:\Users\Tim\Desktop\PIC-WEB-5-42-UEXT-full\TCPIP\Demo App\PingDemo.c
                  Printed   0x000c1a       data     static C:\Users\Tim\Desktop\PIC-WEB-5-42-UEXT-full\Microchip\TCPIP Stack\Helpers.c
          PutHeadersState   0x000f29       data     static C:\Users\Tim\Desktop\PIC-WEB-5-42-UEXT-full\Microchip\TCPIP Stack\SMTP.c
                RAMStrPtr   0x000f3b       data     static C:\Users\Tim\Desktop\PIC-WEB-5-42-UEXT-full\Microchip\TCPIP Stack\SMTP.c
            RAMStringBody   0x00075f       data     static C:\Users\Tim\Desktop\PIC-WEB-5-42-UEXT-full\TCPIP\Demo App\SMTPDemo.c
              RAMStringTo   0x00074b       data     static C:\Users\Tim\Desktop\PIC-WEB-5-42-UEXT-full\TCPIP\Demo App\SMTPDemo.c
                  RCIndex   0x0009de       data     extern C:\Users\Tim\Desktop\PIC-WEB-5-42-UEXT-full\TCPIP\Demo App\MainDemo.c
                     RCON   0x000fd0       data     extern E:\3.46\pic18-lt\cxx-framework\src\traditional\proc\p18f67j60.asm
                 RCONbits   0x000fd0       data     extern E:\3.46\pic18-lt\cxx-framework\src\traditional\proc\p18f67j60.asm
                    RCREG   0x000fae       data     extern E:\3.46\pic18-lt\cxx-framework\src\traditional\proc\p18f67j60.asm
                   RCREG1   0x000fae       data     extern E:\3.46\pic18-lt\cxx-framework\src\traditional\proc\p18f67j60.asm
                    RCSTA   0x000fab       data     extern E:\3.46\pic18-lt\cxx-framework\src\traditional\proc\p18f67j60.asm
                   RCSTA1   0x000fab       data     extern E:\3.46\pic18-lt\cxx-framework\src\traditional\proc\p18f67j60.asm
               RCSTA1bits   0x000fab       data     extern E:\3.46\pic18-lt\cxx-framework\src\traditional\proc\p18f67j60.asm
                RCSTAbits   0x000fab       data     extern E:\3.46\pic18-lt\cxx-framework\src\traditional\proc\p18f67j60.asm
                   RDSave   0x000c18       data     static C:\Users\Tim\Desktop\PIC-WEB-5-42-UEXT-full\Microchip\TCPIP Stack\ETH97J60.c
                ROMStrPtr   0x000f35       data     static C:\Users\Tim\Desktop\PIC-WEB-5-42-UEXT-full\Microchip\TCPIP Stack\SMTP.c
               ROMStrPtr2   0x000f38       data     static C:\Users\Tim\Desktop\PIC-WEB-5-42-UEXT-full\Microchip\TCPIP Stack\SMTP.c
                 RXBuffer   0x000f31       data     static C:\Users\Tim\Desktop\PIC-WEB-5-42-UEXT-full\Microchip\TCPIP Stack\SMTP.c
                RXHeadPtr   0x0009ca       data     static C:\Users\Tim\Desktop\PIC-WEB-5-42-UEXT-full\Microchip\TCPIP Stack\UART2TCPBridge.c
          RXHeadPtrShadow   0x000c06       data     static C:\Users\Tim\Desktop\PIC-WEB-5-42-UEXT-full\Microchip\TCPIP Stack\UART2TCPBridge.c
            RXParserState   0x000f2a       data     static C:\Users\Tim\Desktop\PIC-WEB-5-42-UEXT-full\Microchip\TCPIP Stack\SMTP.c
                RXTailPtr   0x0009cc       data     static C:\Users\Tim\Desktop\PIC-WEB-5-42-UEXT-full\Microchip\TCPIP Stack\UART2TCPBridge.c
          RXTailPtrShadow   0x000c08       data     static C:\Users\Tim\Desktop\PIC-WEB-5-42-UEXT-full\Microchip\TCPIP Stack\UART2TCPBridge.c
                   ReadPT   0x000caa       data     static C:\Users\Tim\Desktop\PIC-WEB-5-42-UEXT-full\Microchip\TCPIP Stack\ETH97J60.c
                   ReadPT   0x000c4d       data     static C:\Users\Tim\Desktop\PIC-WEB-5-42-UEXT-full\Microchip\TCPIP Stack\ETH97J60.c
                 ReadSave   0x000caa       data     static C:\Users\Tim\Desktop\PIC-WEB-5-42-UEXT-full\Microchip\TCPIP Stack\ETH97J60.c
               RecordType   0x0007dd       data     static C:\Users\Tim\Desktop\PIC-WEB-5-42-UEXT-full\Microchip\TCPIP Stack\DNS.c
                 Register   0x0008df       data     static C:\Users\Tim\Desktop\PIC-WEB-5-42-UEXT-full\Microchip\TCPIP Stack\ETH97J60.c
                 Register   0x0008e0       data     static C:\Users\Tim\Desktop\PIC-WEB-5-42-UEXT-full\Microchip\TCPIP Stack\ETH97J60.c
               RemoteInfo   0x000353       data     static C:\Users\Tim\Desktop\PIC-WEB-5-42-UEXT-full\Microchip\TCPIP Stack\TCP.c
             ResolvedInfo   0x0007de       data     static C:\Users\Tim\Desktop\PIC-WEB-5-42-UEXT-full\Microchip\TCPIP Stack\DNS.c
             ResponseCode   0x000f2b       data     static C:\Users\Tim\Desktop\PIC-WEB-5-42-UEXT-full\Microchip\TCPIP Stack\SMTP.c
                   Result   0x000c00       data     static C:\Users\Tim\Desktop\PIC-WEB-5-42-UEXT-full\Microchip\TCPIP Stack\ETH97J60.c
                 RightLen   0x000c46       data     static C:\Users\Tim\Desktop\PIC-WEB-5-42-UEXT-full\Microchip\TCPIP Stack\TCP.c
                 RightPtr   0x000c4d       data     static C:\Users\Tim\Desktop\PIC-WEB-5-42-UEXT-full\Microchip\TCPIP Stack\DNS.c
                 RightPtr   0x000c4d       data     static C:\Users\Tim\Desktop\PIC-WEB-5-42-UEXT-full\Microchip\TCPIP Stack\DNS.c
                     SIGN   0x000020       data     extern E:\3.46\pic18-lt\cxx-framework\src\traditional\math\cmath18.asm
               SMTPClient   0x000f00       data     extern C:\Users\Tim\Desktop\PIC-WEB-5-42-UEXT-full\Microchip\TCPIP Stack\SMTP.c
                SMTPFlags   0x0008ff       data     static C:\Users\Tim\Desktop\PIC-WEB-5-42-UEXT-full\Microchip\TCPIP Stack\SMTP.c
               SMTPServer   0x000f22       data     static C:\Users\Tim\Desktop\PIC-WEB-5-42-UEXT-full\Microchip\TCPIP Stack\SMTP.c
                SMTPState   0x000f28       data     static C:\Users\Tim\Desktop\PIC-WEB-5-42-UEXT-full\Microchip\TCPIP Stack\SMTP.c
                SNTPState   0x0009dd       data     static C:\Users\Tim\Desktop\PIC-WEB-5-42-UEXT-full\Microchip\TCPIP Stack\SNTP.c
                SNTPState   0x0009f0       data     static C:\Users\Tim\Desktop\PIC-WEB-5-42-UEXT-full\TCPIP\Demo App\BerkeleyUDPClientDemo.c
                    SPBRG   0x000faf       data     extern E:\3.46\pic18-lt\cxx-framework\src\traditional\proc\p18f67j60.asm
                   SPBRG1   0x000faf       data     extern E:\3.46\pic18-lt\cxx-framework\src\traditional\proc\p18f67j60.asm
                   SPBRGH   0x000f7f       data     extern E:\3.46\pic18-lt\cxx-framework\src\traditional\proc\p18f67j60.asm
                  SPBRGH1   0x000f7f       data     extern E:\3.46\pic18-lt\cxx-framework\src\traditional\proc\p18f67j60.asm
               SPI_String   0x0008ef       data     extern C:\Users\Tim\Desktop\PIC-WEB-5-42-UEXT-full\TCPIP\Demo App\CustomHTTPApp.c
                  SSP1ADD   0x000fc8       data     extern E:\3.46\pic18-lt\cxx-framework\src\traditional\proc\p18f67j60.asm
                  SSP1BUF   0x000fc9       data     extern E:\3.46\pic18-lt\cxx-framework\src\traditional\proc\p18f67j60.asm
                 SSP1CON1   0x000fc6       data     extern E:\3.46\pic18-lt\cxx-framework\src\traditional\proc\p18f67j60.asm
             SSP1CON1bits   0x000fc6       data     extern E:\3.46\pic18-lt\cxx-framework\src\traditional\proc\p18f67j60.asm
                 SSP1CON2   0x000fc5       data     extern E:\3.46\pic18-lt\cxx-framework\src\traditional\proc\p18f67j60.asm
             SSP1CON2bits   0x000fc5       data     extern E:\3.46\pic18-lt\cxx-framework\src\traditional\proc\p18f67j60.asm
                 SSP1STAT   0x000fc7       data     extern E:\3.46\pic18-lt\cxx-framework\src\traditional\proc\p18f67j60.asm
             SSP1STATbits   0x000fc7       data     extern E:\3.46\pic18-lt\cxx-framework\src\traditional\proc\p18f67j60.asm
                   SSPADD   0x000fc8       data     extern E:\3.46\pic18-lt\cxx-framework\src\traditional\proc\p18f67j60.asm
                   SSPBUF   0x000fc9       data     extern E:\3.46\pic18-lt\cxx-framework\src\traditional\proc\p18f67j60.asm
                  SSPCON1   0x000fc6       data     extern E:\3.46\pic18-lt\cxx-framework\src\traditional\proc\p18f67j60.asm
              SSPCON1bits   0x000fc6       data     extern E:\3.46\pic18-lt\cxx-framework\src\traditional\proc\p18f67j60.asm
                  SSPCON2   0x000fc5       data     extern E:\3.46\pic18-lt\cxx-framework\src\traditional\proc\p18f67j60.asm
              SSPCON2bits   0x000fc5       data     extern E:\3.46\pic18-lt\cxx-framework\src\traditional\proc\p18f67j60.asm
                  SSPSTAT   0x000fc7       data     extern E:\3.46\pic18-lt\cxx-framework\src\traditional\proc\p18f67j60.asm
              SSPSTATbits   0x000fc7       data     extern E:\3.46\pic18-lt\cxx-framework\src\traditional\proc\p18f67j60.asm
                   STATUS   0x000fd8       data     extern E:\3.46\pic18-lt\cxx-framework\src\traditional\proc\p18f67j60.asm
               STATUSbits   0x000fd8       data     extern E:\3.46\pic18-lt\cxx-framework\src\traditional\proc\p18f67j60.asm
                   STKPTR   0x000ffc       data     extern E:\3.46\pic18-lt\cxx-framework\src\traditional\proc\p18f67j60.asm
               STKPTRbits   0x000ffc       data     extern E:\3.46\pic18-lt\cxx-framework\src\traditional\proc\p18f67j60.asm
                 SYNQueue   0x000800       data     static C:\Users\Tim\Desktop\PIC-WEB-5-42-UEXT-full\Microchip\TCPIP Stack\TCP.c
        SentTransactionID   0x0007f5       data     static C:\Users\Tim\Desktop\PIC-WEB-5-42-UEXT-full\Microchip\TCPIP Stack\DNS.c
               ServerName   0x0006eb       data     static C:\Users\Tim\Desktop\PIC-WEB-5-42-UEXT-full\TCPIP\Demo App\GenericTCPClient.c
               ServerPort   0x0006fa       data     static C:\Users\Tim\Desktop\PIC-WEB-5-42-UEXT-full\TCPIP\Demo App\GenericTCPClient.c
                     Size   0x0009fd       data     static C:\Users\Tim\Desktop\PIC-WEB-5-42-UEXT-full\TCPIP\Demo App\Olimex_Demo_Files\Misc_Functions.c
         SocketWithRxData   0x000b28       data     static C:\Users\Tim\Desktop\PIC-WEB-5-42-UEXT-full\Microchip\TCPIP Stack\UDP.c
                   Source   0x0009f9       data     static C:\Users\Tim\Desktop\PIC-WEB-5-42-UEXT-full\TCPIP\Demo App\Olimex_Demo_Files\Misc_Functions.c
              SourceIndex   0x000c44       data     static C:\Users\Tim\Desktop\PIC-WEB-5-42-UEXT-full\TCPIP\Demo App\Olimex_Demo_Files\Misc_Functions.c
                SrcIPAddr   0x0005e2       data     static C:\Users\Tim\Desktop\PIC-WEB-5-42-UEXT-full\Microchip\TCPIP Stack\ARP.c
                    Start   0x000caa       data     static C:\Users\Tim\Desktop\PIC-WEB-5-42-UEXT-full\Microchip\TCPIP Stack\ETH97J60.c
                StartTime   0x0007f1       data     static C:\Users\Tim\Desktop\PIC-WEB-5-42-UEXT-full\Microchip\TCPIP Stack\DNS.c
                StartTime   0x000cf5       data     static C:\Users\Tim\Desktop\PIC-WEB-5-42-UEXT-full\TCPIP\Demo App\MainDemo.c
               StaticVars   0x000947       data     static C:\Users\Tim\Desktop\PIC-WEB-5-42-UEXT-full\Microchip\TCPIP Stack\ICMP.c
                      Str   0x0009fe       data     static C:\Users\Tim\Desktop\PIC-WEB-5-42-UEXT-full\TCPIP\Demo App\Olimex_Demo_Files\Misc_Functions.c
                   String   0x0007f9       data     static C:\Users\Tim\Desktop\PIC-WEB-5-42-UEXT-full\Microchip\TCPIP Stack\DNS.c
                   String   0x0007fb       data     static C:\Users\Tim\Desktop\PIC-WEB-5-42-UEXT-full\Microchip\TCPIP Stack\DNS.c
                   String   0x0004fc       data     static C:\Users\Tim\Desktop\PIC-WEB-5-42-UEXT-full\Microchip\TCPIP Stack\NBNS.c
                   String   0x0004fe       data     static C:\Users\Tim\Desktop\PIC-WEB-5-42-UEXT-full\Microchip\TCPIP Stack\NBNS.c
                   System   0x000c4e       data     static C:\Users\Tim\Desktop\PIC-WEB-5-42-UEXT-full\TCPIP\Demo App\Olimex_Demo_Files\Misc_Functions.c
                    T0CON   0x000fd5       data     extern E:\3.46\pic18-lt\cxx-framework\src\traditional\proc\p18f67j60.asm
                T0CONSave   0x000c11       data     static C:\Users\Tim\Desktop\PIC-WEB-5-42-UEXT-full\Microchip\TCPIP Stack\Helpers.c
                T0CONbits   0x000fd5       data     extern E:\3.46\pic18-lt\cxx-framework\src\traditional\proc\p18f67j60.asm
                    T1CON   0x000fcd       data     extern E:\3.46\pic18-lt\cxx-framework\src\traditional\proc\p18f67j60.asm
                T1CONbits   0x000fcd       data     extern E:\3.46\pic18-lt\cxx-framework\src\traditional\proc\p18f67j60.asm
                    T2CON   0x000fca       data     extern E:\3.46\pic18-lt\cxx-framework\src\traditional\proc\p18f67j60.asm
                T2CONbits   0x000fca       data     extern E:\3.46\pic18-lt\cxx-framework\src\traditional\proc\p18f67j60.asm
                    T3CON   0x000fb1       data     extern E:\3.46\pic18-lt\cxx-framework\src\traditional\proc\p18f67j60.asm
                T3CONbits   0x000fb1       data     extern E:\3.46\pic18-lt\cxx-framework\src\traditional\proc\p18f67j60.asm
                    T4CON   0x000f76       data     extern E:\3.46\pic18-lt\cxx-framework\src\traditional\proc\p18f67j60.asm
                T4CONbits   0x000f76       data     extern E:\3.46\pic18-lt\cxx-framework\src\traditional\proc\p18f67j60.asm
                   TABLAT   0x000ff5       data     extern E:\3.46\pic18-lt\cxx-framework\src\traditional\proc\p18f67j60.asm
                   TBLPTR   0x000ff6       data     extern E:\3.46\pic18-lt\cxx-framework\src\traditional\proc\p18f67j60.asm
                  TBLPTRH   0x000ff7       data     extern E:\3.46\pic18-lt\cxx-framework\src\traditional\proc\p18f67j60.asm
                  TBLPTRL   0x000ff6       data     extern E:\3.46\pic18-lt\cxx-framework\src\traditional\proc\p18f67j60.asm
                  TBLPTRU   0x000ff8       data     extern E:\3.46\pic18-lt\cxx-framework\src\traditional\proc\p18f67j60.asm
                 TCBStubs   0x000100       data     static C:\Users\Tim\Desktop\PIC-WEB-5-42-UEXT-full\Microchip\TCPIP Stack\TCP.c
                  TCIndex   0x0009df       data     extern C:\Users\Tim\Desktop\PIC-WEB-5-42-UEXT-full\TCPIP\Demo App\MainDemo.c
                TCPHeader   0x000c00       data     static C:\Users\Tim\Desktop\PIC-WEB-5-42-UEXT-full\Microchip\TCPIP Stack\TCP.c
           TCPServerState   0x000b3a       data     static C:\Users\Tim\Desktop\PIC-WEB-5-42-UEXT-full\TCPIP\Demo App\GenericTCPServer.c
                  TCerror   0x000c2b       data     static C:\Users\Tim\Desktop\PIC-WEB-5-42-UEXT-full\Microchip\TCPIP Stack\Telnet.c
                    TMR0H   0x000fd7       data     extern E:\3.46\pic18-lt\cxx-framework\src\traditional\proc\p18f67j60.asm
                TMR0HSave   0x000c12       data     static C:\Users\Tim\Desktop\PIC-WEB-5-42-UEXT-full\Microchip\TCPIP Stack\Helpers.c
                    TMR0L   0x000fd6       data     extern E:\3.46\pic18-lt\cxx-framework\src\traditional\proc\p18f67j60.asm
                TMR0LSave   0x000c13       data     static C:\Users\Tim\Desktop\PIC-WEB-5-42-UEXT-full\Microchip\TCPIP Stack\Helpers.c
                    TMR1H   0x000fcf       data     extern E:\3.46\pic18-lt\cxx-framework\src\traditional\proc\p18f67j60.asm
                    TMR1L   0x000fce       data     extern E:\3.46\pic18-lt\cxx-framework\src\traditional\proc\p18f67j60.asm
                     TMR2   0x000fcc       data     extern E:\3.46\pic18-lt\cxx-framework\src\traditional\proc\p18f67j60.asm
                    TMR3H   0x000fb3       data     extern E:\3.46\pic18-lt\cxx-framework\src\traditional\proc\p18f67j60.asm
                    TMR3L   0x000fb2       data     extern E:\3.46\pic18-lt\cxx-framework\src\traditional\proc\p18f67j60.asm
                     TMR4   0x000f78       data     extern E:\3.46\pic18-lt\cxx-framework\src\traditional\proc\p18f67j60.asm
                      TOS   0x000ffd       data     extern E:\3.46\pic18-lt\cxx-framework\src\traditional\proc\p18f67j60.asm
                     TOSH   0x000ffe       data     extern E:\3.46\pic18-lt\cxx-framework\src\traditional\proc\p18f67j60.asm
                     TOSL   0x000ffd       data     extern E:\3.46\pic18-lt\cxx-framework\src\traditional\proc\p18f67j60.asm
                     TOSU   0x000fff       data     extern E:\3.46\pic18-lt\cxx-framework\src\traditional\proc\p18f67j60.asm
                    TRISA   0x000f92       data     extern E:\3.46\pic18-lt\cxx-framework\src\traditional\proc\p18f67j60.asm
                TRISAbits   0x000f92       data     extern E:\3.46\pic18-lt\cxx-framework\src\traditional\proc\p18f67j60.asm
                    TRISB   0x000f93       data     extern E:\3.46\pic18-lt\cxx-framework\src\traditional\proc\p18f67j60.asm
                TRISBbits   0x000f93       data     extern E:\3.46\pic18-lt\cxx-framework\src\traditional\proc\p18f67j60.asm
                    TRISC   0x000f94       data     extern E:\3.46\pic18-lt\cxx-framework\src\traditional\proc\p18f67j60.asm
                TRISCbits   0x000f94       data     extern E:\3.46\pic18-lt\cxx-framework\src\traditional\proc\p18f67j60.asm
                    TRISD   0x000f95       data     extern E:\3.46\pic18-lt\cxx-framework\src\traditional\proc\p18f67j60.asm
                TRISDbits   0x000f95       data     extern E:\3.46\pic18-lt\cxx-framework\src\traditional\proc\p18f67j60.asm
                    TRISE   0x000f96       data     extern E:\3.46\pic18-lt\cxx-framework\src\traditional\proc\p18f67j60.asm
                TRISEbits   0x000f96       data     extern E:\3.46\pic18-lt\cxx-framework\src\traditional\proc\p18f67j60.asm
                    TRISF   0x000f97       data     extern E:\3.46\pic18-lt\cxx-framework\src\traditional\proc\p18f67j60.asm
                TRISFbits   0x000f97       data     extern E:\3.46\pic18-lt\cxx-framework\src\traditional\proc\p18f67j60.asm
                    TRISG   0x000f98       data     extern E:\3.46\pic18-lt\cxx-framework\src\traditional\proc\p18f67j60.asm
                TRISGbits   0x000f98       data     extern E:\3.46\pic18-lt\cxx-framework\src\traditional\proc\p18f67j60.asm
                TXHeadPtr   0x0009ce       data     static C:\Users\Tim\Desktop\PIC-WEB-5-42-UEXT-full\Microchip\TCPIP Stack\UART2TCPBridge.c
          TXHeadPtrShadow   0x000c0a       data     static C:\Users\Tim\Desktop\PIC-WEB-5-42-UEXT-full\Microchip\TCPIP Stack\UART2TCPBridge.c
                    TXREG   0x000fad       data     extern E:\3.46\pic18-lt\cxx-framework\src\traditional\proc\p18f67j60.asm
                   TXREG1   0x000fad       data     extern E:\3.46\pic18-lt\cxx-framework\src\traditional\proc\p18f67j60.asm
                    TXSTA   0x000fac       data     extern E:\3.46\pic18-lt\cxx-framework\src\traditional\proc\p18f67j60.asm
                   TXSTA1   0x000fac       data     extern E:\3.46\pic18-lt\cxx-framework\src\traditional\proc\p18f67j60.asm
               TXSTA1bits   0x000fac       data     extern E:\3.46\pic18-lt\cxx-framework\src\traditional\proc\p18f67j60.asm
                TXSTAbits   0x000fac       data     extern E:\3.46\pic18-lt\cxx-framework\src\traditional\proc\p18f67j60.asm
                TXTailPtr   0x0009d0       data     static C:\Users\Tim\Desktop\PIC-WEB-5-42-UEXT-full\Microchip\TCPIP Stack\UART2TCPBridge.c
          TXTailPtrShadow   0x000c0c       data     static C:\Users\Tim\Desktop\PIC-WEB-5-42-UEXT-full\Microchip\TCPIP Stack\UART2TCPBridge.c
                   Target   0x0005ed       data     static C:\Users\Tim\Desktop\PIC-WEB-5-42-UEXT-full\Microchip\TCPIP Stack\ARP.c
              TelnetState   0x000c38       data     static C:\Users\Tim\Desktop\PIC-WEB-5-42-UEXT-full\Microchip\TCPIP Stack\Telnet.c
                     Temp   0x000c37       data     static C:\Users\Tim\Desktop\PIC-WEB-5-42-UEXT-full\TCPIP\Demo App\CustomHTTPApp.c
                     Temp   0x000c1c       data     static C:\Users\Tim\Desktop\PIC-WEB-5-42-UEXT-full\TCPIP\Demo App\CustomHTTPApp.c
                     Temp   0x000c16       data     static C:\Users\Tim\Desktop\PIC-WEB-5-42-UEXT-full\TCPIP\Demo App\CustomHTTPApp.c
                     Temp   0x000c44       data     static C:\Users\Tim\Desktop\PIC-WEB-5-42-UEXT-full\TCPIP\Demo App\Olimex_Demo_Files\Misc_Functions.c
                     Temp   0x000c27       data     static C:\Users\Tim\Desktop\PIC-WEB-5-42-UEXT-full\TCPIP\Demo App\CustomHTTPApp.c
               TempString   0x000c00       data     static C:\Users\Tim\Desktop\PIC-WEB-5-42-UEXT-full\TCPIP\Demo App\CustomHTTPApp.c
                  TempVar   0x000c44       data     static C:\Users\Tim\Desktop\PIC-WEB-5-42-UEXT-full\TCPIP\Demo App\Olimex_Demo_Files\Custom_SPI_Low.c
                  TempVar   0x000c44       data     static C:\Users\Tim\Desktop\PIC-WEB-5-42-UEXT-full\TCPIP\Demo App\Olimex_Demo_Files\Custom_SPI_Low.c
                    Timer   0x000b0e       data     static C:\Users\Tim\Desktop\PIC-WEB-5-42-UEXT-full\TCPIP\Demo App\PingDemo.c
                    Timer   0x000f2d       data     static C:\Users\Tim\Desktop\PIC-WEB-5-42-UEXT-full\Microchip\TCPIP Stack\SMTP.c
                    Timer   0x000b12       data     static C:\Users\Tim\Desktop\PIC-WEB-5-42-UEXT-full\TCPIP\Demo App\GenericTCPClient.c
                 Transmit   0x000c18       data     static C:\Users\Tim\Desktop\PIC-WEB-5-42-UEXT-full\TCPIP\Demo App\CustomHTTPApp.c
           TransportState   0x0008fe       data     static C:\Users\Tim\Desktop\PIC-WEB-5-42-UEXT-full\Microchip\TCPIP Stack\SMTP.c
                     Type   0x0007ea       data     static C:\Users\Tim\Desktop\PIC-WEB-5-42-UEXT-full\Microchip\TCPIP Stack\DNS.c
                     Type   0x000c01       data     static C:\Users\Tim\Desktop\PIC-WEB-5-42-UEXT-full\Microchip\TCPIP Stack\NBNS.c
                     Type   0x0007ee       data     static C:\Users\Tim\Desktop\PIC-WEB-5-42-UEXT-full\Microchip\TCPIP Stack\DNS.c
              UART_Buffer   0x000a00       data     extern C:\Users\Tim\Desktop\PIC-WEB-5-42-UEXT-full\TCPIP\Demo App\MainDemo.c
               UDPRxCount   0x0002bb       data     extern C:\Users\Tim\Desktop\PIC-WEB-5-42-UEXT-full\Microchip\TCPIP Stack\UDP.c
            UDPSocketInfo   0x000200       data     extern C:\Users\Tim\Desktop\PIC-WEB-5-42-UEXT-full\Microchip\TCPIP Stack\UDP.c
               UDPTxCount   0x0002b9       data     extern C:\Users\Tim\Desktop\PIC-WEB-5-42-UEXT-full\Microchip\TCPIP Stack\UDP.c
        UpdateReadPointer   0x000caf       data     static C:\Users\Tim\Desktop\PIC-WEB-5-42-UEXT-full\Microchip\TCPIP Stack\ETH97J60.c
       UpdateWritePointer   0x000cae       data     static C:\Users\Tim\Desktop\PIC-WEB-5-42-UEXT-full\Microchip\TCPIP Stack\ETH97J60.c
                    Value   0x000c2f       data     static C:\Users\Tim\Desktop\PIC-WEB-5-42-UEXT-full\TCPIP\Demo App\CustomHTTPApp.c
                    Value   0x00071d       data     static C:\Users\Tim\Desktop\PIC-WEB-5-42-UEXT-full\Microchip\TCPIP Stack\Helpers.c
                    Value   0x000c39       data     static C:\Users\Tim\Desktop\PIC-WEB-5-42-UEXT-full\TCPIP\Demo App\CustomHTTPApp.c
                      Vin   0x000c04       data     static C:\Users\Tim\Desktop\PIC-WEB-5-42-UEXT-full\TCPIP\Demo App\MainDemo.c
                   WDTCON   0x000fd1       data     extern E:\3.46\pic18-lt\cxx-framework\src\traditional\proc\p18f67j60.asm
               WDTCONbits   0x000fd1       data     extern E:\3.46\pic18-lt\cxx-framework\src\traditional\proc\p18f67j60.asm
                     WREG   0x000fe8       data     extern E:\3.46\pic18-lt\cxx-framework\src\traditional\proc\p18f67j60.asm
                 WaitTime   0x000b0a       data     static C:\Users\Tim\Desktop\PIC-WEB-5-42-UEXT-full\TCPIP\Demo App\SMTPDemo.c
                  WritePT   0x000cac       data     static C:\Users\Tim\Desktop\PIC-WEB-5-42-UEXT-full\Microchip\TCPIP Stack\ETH97J60.c
                WriteSave   0x000cac       data     static C:\Users\Tim\Desktop\PIC-WEB-5-42-UEXT-full\Microchip\TCPIP Stack\ETH97J60.c
              _Identifier   0x000b2f       data     static C:\Users\Tim\Desktop\PIC-WEB-5-42-UEXT-full\Microchip\TCPIP Stack\IP.c
                 __AARGB0   0x000029       data     extern E:\3.46\pic18-lt\cxx-framework\src\traditional\math\aarg.asm
                 __AARGB1   0x000028       data     extern E:\3.46\pic18-lt\cxx-framework\src\traditional\math\aarg.asm
                 __AARGB2   0x000027       data     extern E:\3.46\pic18-lt\cxx-framework\src\traditional\math\aarg.asm
                 __AARGB3   0x000026       data     extern E:\3.46\pic18-lt\cxx-framework\src\traditional\math\aarg.asm
                 __AARGB4   0x000025       data     extern E:\3.46\pic18-lt\cxx-framework\src\traditional\math\aarg.asm
                 __AARGB5   0x000024       data     extern E:\3.46\pic18-lt\cxx-framework\src\traditional\math\aarg.asm
                 __AARGB6   0x000023       data     extern E:\3.46\pic18-lt\cxx-framework\src\traditional\math\aarg.asm
                 __AARGB7   0x000022       data     extern E:\3.46\pic18-lt\cxx-framework\src\traditional\math\aarg.asm
                   __AEXP   0x00002a       data     extern E:\3.46\pic18-lt\cxx-framework\src\traditional\math\aarg.asm
        __ARPIsResolved:0   0x0005f9       data     extern C:\Users\Tim\Desktop\PIC-WEB-5-42-UEXT-full\Microchip\TCPIP Stack\ARP.c
        __ARPIsResolved:1   0x0005fb       data     extern C:\Users\Tim\Desktop\PIC-WEB-5-42-UEXT-full\Microchip\TCPIP Stack\ARP.c
               __ARPPut:0   0x0005eb       data     static C:\Users\Tim\Desktop\PIC-WEB-5-42-UEXT-full\Microchip\TCPIP Stack\ARP.c
           __ARPResolve:0   0x0005f7       data     extern C:\Users\Tim\Desktop\PIC-WEB-5-42-UEXT-full\Microchip\TCPIP Stack\ARP.c
           __ARPSendPkt:0   0x0005e2       data     extern C:\Users\Tim\Desktop\PIC-WEB-5-42-UEXT-full\Microchip\TCPIP Stack\ARP.c
           __ARPSendPkt:1   0x0005e6       data     extern C:\Users\Tim\Desktop\PIC-WEB-5-42-UEXT-full\Microchip\TCPIP Stack\ARP.c
           __ARPSendPkt:2   0x0005ea       data     extern C:\Users\Tim\Desktop\PIC-WEB-5-42-UEXT-full\Microchip\TCPIP Stack\ARP.c
__AutoIPConfigIsInProgress:0   0x00086d       data     extern C:\Users\Tim\Desktop\PIC-WEB-5-42-UEXT-full\Microchip\TCPIP Stack\AutoIP.c
       __AutoIPConflict:0   0x00086e       data     extern C:\Users\Tim\Desktop\PIC-WEB-5-42-UEXT-full\Microchip\TCPIP Stack\AutoIP.c
        __AutoIPDisable:0   0x00086f       data     extern C:\Users\Tim\Desktop\PIC-WEB-5-42-UEXT-full\Microchip\TCPIP Stack\AutoIP.c
         __AutoIPEnable:0   0x000870       data     extern C:\Users\Tim\Desktop\PIC-WEB-5-42-UEXT-full\Microchip\TCPIP Stack\AutoIP.c
           __AutoIPInit:0   0x00086b       data     extern C:\Users\Tim\Desktop\PIC-WEB-5-42-UEXT-full\Microchip\TCPIP Stack\AutoIP.c
   __AutoIPIsConfigured:0   0x00086c       data     extern C:\Users\Tim\Desktop\PIC-WEB-5-42-UEXT-full\Microchip\TCPIP Stack\AutoIP.c
     __AutoIPIsDisabled:0   0x000871       data     extern C:\Users\Tim\Desktop\PIC-WEB-5-42-UEXT-full\Microchip\TCPIP Stack\AutoIP.c
           __AutoIPRand:0   0x000877       data     extern C:\Users\Tim\Desktop\PIC-WEB-5-42-UEXT-full\Microchip\TCPIP Stack\AutoIP.c
       __AutoIPRandSeed:0   0x000872       data     extern C:\Users\Tim\Desktop\PIC-WEB-5-42-UEXT-full\Microchip\TCPIP Stack\AutoIP.c
       __AutoIPRandSeed:1   0x000876       data     extern C:\Users\Tim\Desktop\PIC-WEB-5-42-UEXT-full\Microchip\TCPIP Stack\AutoIP.c
                 __BARGB0   0x00002e       data     extern E:\3.46\pic18-lt\cxx-framework\src\traditional\math\barg.asm
                 __BARGB1   0x00002d       data     extern E:\3.46\pic18-lt\cxx-framework\src\traditional\math\barg.asm
                 __BARGB2   0x00002c       data     extern E:\3.46\pic18-lt\cxx-framework\src\traditional\math\barg.asm
                 __BARGB3   0x00002b       data     extern E:\3.46\pic18-lt\cxx-framework\src\traditional\math\barg.asm
                   __BEXP   0x00002f       data     extern E:\3.46\pic18-lt\cxx-framework\src\traditional\math\barg.asm
         __Base64Decode:0   0x00070d       data     extern C:\Users\Tim\Desktop\PIC-WEB-5-42-UEXT-full\Microchip\TCPIP Stack\Helpers.c
         __Base64Decode:1   0x00070f       data     extern C:\Users\Tim\Desktop\PIC-WEB-5-42-UEXT-full\Microchip\TCPIP Stack\Helpers.c
         __Base64Decode:2   0x000711       data     extern C:\Users\Tim\Desktop\PIC-WEB-5-42-UEXT-full\Microchip\TCPIP Stack\Helpers.c
         __Base64Decode:3   0x000713       data     extern C:\Users\Tim\Desktop\PIC-WEB-5-42-UEXT-full\Microchip\TCPIP Stack\Helpers.c
         __Base64Encode:0   0x000715       data     extern C:\Users\Tim\Desktop\PIC-WEB-5-42-UEXT-full\Microchip\TCPIP Stack\Helpers.c
         __Base64Encode:1   0x000717       data     extern C:\Users\Tim\Desktop\PIC-WEB-5-42-UEXT-full\Microchip\TCPIP Stack\Helpers.c
         __Base64Encode:2   0x000719       data     extern C:\Users\Tim\Desktop\PIC-WEB-5-42-UEXT-full\Microchip\TCPIP Stack\Helpers.c
         __Base64Encode:3   0x00071b       data     extern C:\Users\Tim\Desktop\PIC-WEB-5-42-UEXT-full\Microchip\TCPIP Stack\Helpers.c
         __ByteToBuffer:0   0x0008a9       data     extern C:\Users\Tim\Desktop\PIC-WEB-5-42-UEXT-full\Microchip\TCPIP Stack\SPIFlash.c
         __ByteToBuffer:1   0x0008ab       data     extern C:\Users\Tim\Desktop\PIC-WEB-5-42-UEXT-full\Microchip\TCPIP Stack\SPIFlash.c
 __CalcIPBufferChecksum:0   0x0008c9       data     extern C:\Users\Tim\Desktop\PIC-WEB-5-42-UEXT-full\Microchip\TCPIP Stack\ETH97J60.c
       __CalcIPChecksum:0   0x000730       data     extern C:\Users\Tim\Desktop\PIC-WEB-5-42-UEXT-full\Microchip\TCPIP Stack\Helpers.c
       __CalcIPChecksum:1   0x000732       data     extern C:\Users\Tim\Desktop\PIC-WEB-5-42-UEXT-full\Microchip\TCPIP Stack\Helpers.c
     __Compare_MAC_addr:0   0x0004ef       data     static C:\Users\Tim\Desktop\PIC-WEB-5-42-UEXT-full\Microchip\TCPIP Stack\DHCPs.c
     __Compare_MAC_addr:1   0x0004f1       data     static C:\Users\Tim\Desktop\PIC-WEB-5-42-UEXT-full\Microchip\TCPIP Stack\DHCPs.c
 __ConvertArrayToString:0   0x0009f9       data     extern C:\Users\Tim\Desktop\PIC-WEB-5-42-UEXT-full\TCPIP\Demo App\Olimex_Demo_Files\Misc_Functions.c
 __ConvertArrayToString:1   0x0009fb       data     extern C:\Users\Tim\Desktop\PIC-WEB-5-42-UEXT-full\TCPIP\Demo App\Olimex_Demo_Files\Misc_Functions.c
 __ConvertArrayToString:2   0x0009fd       data     extern C:\Users\Tim\Desktop\PIC-WEB-5-42-UEXT-full\TCPIP\Demo App\Olimex_Demo_Files\Misc_Functions.c
__Convert_String_to_Int:0   0x0009fe       data     extern C:\Users\Tim\Desktop\PIC-WEB-5-42-UEXT-full\TCPIP\Demo App\Olimex_Demo_Files\Misc_Functions.c
    __Custom_SWWriteI2C:0   0x000b33       data     extern C:\Users\Tim\Desktop\PIC-WEB-5-42-UEXT-full\TCPIP\Demo App\Olimex_Demo_Files\Custom_I2C_Low.c
          __DHCPDisable:0   0x0003f8       data     extern C:\Users\Tim\Desktop\PIC-WEB-5-42-UEXT-full\Microchip\TCPIP Stack\DHCP.c
           __DHCPEnable:0   0x0003f9       data     extern C:\Users\Tim\Desktop\PIC-WEB-5-42-UEXT-full\Microchip\TCPIP Stack\DHCP.c
             __DHCPInit:0   0x0003f7       data     extern C:\Users\Tim\Desktop\PIC-WEB-5-42-UEXT-full\Microchip\TCPIP Stack\DHCP.c
          __DHCPIsBound:0   0x0003fb       data     extern C:\Users\Tim\Desktop\PIC-WEB-5-42-UEXT-full\Microchip\TCPIP Stack\DHCP.c
        __DHCPIsEnabled:0   0x0003fa       data     extern C:\Users\Tim\Desktop\PIC-WEB-5-42-UEXT-full\Microchip\TCPIP Stack\DHCP.c
 __DHCPIsServerDetected:0   0x0003fd       data     extern C:\Users\Tim\Desktop\PIC-WEB-5-42-UEXT-full\Microchip\TCPIP Stack\DHCP.c
 __DHCPReplyToDiscovery:0   0x0004e2       data     static C:\Users\Tim\Desktop\PIC-WEB-5-42-UEXT-full\Microchip\TCPIP Stack\DHCPs.c
   __DHCPReplyToRequest:0   0x0004e4       data     static C:\Users\Tim\Desktop\PIC-WEB-5-42-UEXT-full\Microchip\TCPIP Stack\DHCPs.c
   __DHCPReplyToRequest:1   0x0004e6       data     static C:\Users\Tim\Desktop\PIC-WEB-5-42-UEXT-full\Microchip\TCPIP Stack\DHCPs.c
   __DHCPReplyToRequest:2   0x0004e7       data     static C:\Users\Tim\Desktop\PIC-WEB-5-42-UEXT-full\Microchip\TCPIP Stack\DHCPs.c
     __DHCPStateChanged:0   0x0003fc       data     extern C:\Users\Tim\Desktop\PIC-WEB-5-42-UEXT-full\Microchip\TCPIP Stack\DHCP.c
        __DNSIsResolved:0   0x0007ef       data     extern C:\Users\Tim\Desktop\PIC-WEB-5-42-UEXT-full\Microchip\TCPIP Stack\DNS.c
      __DNSPutROMString:0   0x0007fb       data     static C:\Users\Tim\Desktop\PIC-WEB-5-42-UEXT-full\Microchip\TCPIP Stack\DNS.c
         __DNSPutString:0   0x0007f9       data     static C:\Users\Tim\Desktop\PIC-WEB-5-42-UEXT-full\Microchip\TCPIP Stack\DNS.c
           __DNSResolve:0   0x0007e8       data     extern C:\Users\Tim\Desktop\PIC-WEB-5-42-UEXT-full\Microchip\TCPIP Stack\DNS.c
           __DNSResolve:1   0x0007ea       data     extern C:\Users\Tim\Desktop\PIC-WEB-5-42-UEXT-full\Microchip\TCPIP Stack\DNS.c
        __DNSResolveROM:0   0x0007eb       data     extern C:\Users\Tim\Desktop\PIC-WEB-5-42-UEXT-full\Microchip\TCPIP Stack\DNS.c
        __DNSResolveROM:1   0x0007ee       data     extern C:\Users\Tim\Desktop\PIC-WEB-5-42-UEXT-full\Microchip\TCPIP Stack\DNS.c
       __DisplayIPValue:0   0x000698       data     extern C:\Users\Tim\Desktop\PIC-WEB-5-42-UEXT-full\TCPIP\Demo App\MainDemo.c
                __FPFLAGS   0x000021       data     extern E:\3.46\pic18-lt\cxx-framework\src\traditional\math\cmath18.asm
            __FPFLAGSbits   0x000021       data     extern E:\3.46\pic18-lt\cxx-framework\src\traditional\math\cmath18.asm
     __FindEmailAddress:0   0x000f4e       data     static C:\Users\Tim\Desktop\PIC-WEB-5-42-UEXT-full\Microchip\TCPIP Stack\SMTP.c
     __FindEmailAddress:1   0x000f50       data     static C:\Users\Tim\Desktop\PIC-WEB-5-42-UEXT-full\Microchip\TCPIP Stack\SMTP.c
   __FindMatchingSocket:0   0x0003af       data     static C:\Users\Tim\Desktop\PIC-WEB-5-42-UEXT-full\Microchip\TCPIP Stack\TCP.c
   __FindMatchingSocket:0   0x0002f0       data     static C:\Users\Tim\Desktop\PIC-WEB-5-42-UEXT-full\Microchip\TCPIP Stack\UDP.c
   __FindMatchingSocket:1   0x0003b1       data     static C:\Users\Tim\Desktop\PIC-WEB-5-42-UEXT-full\Microchip\TCPIP Stack\TCP.c
   __FindMatchingSocket:1   0x0002f2       data     static C:\Users\Tim\Desktop\PIC-WEB-5-42-UEXT-full\Microchip\TCPIP Stack\UDP.c
   __FindMatchingSocket:2   0x0002f4       data     static C:\Users\Tim\Desktop\PIC-WEB-5-42-UEXT-full\Microchip\TCPIP Stack\UDP.c
  __FindROMEmailAddress:0   0x000f52       data     static C:\Users\Tim\Desktop\PIC-WEB-5-42-UEXT-full\Microchip\TCPIP Stack\SMTP.c
  __FindROMEmailAddress:1   0x000f55       data     static C:\Users\Tim\Desktop\PIC-WEB-5-42-UEXT-full\Microchip\TCPIP Stack\SMTP.c
    __FormatNetBIOSName:0   0x00073d       data     extern C:\Users\Tim\Desktop\PIC-WEB-5-42-UEXT-full\Microchip\TCPIP Stack\Helpers.c
__GetIPAddrFromIndex_DhcpPool:0   0x0004ee       data     static C:\Users\Tim\Desktop\PIC-WEB-5-42-UEXT-full\Microchip\TCPIP Stack\DHCPs.c
        __HTTPCheckAuth:0   0x000e02       data     extern C:\Users\Tim\Desktop\PIC-WEB-5-42-UEXT-full\TCPIP\Demo App\CustomHTTPApp.c
        __HTTPCheckAuth:1   0x000e04       data     extern C:\Users\Tim\Desktop\PIC-WEB-5-42-UEXT-full\TCPIP\Demo App\CustomHTTPApp.c
           __HTTPGetArg:0   0x000908       data     extern C:\Users\Tim\Desktop\PIC-WEB-5-42-UEXT-full\Microchip\TCPIP Stack\HTTP2.c
           __HTTPGetArg:1   0x00090a       data     extern C:\Users\Tim\Desktop\PIC-WEB-5-42-UEXT-full\Microchip\TCPIP Stack\HTTP2.c
        __HTTPGetROMArg:0   0x00090c       data     extern C:\Users\Tim\Desktop\PIC-WEB-5-42-UEXT-full\Microchip\TCPIP Stack\HTTP2.c
        __HTTPGetROMArg:1   0x00090e       data     extern C:\Users\Tim\Desktop\PIC-WEB-5-42-UEXT-full\Microchip\TCPIP Stack\HTTP2.c
__HTTPHeaderParseLookup:0   0x000905       data     static C:\Users\Tim\Desktop\PIC-WEB-5-42-UEXT-full\Microchip\TCPIP Stack\HTTP2.c
          __HTTPIncFile:0   0x00091e       data     extern C:\Users\Tim\Desktop\PIC-WEB-5-42-UEXT-full\Microchip\TCPIP Stack\HTTP2.c
         __HTTPLoadConn:0   0x000904       data     static C:\Users\Tim\Desktop\PIC-WEB-5-42-UEXT-full\Microchip\TCPIP Stack\HTTP2.c
        __HTTPNeedsAuth:0   0x000e00       data     extern C:\Users\Tim\Desktop\PIC-WEB-5-42-UEXT-full\TCPIP\Demo App\CustomHTTPApp.c
            __HTTPPrint:0   0x000900       data     extern C:\Users\Tim\Desktop\PIC-WEB-5-42-UEXT-full\TCPIP\Demo App\HTTPPrint.h
          __HTTPPrintIP:0   0x000e6b       data     extern C:\Users\Tim\Desktop\PIC-WEB-5-42-UEXT-full\TCPIP\Demo App\CustomHTTPApp.c
        __HTTPPrint_btn:0   0x000e63       data     extern C:\Users\Tim\Desktop\PIC-WEB-5-42-UEXT-full\TCPIP\Demo App\CustomHTTPApp.c
__HTTPPrint_ddns_service:0   0x000e73       data     extern C:\Users\Tim\Desktop\PIC-WEB-5-42-UEXT-full\TCPIP\Demo App\CustomHTTPApp.c
        __HTTPPrint_led:0   0x000e65       data     extern C:\Users\Tim\Desktop\PIC-WEB-5-42-UEXT-full\TCPIP\Demo App\CustomHTTPApp.c
__HTTPPrint_ledSelected:0   0x000e67       data     extern C:\Users\Tim\Desktop\PIC-WEB-5-42-UEXT-full\TCPIP\Demo App\CustomHTTPApp.c
__HTTPPrint_ledSelected:1   0x000e69       data     extern C:\Users\Tim\Desktop\PIC-WEB-5-42-UEXT-full\TCPIP\Demo App\CustomHTTPApp.c
  __HTTPPrint_read_comm:0   0x000e6f       data     extern C:\Users\Tim\Desktop\PIC-WEB-5-42-UEXT-full\TCPIP\Demo App\CustomHTTPApp.c
 __HTTPPrint_write_comm:0   0x000e71       data     extern C:\Users\Tim\Desktop\PIC-WEB-5-42-UEXT-full\TCPIP\Demo App\CustomHTTPApp.c
     __HTTPReadPostName:0   0x000911       data     extern C:\Users\Tim\Desktop\PIC-WEB-5-42-UEXT-full\Microchip\TCPIP Stack\HTTP2.c
     __HTTPReadPostName:1   0x000913       data     extern C:\Users\Tim\Desktop\PIC-WEB-5-42-UEXT-full\Microchip\TCPIP Stack\HTTP2.c
    __HTTPReadPostValue:0   0x000915       data     extern C:\Users\Tim\Desktop\PIC-WEB-5-42-UEXT-full\Microchip\TCPIP Stack\HTTP2.c
    __HTTPReadPostValue:1   0x000917       data     extern C:\Users\Tim\Desktop\PIC-WEB-5-42-UEXT-full\Microchip\TCPIP Stack\HTTP2.c
           __HTTPReadTo:0   0x000919       data     static C:\Users\Tim\Desktop\PIC-WEB-5-42-UEXT-full\Microchip\TCPIP Stack\HTTP2.c
           __HTTPReadTo:1   0x00091a       data     static C:\Users\Tim\Desktop\PIC-WEB-5-42-UEXT-full\Microchip\TCPIP Stack\HTTP2.c
           __HTTPReadTo:2   0x00091c       data     static C:\Users\Tim\Desktop\PIC-WEB-5-42-UEXT-full\Microchip\TCPIP Stack\HTTP2.c
        __HTTPURLDecode:0   0x000906       data     extern C:\Users\Tim\Desktop\PIC-WEB-5-42-UEXT-full\Microchip\TCPIP Stack\HTTP2.c
__HandlePossibleTCPDisconnection:0   0x0007d7       data     static C:\Users\Tim\Desktop\PIC-WEB-5-42-UEXT-full\Microchip\TCPIP Stack\BerkeleyAPI.c
         __HandleTCPSeg:0   0x0003b5       data     static C:\Users\Tim\Desktop\PIC-WEB-5-42-UEXT-full\Microchip\TCPIP Stack\TCP.c
         __HandleTCPSeg:1   0x0003b7       data     static C:\Users\Tim\Desktop\PIC-WEB-5-42-UEXT-full\Microchip\TCPIP Stack\TCP.c
          __HashAddData:0   0x0005ae       data     extern C:\Users\Tim\Desktop\PIC-WEB-5-42-UEXT-full\Microchip\TCPIP Stack\Hashes.c
          __HashAddData:1   0x0005b0       data     extern C:\Users\Tim\Desktop\PIC-WEB-5-42-UEXT-full\Microchip\TCPIP Stack\Hashes.c
          __HashAddData:2   0x0005b2       data     extern C:\Users\Tim\Desktop\PIC-WEB-5-42-UEXT-full\Microchip\TCPIP Stack\Hashes.c
       __HashAddROMData:0   0x0005b4       data     extern C:\Users\Tim\Desktop\PIC-WEB-5-42-UEXT-full\Microchip\TCPIP Stack\Hashes.c
       __HashAddROMData:1   0x0005b6       data     extern C:\Users\Tim\Desktop\PIC-WEB-5-42-UEXT-full\Microchip\TCPIP Stack\Hashes.c
       __HashAddROMData:2   0x0005b9       data     extern C:\Users\Tim\Desktop\PIC-WEB-5-42-UEXT-full\Microchip\TCPIP Stack\Hashes.c
          __I2C_Receive:0   0x0009a0       data     extern C:\Users\Tim\Desktop\PIC-WEB-5-42-UEXT-full\TCPIP\Demo App\Olimex_Demo_Files\Custom_I2C.c
          __I2C_Receive:1   0x0009a2       data     extern C:\Users\Tim\Desktop\PIC-WEB-5-42-UEXT-full\TCPIP\Demo App\Olimex_Demo_Files\Custom_I2C.c
          __I2C_Receive:2   0x0009a4       data     extern C:\Users\Tim\Desktop\PIC-WEB-5-42-UEXT-full\TCPIP\Demo App\Olimex_Demo_Files\Custom_I2C.c
          __I2C_Receive:3   0x0009a6       data     extern C:\Users\Tim\Desktop\PIC-WEB-5-42-UEXT-full\TCPIP\Demo App\Olimex_Demo_Files\Custom_I2C.c
         __I2C_Transmit:0   0x00099b       data     extern C:\Users\Tim\Desktop\PIC-WEB-5-42-UEXT-full\TCPIP\Demo App\Olimex_Demo_Files\Custom_I2C.c
         __I2C_Transmit:1   0x00099d       data     extern C:\Users\Tim\Desktop\PIC-WEB-5-42-UEXT-full\TCPIP\Demo App\Olimex_Demo_Files\Custom_I2C.c
         __I2C_Transmit:2   0x00099f       data     extern C:\Users\Tim\Desktop\PIC-WEB-5-42-UEXT-full\TCPIP\Demo App\Olimex_Demo_Files\Custom_I2C.c
          __ICMPProcess:0   0x000952       data     extern C:\Users\Tim\Desktop\PIC-WEB-5-42-UEXT-full\Microchip\TCPIP Stack\ICMP.c
          __ICMPProcess:1   0x000954       data     extern C:\Users\Tim\Desktop\PIC-WEB-5-42-UEXT-full\Microchip\TCPIP Stack\ICMP.c
         __ICMPSendPing:0   0x000956       data     extern C:\Users\Tim\Desktop\PIC-WEB-5-42-UEXT-full\Microchip\TCPIP Stack\ICMP.c
   __ICMPSendPingToHost:0   0x00095a       data     extern C:\Users\Tim\Desktop\PIC-WEB-5-42-UEXT-full\Microchip\TCPIP Stack\ICMP.c
__ICMPSendPingToHostROM:0   0x00095c       data     extern C:\Users\Tim\Desktop\PIC-WEB-5-42-UEXT-full\Microchip\TCPIP Stack\ICMP.c
          __IPGetHeader:0   0x000979       data     extern C:\Users\Tim\Desktop\PIC-WEB-5-42-UEXT-full\Microchip\TCPIP Stack\IP.c
          __IPGetHeader:1   0x00097b       data     extern C:\Users\Tim\Desktop\PIC-WEB-5-42-UEXT-full\Microchip\TCPIP Stack\IP.c
          __IPGetHeader:2   0x00097d       data     extern C:\Users\Tim\Desktop\PIC-WEB-5-42-UEXT-full\Microchip\TCPIP Stack\IP.c
          __IPGetHeader:3   0x00097f       data     extern C:\Users\Tim\Desktop\PIC-WEB-5-42-UEXT-full\Microchip\TCPIP Stack\IP.c
          __IPPutHeader:0   0x000981       data     extern C:\Users\Tim\Desktop\PIC-WEB-5-42-UEXT-full\Microchip\TCPIP Stack\IP.c
          __IPPutHeader:1   0x000983       data     extern C:\Users\Tim\Desktop\PIC-WEB-5-42-UEXT-full\Microchip\TCPIP Stack\IP.c
          __IPPutHeader:2   0x000984       data     extern C:\Users\Tim\Desktop\PIC-WEB-5-42-UEXT-full\Microchip\TCPIP Stack\IP.c
        __IPSetRxBuffer:0   0x000986       data     extern C:\Users\Tim\Desktop\PIC-WEB-5-42-UEXT-full\Microchip\TCPIP Stack\IP.c
         __LFSRSeedRand:0   0x000700       data     extern C:\Users\Tim\Desktop\PIC-WEB-5-42-UEXT-full\Microchip\TCPIP Stack\Helpers.c
    __MACCalcRxChecksum:0   0x0008c5       data     extern C:\Users\Tim\Desktop\PIC-WEB-5-42-UEXT-full\Microchip\TCPIP Stack\ETH97J60.c
    __MACCalcRxChecksum:1   0x0008c7       data     extern C:\Users\Tim\Desktop\PIC-WEB-5-42-UEXT-full\Microchip\TCPIP Stack\ETH97J60.c
          __MACGetArray:0   0x0008d1       data     extern C:\Users\Tim\Desktop\PIC-WEB-5-42-UEXT-full\Microchip\TCPIP Stack\ETH97J60.c
          __MACGetArray:1   0x0008d3       data     extern C:\Users\Tim\Desktop\PIC-WEB-5-42-UEXT-full\Microchip\TCPIP Stack\ETH97J60.c
         __MACGetHeader:0   0x0008b6       data     extern C:\Users\Tim\Desktop\PIC-WEB-5-42-UEXT-full\Microchip\TCPIP Stack\ETH97J60.c
         __MACGetHeader:1   0x0008b8       data     extern C:\Users\Tim\Desktop\PIC-WEB-5-42-UEXT-full\Microchip\TCPIP Stack\ETH97J60.c
      __MACMemCopyAsync:0   0x0008cb       data     extern C:\Users\Tim\Desktop\PIC-WEB-5-42-UEXT-full\Microchip\TCPIP Stack\ETH97J60.c
      __MACMemCopyAsync:1   0x0008cd       data     extern C:\Users\Tim\Desktop\PIC-WEB-5-42-UEXT-full\Microchip\TCPIP Stack\ETH97J60.c
      __MACMemCopyAsync:2   0x0008cf       data     extern C:\Users\Tim\Desktop\PIC-WEB-5-42-UEXT-full\Microchip\TCPIP Stack\ETH97J60.c
               __MACPut:0   0x0008d5       data     extern C:\Users\Tim\Desktop\PIC-WEB-5-42-UEXT-full\Microchip\TCPIP Stack\ETH97J60.c
          __MACPutArray:0   0x0008d6       data     extern C:\Users\Tim\Desktop\PIC-WEB-5-42-UEXT-full\Microchip\TCPIP Stack\ETH97J60.c
          __MACPutArray:1   0x0008d8       data     extern C:\Users\Tim\Desktop\PIC-WEB-5-42-UEXT-full\Microchip\TCPIP Stack\ETH97J60.c
         __MACPutHeader:0   0x0008ba       data     extern C:\Users\Tim\Desktop\PIC-WEB-5-42-UEXT-full\Microchip\TCPIP Stack\ETH97J60.c
         __MACPutHeader:1   0x0008bc       data     extern C:\Users\Tim\Desktop\PIC-WEB-5-42-UEXT-full\Microchip\TCPIP Stack\ETH97J60.c
         __MACPutHeader:2   0x0008bd       data     extern C:\Users\Tim\Desktop\PIC-WEB-5-42-UEXT-full\Microchip\TCPIP Stack\ETH97J60.c
       __MACPutROMArray:0   0x0008da       data     extern C:\Users\Tim\Desktop\PIC-WEB-5-42-UEXT-full\Microchip\TCPIP Stack\ETH97J60.c
       __MACPutROMArray:1   0x0008dd       data     extern C:\Users\Tim\Desktop\PIC-WEB-5-42-UEXT-full\Microchip\TCPIP Stack\ETH97J60.c
        __MACSetReadPtr:0   0x0008c3       data     extern C:\Users\Tim\Desktop\PIC-WEB-5-42-UEXT-full\Microchip\TCPIP Stack\ETH97J60.c
    __MACSetReadPtrInRx:0   0x0008bf       data     extern C:\Users\Tim\Desktop\PIC-WEB-5-42-UEXT-full\Microchip\TCPIP Stack\ETH97J60.c
       __MACSetWritePtr:0   0x0008c1       data     extern C:\Users\Tim\Desktop\PIC-WEB-5-42-UEXT-full\Microchip\TCPIP Stack\ETH97J60.c
           __MD5AddData:0   0x0005bd       data     extern C:\Users\Tim\Desktop\PIC-WEB-5-42-UEXT-full\Microchip\TCPIP Stack\Hashes.c
           __MD5AddData:1   0x0005bf       data     extern C:\Users\Tim\Desktop\PIC-WEB-5-42-UEXT-full\Microchip\TCPIP Stack\Hashes.c
           __MD5AddData:2   0x0005c1       data     extern C:\Users\Tim\Desktop\PIC-WEB-5-42-UEXT-full\Microchip\TCPIP Stack\Hashes.c
        __MD5AddROMData:0   0x0005c3       data     extern C:\Users\Tim\Desktop\PIC-WEB-5-42-UEXT-full\Microchip\TCPIP Stack\Hashes.c
        __MD5AddROMData:1   0x0005c5       data     extern C:\Users\Tim\Desktop\PIC-WEB-5-42-UEXT-full\Microchip\TCPIP Stack\Hashes.c
        __MD5AddROMData:2   0x0005c8       data     extern C:\Users\Tim\Desktop\PIC-WEB-5-42-UEXT-full\Microchip\TCPIP Stack\Hashes.c
         __MD5Calculate:0   0x0005d4       data     extern C:\Users\Tim\Desktop\PIC-WEB-5-42-UEXT-full\Microchip\TCPIP Stack\Hashes.c
         __MD5Calculate:1   0x0005d6       data     extern C:\Users\Tim\Desktop\PIC-WEB-5-42-UEXT-full\Microchip\TCPIP Stack\Hashes.c
         __MD5HashBlock:0   0x0005ca       data     static C:\Users\Tim\Desktop\PIC-WEB-5-42-UEXT-full\Microchip\TCPIP Stack\Hashes.c
         __MD5HashBlock:1   0x0005cc       data     static C:\Users\Tim\Desktop\PIC-WEB-5-42-UEXT-full\Microchip\TCPIP Stack\Hashes.c
         __MD5HashBlock:2   0x0005ce       data     static C:\Users\Tim\Desktop\PIC-WEB-5-42-UEXT-full\Microchip\TCPIP Stack\Hashes.c
         __MD5HashBlock:3   0x0005d0       data     static C:\Users\Tim\Desktop\PIC-WEB-5-42-UEXT-full\Microchip\TCPIP Stack\Hashes.c
         __MD5HashBlock:4   0x0005d2       data     static C:\Users\Tim\Desktop\PIC-WEB-5-42-UEXT-full\Microchip\TCPIP Stack\Hashes.c
        __MD5Initialize:0   0x0005bb       data     extern C:\Users\Tim\Desktop\PIC-WEB-5-42-UEXT-full\Microchip\TCPIP Stack\Hashes.c
            __MPFSClose:0   0x0000d2       data     extern C:\Users\Tim\Desktop\PIC-WEB-5-42-UEXT-full\Microchip\TCPIP Stack\MPFS2.c
              __MPFSGet:0   0x0000d3       data     extern C:\Users\Tim\Desktop\PIC-WEB-5-42-UEXT-full\Microchip\TCPIP Stack\MPFS2.c
              __MPFSGet:1   0x0000d4       data     extern C:\Users\Tim\Desktop\PIC-WEB-5-42-UEXT-full\Microchip\TCPIP Stack\MPFS2.c
         __MPFSGetArray:0   0x0000d6       data     extern C:\Users\Tim\Desktop\PIC-WEB-5-42-UEXT-full\Microchip\TCPIP Stack\MPFS2.c
         __MPFSGetArray:1   0x0000d7       data     extern C:\Users\Tim\Desktop\PIC-WEB-5-42-UEXT-full\Microchip\TCPIP Stack\MPFS2.c
         __MPFSGetArray:2   0x0000d9       data     extern C:\Users\Tim\Desktop\PIC-WEB-5-42-UEXT-full\Microchip\TCPIP Stack\MPFS2.c
      __MPFSGetBytesRem:0   0x0000f0       data     extern C:\Users\Tim\Desktop\PIC-WEB-5-42-UEXT-full\Microchip\TCPIP Stack\MPFS2.c
       __MPFSGetEndAddr:0   0x0000f2       data     extern C:\Users\Tim\Desktop\PIC-WEB-5-42-UEXT-full\Microchip\TCPIP Stack\MPFS2.c
      __MPFSGetFilename:0   0x0000f3       data     extern C:\Users\Tim\Desktop\PIC-WEB-5-42-UEXT-full\Microchip\TCPIP Stack\MPFS2.c
      __MPFSGetFilename:1   0x0000f4       data     extern C:\Users\Tim\Desktop\PIC-WEB-5-42-UEXT-full\Microchip\TCPIP Stack\MPFS2.c
      __MPFSGetFilename:2   0x0000f6       data     extern C:\Users\Tim\Desktop\PIC-WEB-5-42-UEXT-full\Microchip\TCPIP Stack\MPFS2.c
         __MPFSGetFlags:0   0x0000ee       data     extern C:\Users\Tim\Desktop\PIC-WEB-5-42-UEXT-full\Microchip\TCPIP Stack\MPFS2.c
            __MPFSGetID:0   0x0000f9       data     extern C:\Users\Tim\Desktop\PIC-WEB-5-42-UEXT-full\Microchip\TCPIP Stack\MPFS2.c
          __MPFSGetLong:0   0x0000db       data     extern C:\Users\Tim\Desktop\PIC-WEB-5-42-UEXT-full\Microchip\TCPIP Stack\MPFS2.c
          __MPFSGetLong:1   0x0000dc       data     extern C:\Users\Tim\Desktop\PIC-WEB-5-42-UEXT-full\Microchip\TCPIP Stack\MPFS2.c
     __MPFSGetMicrotime:0   0x0000ed       data     extern C:\Users\Tim\Desktop\PIC-WEB-5-42-UEXT-full\Microchip\TCPIP Stack\MPFS2.c
      __MPFSGetPosition:0   0x0000f8       data     extern C:\Users\Tim\Desktop\PIC-WEB-5-42-UEXT-full\Microchip\TCPIP Stack\MPFS2.c
          __MPFSGetSize:0   0x0000ef       data     extern C:\Users\Tim\Desktop\PIC-WEB-5-42-UEXT-full\Microchip\TCPIP Stack\MPFS2.c
     __MPFSGetStartAddr:0   0x0000f1       data     extern C:\Users\Tim\Desktop\PIC-WEB-5-42-UEXT-full\Microchip\TCPIP Stack\MPFS2.c
     __MPFSGetTimestamp:0   0x0000ec       data     extern C:\Users\Tim\Desktop\PIC-WEB-5-42-UEXT-full\Microchip\TCPIP Stack\MPFS2.c
             __MPFSOpen:0   0x0000cb       data     extern C:\Users\Tim\Desktop\PIC-WEB-5-42-UEXT-full\Microchip\TCPIP Stack\MPFS2.c
           __MPFSOpenID:0   0x0000d0       data     extern C:\Users\Tim\Desktop\PIC-WEB-5-42-UEXT-full\Microchip\TCPIP Stack\MPFS2.c
          __MPFSOpenROM:0   0x0000cd       data     extern C:\Users\Tim\Desktop\PIC-WEB-5-42-UEXT-full\Microchip\TCPIP Stack\MPFS2.c
         __MPFSPutArray:0   0x0000e4       data     extern C:\Users\Tim\Desktop\PIC-WEB-5-42-UEXT-full\Microchip\TCPIP Stack\MPFS2.c
         __MPFSPutArray:1   0x0000e5       data     extern C:\Users\Tim\Desktop\PIC-WEB-5-42-UEXT-full\Microchip\TCPIP Stack\MPFS2.c
         __MPFSPutArray:2   0x0000e7       data     extern C:\Users\Tim\Desktop\PIC-WEB-5-42-UEXT-full\Microchip\TCPIP Stack\MPFS2.c
           __MPFSPutEnd:0   0x0000e9       data     extern C:\Users\Tim\Desktop\PIC-WEB-5-42-UEXT-full\Microchip\TCPIP Stack\MPFS2.c
             __MPFSSeek:0   0x0000de       data     extern C:\Users\Tim\Desktop\PIC-WEB-5-42-UEXT-full\Microchip\TCPIP Stack\MPFS2.c
             __MPFSSeek:1   0x0000df       data     extern C:\Users\Tim\Desktop\PIC-WEB-5-42-UEXT-full\Microchip\TCPIP Stack\MPFS2.c
             __MPFSSeek:2   0x0000e3       data     extern C:\Users\Tim\Desktop\PIC-WEB-5-42-UEXT-full\Microchip\TCPIP Stack\MPFS2.c
          __NBNSGetName:0   0x0004fe       data     static C:\Users\Tim\Desktop\PIC-WEB-5-42-UEXT-full\Microchip\TCPIP Stack\NBNS.c
          __NBNSPutName:0   0x0004fc       data     static C:\Users\Tim\Desktop\PIC-WEB-5-42-UEXT-full\Microchip\TCPIP Stack\NBNS.c
             __OpenSPI1:0   0x000f5d       data     extern C:\Users\Tim\Desktop\PIC-WEB-5-42-UEXT-full\TCPIP\Demo App\Olimex_Demo_Files\Custom_SPI_Low.c
             __OpenSPI1:1   0x000f5e       data     extern C:\Users\Tim\Desktop\PIC-WEB-5-42-UEXT-full\TCPIP\Demo App\Olimex_Demo_Files\Custom_SPI_Low.c
             __OpenSPI1:2   0x000f5f       data     extern C:\Users\Tim\Desktop\PIC-WEB-5-42-UEXT-full\TCPIP\Demo App\Olimex_Demo_Files\Custom_SPI_Low.c
                  __REMB0   0x000025       data     extern E:\3.46\pic18-lt\cxx-framework\src\traditional\math\aarg.asm
                  __REMB1   0x000024       data     extern E:\3.46\pic18-lt\cxx-framework\src\traditional\math\aarg.asm
                  __REMB2   0x000023       data     extern E:\3.46\pic18-lt\cxx-framework\src\traditional\math\aarg.asm
                  __REMB3   0x000022       data     extern E:\3.46\pic18-lt\cxx-framework\src\traditional\math\aarg.asm
 __ROMStringToIPAddress:0   0x000708       data     extern C:\Users\Tim\Desktop\PIC-WEB-5-42-UEXT-full\Microchip\TCPIP Stack\Helpers.c
 __ROMStringToIPAddress:1   0x00070b       data     extern C:\Users\Tim\Desktop\PIC-WEB-5-42-UEXT-full\Microchip\TCPIP Stack\Helpers.c
__ReadBufferFromMainMemory:0   0x0008a5       data     extern C:\Users\Tim\Desktop\PIC-WEB-5-42-UEXT-full\Microchip\TCPIP Stack\SPIFlash.c
           __ReadPHYReg:0   0x0008df       data     extern C:\Users\Tim\Desktop\PIC-WEB-5-42-UEXT-full\Microchip\TCPIP Stack\ETH97J60.c
       __ReadStringUART:0   0x0009a8       data     extern C:\Users\Tim\Desktop\PIC-WEB-5-42-UEXT-full\Microchip\TCPIP Stack\UART.c
       __ReadStringUART:1   0x0009aa       data     extern C:\Users\Tim\Desktop\PIC-WEB-5-42-UEXT-full\Microchip\TCPIP Stack\UART.c
              __SMTPPut:0   0x000f3f       data     extern C:\Users\Tim\Desktop\PIC-WEB-5-42-UEXT-full\Microchip\TCPIP Stack\SMTP.c
         __SMTPPutArray:0   0x000f40       data     extern C:\Users\Tim\Desktop\PIC-WEB-5-42-UEXT-full\Microchip\TCPIP Stack\SMTP.c
         __SMTPPutArray:1   0x000f42       data     extern C:\Users\Tim\Desktop\PIC-WEB-5-42-UEXT-full\Microchip\TCPIP Stack\SMTP.c
      __SMTPPutROMArray:0   0x000f44       data     extern C:\Users\Tim\Desktop\PIC-WEB-5-42-UEXT-full\Microchip\TCPIP Stack\SMTP.c
      __SMTPPutROMArray:1   0x000f47       data     extern C:\Users\Tim\Desktop\PIC-WEB-5-42-UEXT-full\Microchip\TCPIP Stack\SMTP.c
     __SMTPPutROMString:0   0x000f4b       data     extern C:\Users\Tim\Desktop\PIC-WEB-5-42-UEXT-full\Microchip\TCPIP Stack\SMTP.c
        __SMTPPutString:0   0x000f49       data     extern C:\Users\Tim\Desktop\PIC-WEB-5-42-UEXT-full\Microchip\TCPIP Stack\SMTP.c
    __SPIFlashBeginRead:0   0x00088c       data     extern C:\Users\Tim\Desktop\PIC-WEB-5-42-UEXT-full\Microchip\TCPIP Stack\SPIFlash.c
   __SPIFlashBeginWrite:0   0x000898       data     extern C:\Users\Tim\Desktop\PIC-WEB-5-42-UEXT-full\Microchip\TCPIP Stack\SPIFlash.c
    __SPIFlashReadArray:0   0x000890       data     extern C:\Users\Tim\Desktop\PIC-WEB-5-42-UEXT-full\Microchip\TCPIP Stack\SPIFlash.c
    __SPIFlashReadArray:1   0x000894       data     extern C:\Users\Tim\Desktop\PIC-WEB-5-42-UEXT-full\Microchip\TCPIP Stack\SPIFlash.c
    __SPIFlashReadArray:2   0x000896       data     extern C:\Users\Tim\Desktop\PIC-WEB-5-42-UEXT-full\Microchip\TCPIP Stack\SPIFlash.c
        __SPIFlashWrite:0   0x00089c       data     extern C:\Users\Tim\Desktop\PIC-WEB-5-42-UEXT-full\Microchip\TCPIP Stack\SPIFlash.c
   __SPIFlashWriteArray:0   0x00089d       data     extern C:\Users\Tim\Desktop\PIC-WEB-5-42-UEXT-full\Microchip\TCPIP Stack\SPIFlash.c
   __SPIFlashWriteArray:1   0x00089f       data     extern C:\Users\Tim\Desktop\PIC-WEB-5-42-UEXT-full\Microchip\TCPIP Stack\SPIFlash.c
          __SPITransfer:0   0x00088b       data     extern C:\Users\Tim\Desktop\PIC-WEB-5-42-UEXT-full\Microchip\TCPIP Stack\SPIFlash.c
          __SPI_Receive:0   0x000b06       data     extern C:\Users\Tim\Desktop\PIC-WEB-5-42-UEXT-full\TCPIP\Demo App\Olimex_Demo_Files\Custom_SPI.c
          __SPI_Receive:1   0x000b08       data     extern C:\Users\Tim\Desktop\PIC-WEB-5-42-UEXT-full\TCPIP\Demo App\Olimex_Demo_Files\Custom_SPI.c
         __SPI_Transmit:0   0x000b05       data     extern C:\Users\Tim\Desktop\PIC-WEB-5-42-UEXT-full\TCPIP\Demo App\Olimex_Demo_Files\Custom_SPI.c
        __SaveAppConfig:0   0x00069c       data     extern C:\Users\Tim\Desktop\PIC-WEB-5-42-UEXT-full\TCPIP\Demo App\MainDemo.c
              __SendTCP:0   0x0003ad       data     static C:\Users\Tim\Desktop\PIC-WEB-5-42-UEXT-full\Microchip\TCPIP Stack\TCP.c
              __SendTCP:1   0x0003ae       data     static C:\Users\Tim\Desktop\PIC-WEB-5-42-UEXT-full\Microchip\TCPIP Stack\TCP.c
    __StringToIPAddress:0   0x000704       data     extern C:\Users\Tim\Desktop\PIC-WEB-5-42-UEXT-full\Microchip\TCPIP Stack\Helpers.c
    __StringToIPAddress:1   0x000706       data     extern C:\Users\Tim\Desktop\PIC-WEB-5-42-UEXT-full\Microchip\TCPIP Stack\Helpers.c
        __SwapARPPacket:0   0x0005fd       data     extern C:\Users\Tim\Desktop\PIC-WEB-5-42-UEXT-full\Microchip\TCPIP Stack\ARP.c
         __SwapIPHeader:0   0x000988       data     static C:\Users\Tim\Desktop\PIC-WEB-5-42-UEXT-full\Microchip\TCPIP Stack\IP.c
        __SwapTCPHeader:0   0x0003b3       data     static C:\Users\Tim\Desktop\PIC-WEB-5-42-UEXT-full\Microchip\TCPIP Stack\TCP.c
          __SyncTCBStub:0   0x000345       data     static C:\Users\Tim\Desktop\PIC-WEB-5-42-UEXT-full\Microchip\TCPIP Stack\TCP.c
    __TCPAdjustFIFOSize:0   0x0003b9       data     extern C:\Users\Tim\Desktop\PIC-WEB-5-42-UEXT-full\Microchip\TCPIP Stack\TCP.c
    __TCPAdjustFIFOSize:1   0x0003ba       data     extern C:\Users\Tim\Desktop\PIC-WEB-5-42-UEXT-full\Microchip\TCPIP Stack\TCP.c
    __TCPAdjustFIFOSize:2   0x0003bc       data     extern C:\Users\Tim\Desktop\PIC-WEB-5-42-UEXT-full\Microchip\TCPIP Stack\TCP.c
    __TCPAdjustFIFOSize:3   0x0003be       data     extern C:\Users\Tim\Desktop\PIC-WEB-5-42-UEXT-full\Microchip\TCPIP Stack\TCP.c
             __TCPClose:0   0x000351       data     extern C:\Users\Tim\Desktop\PIC-WEB-5-42-UEXT-full\Microchip\TCPIP Stack\TCP.c
           __TCPDiscard:0   0x000376       data     extern C:\Users\Tim\Desktop\PIC-WEB-5-42-UEXT-full\Microchip\TCPIP Stack\TCP.c
        __TCPDisconnect:0   0x000350       data     extern C:\Users\Tim\Desktop\PIC-WEB-5-42-UEXT-full\Microchip\TCPIP Stack\TCP.c
       __TCPFindArrayEx:0   0x00038b       data     extern C:\Users\Tim\Desktop\PIC-WEB-5-42-UEXT-full\Microchip\TCPIP Stack\TCP.c
       __TCPFindArrayEx:1   0x00038c       data     extern C:\Users\Tim\Desktop\PIC-WEB-5-42-UEXT-full\Microchip\TCPIP Stack\TCP.c
       __TCPFindArrayEx:2   0x00038e       data     extern C:\Users\Tim\Desktop\PIC-WEB-5-42-UEXT-full\Microchip\TCPIP Stack\TCP.c
       __TCPFindArrayEx:3   0x000390       data     extern C:\Users\Tim\Desktop\PIC-WEB-5-42-UEXT-full\Microchip\TCPIP Stack\TCP.c
       __TCPFindArrayEx:4   0x000392       data     extern C:\Users\Tim\Desktop\PIC-WEB-5-42-UEXT-full\Microchip\TCPIP Stack\TCP.c
       __TCPFindArrayEx:5   0x000394       data     extern C:\Users\Tim\Desktop\PIC-WEB-5-42-UEXT-full\Microchip\TCPIP Stack\TCP.c
            __TCPFindEx:0   0x0003a0       data     extern C:\Users\Tim\Desktop\PIC-WEB-5-42-UEXT-full\Microchip\TCPIP Stack\TCP.c
            __TCPFindEx:1   0x0003a1       data     extern C:\Users\Tim\Desktop\PIC-WEB-5-42-UEXT-full\Microchip\TCPIP Stack\TCP.c
            __TCPFindEx:2   0x0003a2       data     extern C:\Users\Tim\Desktop\PIC-WEB-5-42-UEXT-full\Microchip\TCPIP Stack\TCP.c
            __TCPFindEx:3   0x0003a4       data     extern C:\Users\Tim\Desktop\PIC-WEB-5-42-UEXT-full\Microchip\TCPIP Stack\TCP.c
            __TCPFindEx:4   0x0003a6       data     extern C:\Users\Tim\Desktop\PIC-WEB-5-42-UEXT-full\Microchip\TCPIP Stack\TCP.c
    __TCPFindROMArrayEx:0   0x000395       data     extern C:\Users\Tim\Desktop\PIC-WEB-5-42-UEXT-full\Microchip\TCPIP Stack\TCP.c
    __TCPFindROMArrayEx:1   0x000396       data     extern C:\Users\Tim\Desktop\PIC-WEB-5-42-UEXT-full\Microchip\TCPIP Stack\TCP.c
    __TCPFindROMArrayEx:2   0x000399       data     extern C:\Users\Tim\Desktop\PIC-WEB-5-42-UEXT-full\Microchip\TCPIP Stack\TCP.c
    __TCPFindROMArrayEx:3   0x00039b       data     extern C:\Users\Tim\Desktop\PIC-WEB-5-42-UEXT-full\Microchip\TCPIP Stack\TCP.c
    __TCPFindROMArrayEx:4   0x00039d       data     extern C:\Users\Tim\Desktop\PIC-WEB-5-42-UEXT-full\Microchip\TCPIP Stack\TCP.c
    __TCPFindROMArrayEx:5   0x00039f       data     extern C:\Users\Tim\Desktop\PIC-WEB-5-42-UEXT-full\Microchip\TCPIP Stack\TCP.c
             __TCPFlush:0   0x00035f       data     extern C:\Users\Tim\Desktop\PIC-WEB-5-42-UEXT-full\Microchip\TCPIP Stack\TCP.c
               __TCPGet:0   0x000378       data     extern C:\Users\Tim\Desktop\PIC-WEB-5-42-UEXT-full\Microchip\TCPIP Stack\TCP.c
               __TCPGet:1   0x000379       data     extern C:\Users\Tim\Desktop\PIC-WEB-5-42-UEXT-full\Microchip\TCPIP Stack\TCP.c
          __TCPGetArray:0   0x00037b       data     extern C:\Users\Tim\Desktop\PIC-WEB-5-42-UEXT-full\Microchip\TCPIP Stack\TCP.c
          __TCPGetArray:1   0x00037c       data     extern C:\Users\Tim\Desktop\PIC-WEB-5-42-UEXT-full\Microchip\TCPIP Stack\TCP.c
          __TCPGetArray:2   0x00037e       data     extern C:\Users\Tim\Desktop\PIC-WEB-5-42-UEXT-full\Microchip\TCPIP Stack\TCP.c
     __TCPGetRemoteInfo:0   0x000352       data     extern C:\Users\Tim\Desktop\PIC-WEB-5-42-UEXT-full\Microchip\TCPIP Stack\TCP.c
     __TCPGetRxFIFOFree:0   0x000380       data     extern C:\Users\Tim\Desktop\PIC-WEB-5-42-UEXT-full\Microchip\TCPIP Stack\TCP.c
     __TCPGetTxFIFOFull:0   0x000375       data     extern C:\Users\Tim\Desktop\PIC-WEB-5-42-UEXT-full\Microchip\TCPIP Stack\TCP.c
       __TCPIsConnected:0   0x00034f       data     extern C:\Users\Tim\Desktop\PIC-WEB-5-42-UEXT-full\Microchip\TCPIP Stack\TCP.c
        __TCPIsGetReady:0   0x000377       data     extern C:\Users\Tim\Desktop\PIC-WEB-5-42-UEXT-full\Microchip\TCPIP Stack\TCP.c
        __TCPIsPutReady:0   0x000360       data     extern C:\Users\Tim\Desktop\PIC-WEB-5-42-UEXT-full\Microchip\TCPIP Stack\TCP.c
              __TCPOpen:0   0x000346       data     extern C:\Users\Tim\Desktop\PIC-WEB-5-42-UEXT-full\Microchip\TCPIP Stack\TCP.c
              __TCPOpen:1   0x00034a       data     extern C:\Users\Tim\Desktop\PIC-WEB-5-42-UEXT-full\Microchip\TCPIP Stack\TCP.c
              __TCPOpen:2   0x00034b       data     extern C:\Users\Tim\Desktop\PIC-WEB-5-42-UEXT-full\Microchip\TCPIP Stack\TCP.c
              __TCPOpen:3   0x00034d       data     extern C:\Users\Tim\Desktop\PIC-WEB-5-42-UEXT-full\Microchip\TCPIP Stack\TCP.c
              __TCPPeek:0   0x000388       data     extern C:\Users\Tim\Desktop\PIC-WEB-5-42-UEXT-full\Microchip\TCPIP Stack\TCP.c
              __TCPPeek:1   0x000389       data     extern C:\Users\Tim\Desktop\PIC-WEB-5-42-UEXT-full\Microchip\TCPIP Stack\TCP.c
         __TCPPeekArray:0   0x000381       data     extern C:\Users\Tim\Desktop\PIC-WEB-5-42-UEXT-full\Microchip\TCPIP Stack\TCP.c
         __TCPPeekArray:1   0x000382       data     extern C:\Users\Tim\Desktop\PIC-WEB-5-42-UEXT-full\Microchip\TCPIP Stack\TCP.c
         __TCPPeekArray:2   0x000384       data     extern C:\Users\Tim\Desktop\PIC-WEB-5-42-UEXT-full\Microchip\TCPIP Stack\TCP.c
         __TCPPeekArray:3   0x000386       data     extern C:\Users\Tim\Desktop\PIC-WEB-5-42-UEXT-full\Microchip\TCPIP Stack\TCP.c
           __TCPProcess:0   0x0003a7       data     extern C:\Users\Tim\Desktop\PIC-WEB-5-42-UEXT-full\Microchip\TCPIP Stack\TCP.c
           __TCPProcess:1   0x0003a9       data     extern C:\Users\Tim\Desktop\PIC-WEB-5-42-UEXT-full\Microchip\TCPIP Stack\TCP.c
           __TCPProcess:2   0x0003ab       data     extern C:\Users\Tim\Desktop\PIC-WEB-5-42-UEXT-full\Microchip\TCPIP Stack\TCP.c
               __TCPPut:0   0x000361       data     extern C:\Users\Tim\Desktop\PIC-WEB-5-42-UEXT-full\Microchip\TCPIP Stack\TCP.c
               __TCPPut:1   0x000362       data     extern C:\Users\Tim\Desktop\PIC-WEB-5-42-UEXT-full\Microchip\TCPIP Stack\TCP.c
          __TCPPutArray:0   0x000363       data     extern C:\Users\Tim\Desktop\PIC-WEB-5-42-UEXT-full\Microchip\TCPIP Stack\TCP.c
          __TCPPutArray:1   0x000364       data     extern C:\Users\Tim\Desktop\PIC-WEB-5-42-UEXT-full\Microchip\TCPIP Stack\TCP.c
          __TCPPutArray:2   0x000366       data     extern C:\Users\Tim\Desktop\PIC-WEB-5-42-UEXT-full\Microchip\TCPIP Stack\TCP.c
       __TCPPutROMArray:0   0x000368       data     extern C:\Users\Tim\Desktop\PIC-WEB-5-42-UEXT-full\Microchip\TCPIP Stack\TCP.c
       __TCPPutROMArray:1   0x000369       data     extern C:\Users\Tim\Desktop\PIC-WEB-5-42-UEXT-full\Microchip\TCPIP Stack\TCP.c
       __TCPPutROMArray:2   0x00036c       data     extern C:\Users\Tim\Desktop\PIC-WEB-5-42-UEXT-full\Microchip\TCPIP Stack\TCP.c
      __TCPPutROMString:0   0x000371       data     extern C:\Users\Tim\Desktop\PIC-WEB-5-42-UEXT-full\Microchip\TCPIP Stack\TCP.c
      __TCPPutROMString:1   0x000372       data     extern C:\Users\Tim\Desktop\PIC-WEB-5-42-UEXT-full\Microchip\TCPIP Stack\TCP.c
         __TCPPutString:0   0x00036e       data     extern C:\Users\Tim\Desktop\PIC-WEB-5-42-UEXT-full\Microchip\TCPIP Stack\TCP.c
         __TCPPutString:1   0x00036f       data     extern C:\Users\Tim\Desktop\PIC-WEB-5-42-UEXT-full\Microchip\TCPIP Stack\TCP.c
           __TCPRAMCopy:0   0x0003bf       data     static C:\Users\Tim\Desktop\PIC-WEB-5-42-UEXT-full\Microchip\TCPIP Stack\TCP.c
           __TCPRAMCopy:1   0x0003c1       data     static C:\Users\Tim\Desktop\PIC-WEB-5-42-UEXT-full\Microchip\TCPIP Stack\TCP.c
           __TCPRAMCopy:2   0x0003c2       data     static C:\Users\Tim\Desktop\PIC-WEB-5-42-UEXT-full\Microchip\TCPIP Stack\TCP.c
           __TCPRAMCopy:3   0x0003c4       data     static C:\Users\Tim\Desktop\PIC-WEB-5-42-UEXT-full\Microchip\TCPIP Stack\TCP.c
           __TCPRAMCopy:4   0x0003c5       data     static C:\Users\Tim\Desktop\PIC-WEB-5-42-UEXT-full\Microchip\TCPIP Stack\TCP.c
        __TCPRAMCopyROM:0   0x0003c7       data     static C:\Users\Tim\Desktop\PIC-WEB-5-42-UEXT-full\Microchip\TCPIP Stack\TCP.c
        __TCPRAMCopyROM:1   0x0003c9       data     static C:\Users\Tim\Desktop\PIC-WEB-5-42-UEXT-full\Microchip\TCPIP Stack\TCP.c
        __TCPRAMCopyROM:2   0x0003ca       data     static C:\Users\Tim\Desktop\PIC-WEB-5-42-UEXT-full\Microchip\TCPIP Stack\TCP.c
        __TCPRAMCopyROM:3   0x0003cd       data     static C:\Users\Tim\Desktop\PIC-WEB-5-42-UEXT-full\Microchip\TCPIP Stack\TCP.c
          __TCPWasReset:0   0x00034e       data     extern C:\Users\Tim\Desktop\PIC-WEB-5-42-UEXT-full\Microchip\TCPIP Stack\TCP.c
                   __TEMP   0x000033       data     extern E:\3.46\pic18-lt\cxx-framework\src\traditional\math\temparg.asm
                 __TEMPB0   0x000033       data     extern E:\3.46\pic18-lt\cxx-framework\src\traditional\math\temparg.asm
                 __TEMPB1   0x000032       data     extern E:\3.46\pic18-lt\cxx-framework\src\traditional\math\temparg.asm
                 __TEMPB2   0x000031       data     extern E:\3.46\pic18-lt\cxx-framework\src\traditional\math\temparg.asm
                 __TEMPB3   0x000030       data     extern E:\3.46\pic18-lt\cxx-framework\src\traditional\math\temparg.asm
__TickConvertToMilliseconds:0   0x0009c6       data     extern C:\Users\Tim\Desktop\PIC-WEB-5-42-UEXT-full\Microchip\TCPIP Stack\Tick.c
            __UART_Init:0   0x000b00       data     extern C:\Users\Tim\Desktop\PIC-WEB-5-42-UEXT-full\TCPIP\Demo App\Olimex_Demo_Files\Custom_UART_Low.c
      __UART_Read_Array:0   0x0009bc       data     extern C:\Users\Tim\Desktop\PIC-WEB-5-42-UEXT-full\TCPIP\Demo App\Olimex_Demo_Files\Custom_UART.c
      __UART_Read_Array:1   0x0009be       data     extern C:\Users\Tim\Desktop\PIC-WEB-5-42-UEXT-full\TCPIP\Demo App\Olimex_Demo_Files\Custom_UART.c
     __UART_Read_String:0   0x0009ba       data     extern C:\Users\Tim\Desktop\PIC-WEB-5-42-UEXT-full\TCPIP\Demo App\Olimex_Demo_Files\Custom_UART.c
        __UART_Transmit:0   0x000b04       data     extern C:\Users\Tim\Desktop\PIC-WEB-5-42-UEXT-full\TCPIP\Demo App\Olimex_Demo_Files\Custom_UART_Low.c
     __UART_Write_Array:0   0x0009b6       data     extern C:\Users\Tim\Desktop\PIC-WEB-5-42-UEXT-full\TCPIP\Demo App\Olimex_Demo_Files\Custom_UART.c
     __UART_Write_Array:1   0x0009b8       data     extern C:\Users\Tim\Desktop\PIC-WEB-5-42-UEXT-full\TCPIP\Demo App\Olimex_Demo_Files\Custom_UART.c
    __UART_Write_String:0   0x0009b4       data     extern C:\Users\Tim\Desktop\PIC-WEB-5-42-UEXT-full\TCPIP\Demo App\Olimex_Demo_Files\Custom_UART.c
             __UDPClose:0   0x0002ce       data     extern C:\Users\Tim\Desktop\PIC-WEB-5-42-UEXT-full\Microchip\TCPIP Stack\UDP.c
               __UDPGet:0   0x0002e4       data     extern C:\Users\Tim\Desktop\PIC-WEB-5-42-UEXT-full\Microchip\TCPIP Stack\UDP.c
          __UDPGetArray:0   0x0002e6       data     extern C:\Users\Tim\Desktop\PIC-WEB-5-42-UEXT-full\Microchip\TCPIP Stack\UDP.c
          __UDPGetArray:1   0x0002e8       data     extern C:\Users\Tim\Desktop\PIC-WEB-5-42-UEXT-full\Microchip\TCPIP Stack\UDP.c
        __UDPIsGetReady:0   0x0002e3       data     extern C:\Users\Tim\Desktop\PIC-WEB-5-42-UEXT-full\Microchip\TCPIP Stack\UDP.c
          __UDPIsOpened:0   0x0002cd       data     extern C:\Users\Tim\Desktop\PIC-WEB-5-42-UEXT-full\Microchip\TCPIP Stack\UDP.c
        __UDPIsPutReady:0   0x0002d3       data     extern C:\Users\Tim\Desktop\PIC-WEB-5-42-UEXT-full\Microchip\TCPIP Stack\UDP.c
            __UDPOpenEx:0   0x0002c2       data     extern C:\Users\Tim\Desktop\PIC-WEB-5-42-UEXT-full\Microchip\TCPIP Stack\UDP.c
            __UDPOpenEx:1   0x0002c6       data     extern C:\Users\Tim\Desktop\PIC-WEB-5-42-UEXT-full\Microchip\TCPIP Stack\UDP.c
            __UDPOpenEx:2   0x0002c7       data     extern C:\Users\Tim\Desktop\PIC-WEB-5-42-UEXT-full\Microchip\TCPIP Stack\UDP.c
            __UDPOpenEx:3   0x0002c9       data     extern C:\Users\Tim\Desktop\PIC-WEB-5-42-UEXT-full\Microchip\TCPIP Stack\UDP.c
           __UDPProcess:0   0x0002ea       data     extern C:\Users\Tim\Desktop\PIC-WEB-5-42-UEXT-full\Microchip\TCPIP Stack\UDP.c
           __UDPProcess:1   0x0002ec       data     extern C:\Users\Tim\Desktop\PIC-WEB-5-42-UEXT-full\Microchip\TCPIP Stack\UDP.c
           __UDPProcess:2   0x0002ee       data     extern C:\Users\Tim\Desktop\PIC-WEB-5-42-UEXT-full\Microchip\TCPIP Stack\UDP.c
               __UDPPut:0   0x0002d4       data     extern C:\Users\Tim\Desktop\PIC-WEB-5-42-UEXT-full\Microchip\TCPIP Stack\UDP.c
          __UDPPutArray:0   0x0002d5       data     extern C:\Users\Tim\Desktop\PIC-WEB-5-42-UEXT-full\Microchip\TCPIP Stack\UDP.c
          __UDPPutArray:1   0x0002d7       data     extern C:\Users\Tim\Desktop\PIC-WEB-5-42-UEXT-full\Microchip\TCPIP Stack\UDP.c
       __UDPPutROMArray:0   0x0002d9       data     extern C:\Users\Tim\Desktop\PIC-WEB-5-42-UEXT-full\Microchip\TCPIP Stack\UDP.c
       __UDPPutROMArray:1   0x0002dc       data     extern C:\Users\Tim\Desktop\PIC-WEB-5-42-UEXT-full\Microchip\TCPIP Stack\UDP.c
      __UDPPutROMString:0   0x0002e0       data     extern C:\Users\Tim\Desktop\PIC-WEB-5-42-UEXT-full\Microchip\TCPIP Stack\UDP.c
         __UDPPutString:0   0x0002de       data     extern C:\Users\Tim\Desktop\PIC-WEB-5-42-UEXT-full\Microchip\TCPIP Stack\UDP.c
       __UDPSetRxBuffer:0   0x0002d1       data     extern C:\Users\Tim\Desktop\PIC-WEB-5-42-UEXT-full\Microchip\TCPIP Stack\UDP.c
       __UDPSetTxBuffer:0   0x0002cf       data     extern C:\Users\Tim\Desktop\PIC-WEB-5-42-UEXT-full\Microchip\TCPIP Stack\UDP.c
__WriteBufferToMainMemory:0   0x0008a1       data     extern C:\Users\Tim\Desktop\PIC-WEB-5-42-UEXT-full\Microchip\TCPIP Stack\SPIFlash.c
          __WritePHYReg:0   0x0008e0       data     extern C:\Users\Tim\Desktop\PIC-WEB-5-42-UEXT-full\Microchip\TCPIP Stack\ETH97J60.c
          __WritePHYReg:1   0x0008e1       data     extern C:\Users\Tim\Desktop\PIC-WEB-5-42-UEXT-full\Microchip\TCPIP Stack\ETH97J60.c
            __WriteSPI1:0   0x000f57       data     extern C:\Users\Tim\Desktop\PIC-WEB-5-42-UEXT-full\TCPIP\Demo App\Olimex_Demo_Files\Custom_SPI_Low.c
           __WriteUSART:0   0x0009ab       data     extern C:\Users\Tim\Desktop\PIC-WEB-5-42-UEXT-full\Microchip\TCPIP Stack\UART.c
            ___DHCPSend:0   0x0003fe       data     static C:\Users\Tim\Desktop\PIC-WEB-5-42-UEXT-full\Microchip\TCPIP Stack\DHCP.c
            ___DHCPSend:1   0x0003ff       data     static C:\Users\Tim\Desktop\PIC-WEB-5-42-UEXT-full\Microchip\TCPIP Stack\DHCP.c
       ___LoadFATRecord:0   0x0000ea       data     static C:\Users\Tim\Desktop\PIC-WEB-5-42-UEXT-full\Microchip\TCPIP Stack\MPFS2.c
               __accept:0   0x0007a0       data     extern C:\Users\Tim\Desktop\PIC-WEB-5-42-UEXT-full\Microchip\TCPIP Stack\BerkeleyAPI.c
               __accept:1   0x0007a1       data     extern C:\Users\Tim\Desktop\PIC-WEB-5-42-UEXT-full\Microchip\TCPIP Stack\BerkeleyAPI.c
               __accept:2   0x0007a3       data     extern C:\Users\Tim\Desktop\PIC-WEB-5-42-UEXT-full\Microchip\TCPIP Stack\BerkeleyAPI.c
                 __bind:0   0x000798       data     extern C:\Users\Tim\Desktop\PIC-WEB-5-42-UEXT-full\Microchip\TCPIP Stack\BerkeleyAPI.c
                 __bind:1   0x000799       data     extern C:\Users\Tim\Desktop\PIC-WEB-5-42-UEXT-full\Microchip\TCPIP Stack\BerkeleyAPI.c
                 __bind:2   0x00079b       data     extern C:\Users\Tim\Desktop\PIC-WEB-5-42-UEXT-full\Microchip\TCPIP Stack\BerkeleyAPI.c
         __btohexa_high:0   0x000723       data     extern C:\Users\Tim\Desktop\PIC-WEB-5-42-UEXT-full\Microchip\TCPIP Stack\Helpers.c
          __btohexa_low:0   0x000724       data     extern C:\Users\Tim\Desktop\PIC-WEB-5-42-UEXT-full\Microchip\TCPIP Stack\Helpers.c
          __closesocket:0   0x0007d6       data     extern C:\Users\Tim\Desktop\PIC-WEB-5-42-UEXT-full\Microchip\TCPIP Stack\BerkeleyAPI.c
              __connect:0   0x0007a5       data     extern C:\Users\Tim\Desktop\PIC-WEB-5-42-UEXT-full\Microchip\TCPIP Stack\BerkeleyAPI.c
              __connect:1   0x0007a6       data     extern C:\Users\Tim\Desktop\PIC-WEB-5-42-UEXT-full\Microchip\TCPIP Stack\BerkeleyAPI.c
              __connect:2   0x0007a8       data     extern C:\Users\Tim\Desktop\PIC-WEB-5-42-UEXT-full\Microchip\TCPIP Stack\BerkeleyAPI.c
     __convertToDegrees:0   0x00069e       data     extern C:\Users\Tim\Desktop\PIC-WEB-5-42-UEXT-full\TCPIP\Demo App\MainDemo.c
__getIndexByMacaddr_DhcpPool:0   0x0004e8       data     static C:\Users\Tim\Desktop\PIC-WEB-5-42-UEXT-full\Microchip\TCPIP Stack\DHCPs.c
          __gethostname:0   0x0007d2       data     extern C:\Users\Tim\Desktop\PIC-WEB-5-42-UEXT-full\Microchip\TCPIP Stack\BerkeleyAPI.c
          __gethostname:1   0x0007d4       data     extern C:\Users\Tim\Desktop\PIC-WEB-5-42-UEXT-full\Microchip\TCPIP Stack\BerkeleyAPI.c
             __getsSPI1:0   0x000f58       data     extern C:\Users\Tim\Desktop\PIC-WEB-5-42-UEXT-full\TCPIP\Demo App\Olimex_Demo_Files\Custom_SPI_Low.c
             __getsSPI1:1   0x000f5a       data     extern C:\Users\Tim\Desktop\PIC-WEB-5-42-UEXT-full\TCPIP\Demo App\Olimex_Demo_Files\Custom_SPI_Low.c
            __getsUSART:0   0x0009ac       data     extern C:\Users\Tim\Desktop\PIC-WEB-5-42-UEXT-full\Microchip\TCPIP Stack\UART.c
            __getsUSART:1   0x0009ae       data     extern C:\Users\Tim\Desktop\PIC-WEB-5-42-UEXT-full\Microchip\TCPIP Stack\UART.c
              __hexatob:0   0x000721       data     extern C:\Users\Tim\Desktop\PIC-WEB-5-42-UEXT-full\Microchip\TCPIP Stack\Helpers.c
       __isIpAddrInPool:0   0x0004ea       data     static C:\Users\Tim\Desktop\PIC-WEB-5-42-UEXT-full\Microchip\TCPIP Stack\DHCPs.c
  __isMacAddr_Effective:0   0x0004f3       data     static C:\Users\Tim\Desktop\PIC-WEB-5-42-UEXT-full\Microchip\TCPIP Stack\DHCPs.c
      __leftRotateDWORD:0   0x000738       data     extern C:\Users\Tim\Desktop\PIC-WEB-5-42-UEXT-full\Microchip\TCPIP Stack\Helpers.c
      __leftRotateDWORD:1   0x00073c       data     extern C:\Users\Tim\Desktop\PIC-WEB-5-42-UEXT-full\Microchip\TCPIP Stack\Helpers.c
               __listen:0   0x00079d       data     extern C:\Users\Tim\Desktop\PIC-WEB-5-42-UEXT-full\Microchip\TCPIP Stack\BerkeleyAPI.c
               __listen:1   0x00079e       data     extern C:\Users\Tim\Desktop\PIC-WEB-5-42-UEXT-full\Microchip\TCPIP Stack\BerkeleyAPI.c
__postAssign_ToDHCPClient_FromPool:0   0x0004f7       data     static C:\Users\Tim\Desktop\PIC-WEB-5-42-UEXT-full\Microchip\TCPIP Stack\DHCPs.c
__postAssign_ToDHCPClient_FromPool:1   0x0004f9       data     static C:\Users\Tim\Desktop\PIC-WEB-5-42-UEXT-full\Microchip\TCPIP Stack\DHCPs.c
__preAssign_ToDHCPClient_FromPool:0   0x0004f5       data     static C:\Users\Tim\Desktop\PIC-WEB-5-42-UEXT-full\Microchip\TCPIP Stack\DHCPs.c
           __putrsUSART:0   0x0009b1       data     extern C:\Users\Tim\Desktop\PIC-WEB-5-42-UEXT-full\Microchip\TCPIP Stack\UART.c
             __putsSPI1:0   0x000f5b       data     extern C:\Users\Tim\Desktop\PIC-WEB-5-42-UEXT-full\TCPIP\Demo App\Olimex_Demo_Files\Custom_SPI_Low.c
            __putsUSART:0   0x0009af       data     extern C:\Users\Tim\Desktop\PIC-WEB-5-42-UEXT-full\Microchip\TCPIP Stack\UART.c
                 __recv:0   0x0007c0       data     extern C:\Users\Tim\Desktop\PIC-WEB-5-42-UEXT-full\Microchip\TCPIP Stack\BerkeleyAPI.c
                 __recv:1   0x0007c1       data     extern C:\Users\Tim\Desktop\PIC-WEB-5-42-UEXT-full\Microchip\TCPIP Stack\BerkeleyAPI.c
                 __recv:2   0x0007c3       data     extern C:\Users\Tim\Desktop\PIC-WEB-5-42-UEXT-full\Microchip\TCPIP Stack\BerkeleyAPI.c
                 __recv:3   0x0007c5       data     extern C:\Users\Tim\Desktop\PIC-WEB-5-42-UEXT-full\Microchip\TCPIP Stack\BerkeleyAPI.c
             __recvfrom:0   0x0007c7       data     extern C:\Users\Tim\Desktop\PIC-WEB-5-42-UEXT-full\Microchip\TCPIP Stack\BerkeleyAPI.c
             __recvfrom:1   0x0007c8       data     extern C:\Users\Tim\Desktop\PIC-WEB-5-42-UEXT-full\Microchip\TCPIP Stack\BerkeleyAPI.c
             __recvfrom:2   0x0007ca       data     extern C:\Users\Tim\Desktop\PIC-WEB-5-42-UEXT-full\Microchip\TCPIP Stack\BerkeleyAPI.c
             __recvfrom:3   0x0007cc       data     extern C:\Users\Tim\Desktop\PIC-WEB-5-42-UEXT-full\Microchip\TCPIP Stack\BerkeleyAPI.c
             __recvfrom:4   0x0007ce       data     extern C:\Users\Tim\Desktop\PIC-WEB-5-42-UEXT-full\Microchip\TCPIP Stack\BerkeleyAPI.c
             __recvfrom:5   0x0007d0       data     extern C:\Users\Tim\Desktop\PIC-WEB-5-42-UEXT-full\Microchip\TCPIP Stack\BerkeleyAPI.c
                 __send:0   0x0007aa       data     extern C:\Users\Tim\Desktop\PIC-WEB-5-42-UEXT-full\Microchip\TCPIP Stack\BerkeleyAPI.c
                 __send:1   0x0007ab       data     extern C:\Users\Tim\Desktop\PIC-WEB-5-42-UEXT-full\Microchip\TCPIP Stack\BerkeleyAPI.c
                 __send:2   0x0007ad       data     extern C:\Users\Tim\Desktop\PIC-WEB-5-42-UEXT-full\Microchip\TCPIP Stack\BerkeleyAPI.c
                 __send:3   0x0007af       data     extern C:\Users\Tim\Desktop\PIC-WEB-5-42-UEXT-full\Microchip\TCPIP Stack\BerkeleyAPI.c
               __sendto:0   0x0007b1       data     extern C:\Users\Tim\Desktop\PIC-WEB-5-42-UEXT-full\Microchip\TCPIP Stack\BerkeleyAPI.c
               __sendto:1   0x0007b2       data     extern C:\Users\Tim\Desktop\PIC-WEB-5-42-UEXT-full\Microchip\TCPIP Stack\BerkeleyAPI.c
               __sendto:2   0x0007b4       data     extern C:\Users\Tim\Desktop\PIC-WEB-5-42-UEXT-full\Microchip\TCPIP Stack\BerkeleyAPI.c
               __sendto:3   0x0007b6       data     extern C:\Users\Tim\Desktop\PIC-WEB-5-42-UEXT-full\Microchip\TCPIP Stack\BerkeleyAPI.c
               __sendto:4   0x0007b8       data     extern C:\Users\Tim\Desktop\PIC-WEB-5-42-UEXT-full\Microchip\TCPIP Stack\BerkeleyAPI.c
               __sendto:5   0x0007ba       data     extern C:\Users\Tim\Desktop\PIC-WEB-5-42-UEXT-full\Microchip\TCPIP Stack\BerkeleyAPI.c
               __socket:0   0x000792       data     extern C:\Users\Tim\Desktop\PIC-WEB-5-42-UEXT-full\Microchip\TCPIP Stack\BerkeleyAPI.c
               __socket:1   0x000794       data     extern C:\Users\Tim\Desktop\PIC-WEB-5-42-UEXT-full\Microchip\TCPIP Stack\BerkeleyAPI.c
               __socket:2   0x000796       data     extern C:\Users\Tim\Desktop\PIC-WEB-5-42-UEXT-full\Microchip\TCPIP Stack\BerkeleyAPI.c
       __stricmppgm2ram:0   0x000725       data     extern C:\Users\Tim\Desktop\PIC-WEB-5-42-UEXT-full\Microchip\TCPIP Stack\Helpers.c
       __stricmppgm2ram:1   0x000727       data     extern C:\Users\Tim\Desktop\PIC-WEB-5-42-UEXT-full\Microchip\TCPIP Stack\Helpers.c
              __strnchr:0   0x00073f       data     extern C:\Users\Tim\Desktop\PIC-WEB-5-42-UEXT-full\Microchip\TCPIP Stack\Helpers.c
              __strnchr:1   0x000741       data     extern C:\Users\Tim\Desktop\PIC-WEB-5-42-UEXT-full\Microchip\TCPIP Stack\Helpers.c
              __strnchr:2   0x000743       data     extern C:\Users\Tim\Desktop\PIC-WEB-5-42-UEXT-full\Microchip\TCPIP Stack\Helpers.c
            __strncpy_m:0   0x000744       data     extern C:\Users\Tim\Desktop\PIC-WEB-5-42-UEXT-full\Microchip\TCPIP Stack\Helpers.c
            __strncpy_m:1   0x000746       data     extern C:\Users\Tim\Desktop\PIC-WEB-5-42-UEXT-full\Microchip\TCPIP Stack\Helpers.c
            __strncpy_m:2   0x000748       data     extern C:\Users\Tim\Desktop\PIC-WEB-5-42-UEXT-full\Microchip\TCPIP Stack\Helpers.c
                __swapl:0   0x00072c       data     extern C:\Users\Tim\Desktop\PIC-WEB-5-42-UEXT-full\Microchip\TCPIP Stack\Helpers.c
                __swaps:0   0x00072a       data     extern C:\Users\Tim\Desktop\PIC-WEB-5-42-UEXT-full\Microchip\TCPIP Stack\Helpers.c
                  __tmp_0   0x000000       data     static C:\Users\Tim\Desktop\PIC-WEB-5-42-UEXT-full\Microchip\TCPIP Stack\TCPPerformanceTest.c
                  __tmp_0   0x000000       data     static C:\Users\Tim\Desktop\PIC-WEB-5-42-UEXT-full\Microchip\TCPIP Stack\Telnet.c
                  __tmp_0   0x000000       data     static C:\Users\Tim\Desktop\PIC-WEB-5-42-UEXT-full\Microchip\TCPIP Stack\UART2TCPBridge.c
                  __tmp_0   0x000000       data     static C:\Users\Tim\Desktop\PIC-WEB-5-42-UEXT-full\TCPIP\Demo App\CustomHTTPApp.c
                  __tmp_0   0x000000       data     static C:\Users\Tim\Desktop\PIC-WEB-5-42-UEXT-full\Microchip\TCPIP Stack\UDP.c
                  __tmp_0   0x000000       data     static C:\Users\Tim\Desktop\PIC-WEB-5-42-UEXT-full\Microchip\TCPIP Stack\TCP.c
                  __tmp_0   0x000000       data     static C:\Users\Tim\Desktop\PIC-WEB-5-42-UEXT-full\Microchip\TCPIP Stack\NBNS.c
                  __tmp_0   0x000000       data     static C:\Users\Tim\Desktop\PIC-WEB-5-42-UEXT-full\Microchip\TCPIP Stack\MPFS2.c
                  __tmp_0   0x000000       data     static C:\Users\Tim\Desktop\PIC-WEB-5-42-UEXT-full\Microchip\TCPIP Stack\Hashes.c
                  __tmp_0   0x000000       data     static E:\3.46\pic18-lt\cxx-framework\src\traditional\stdclib\fabs.c
                  __tmp_0   0x000000       data     static E:\3.46\pic18-lt\cxx-framework\src\traditional\stdclib\exp.c
                  __tmp_0   0x000000       data     static C:\Users\Tim\Desktop\PIC-WEB-5-42-UEXT-full\Microchip\TCPIP Stack\IP.c
                  __tmp_0   0x000000       data     static C:\Users\Tim\Desktop\PIC-WEB-5-42-UEXT-full\Microchip\TCPIP Stack\ICMP.c
                  __tmp_0   0x000000       data     static C:\Users\Tim\Desktop\PIC-WEB-5-42-UEXT-full\TCPIP\Demo App\BerkeleyTCPServerDemo.c
                  __tmp_0   0x000000       data     static C:\Users\Tim\Desktop\PIC-WEB-5-42-UEXT-full\Microchip\TCPIP Stack\HTTP2.c
                  __tmp_0   0x000000       data     static E:\3.46\pic18-lt\cxx-framework\src\traditional\stdclib\fchop.c
                  __tmp_0   0x000000       data     static E:\3.46\pic18-lt\cxx-framework\src\traditional\stdclib\pow.c
                  __tmp_0   0x000000       data     static E:\3.46\pic18-lt\cxx-framework\src\traditional\stdclib\PackMath.c
                  __tmp_0   0x000000       data     static C:\Users\Tim\Desktop\PIC-WEB-5-42-UEXT-full\Microchip\TCPIP Stack\AutoIP.c
                  __tmp_0   0x000000       data     static E:\3.46\pic18-lt\cxx-framework\src\traditional\stdclib\frexp.c
                  __tmp_0   0x000000       data     static C:\Users\Tim\Desktop\PIC-WEB-5-42-UEXT-full\Microchip\TCPIP Stack\ARP.c
                  __tmp_0   0x000000       data     static C:\Users\Tim\Desktop\PIC-WEB-5-42-UEXT-full\TCPIP\Demo App\BerkeleyUDPClientDemo.c
                  __tmp_0   0x000000       data     static E:\3.46\pic18-lt\cxx-framework\src\traditional\stdclib\UnpkMath.c
                  __tmp_0   0x000000       data     static C:\Users\Tim\Desktop\PIC-WEB-5-42-UEXT-full\Microchip\TCPIP Stack\Announce.c
                  __tmp_0   0x000000       data     static E:\3.46\pic18-lt\cxx-framework\src\traditional\stdclib\log.c
                  __tmp_0   0x000000       data     static C:\Users\Tim\Desktop\PIC-WEB-5-42-UEXT-full\TCPIP\Demo App\GenericTCPClient.c
                  __tmp_0   0x000000       data     static C:\Users\Tim\Desktop\PIC-WEB-5-42-UEXT-full\TCPIP\Demo App\Olimex_Demo_Files\Misc_Functions.c
                  __tmp_0   0x000000       data     static C:\Users\Tim\Desktop\PIC-WEB-5-42-UEXT-full\TCPIP\Demo App\GenericTCPServer.c
                  __tmp_0   0x000000       data     static C:\Users\Tim\Desktop\PIC-WEB-5-42-UEXT-full\TCPIP\Demo App\PingDemo.c
                  __tmp_0   0x000000       data     static E:\3.46\pic18-lt\cxx-framework\src\pmc_common\SW_I2C\swgtci2c.c
                  __tmp_0   0x000000       data     static C:\Users\Tim\Desktop\PIC-WEB-5-42-UEXT-full\TCPIP\Demo App\Olimex_Demo_Files\Custom_UART_Low.c
                  __tmp_0   0x000000       data     static C:\Users\Tim\Desktop\PIC-WEB-5-42-UEXT-full\TCPIP\Demo App\SMTPDemo.c
                  __tmp_0   0x000000       data     static C:\Users\Tim\Desktop\PIC-WEB-5-42-UEXT-full\TCPIP\Demo App\Olimex_Demo_Files\Custom_UART.c
                  __tmp_0   0x000000       data     static C:\Users\Tim\Desktop\PIC-WEB-5-42-UEXT-full\Microchip\TCPIP Stack\Helpers.c
                  __tmp_0   0x000000       data     static C:\Users\Tim\Desktop\PIC-WEB-5-42-UEXT-full\TCPIP\Demo App\UARTConfig.c
                  __tmp_0   0x000000       data     static C:\Users\Tim\Desktop\PIC-WEB-5-42-UEXT-full\TCPIP\Demo App\Olimex_Demo_Files\Custom_I2C_Low.c
                  __tmp_0   0x000000       data     static C:\Users\Tim\Desktop\PIC-WEB-5-42-UEXT-full\TCPIP\Demo App\Olimex_Demo_Files\Custom_I2C.c
                  __tmp_0   0x000000       data     static C:\Users\Tim\Desktop\PIC-WEB-5-42-UEXT-full\TCPIP\Demo App\MainDemo.c
                  __tmp_0   0x000000       data     static C:\Users\Tim\Desktop\PIC-WEB-5-42-UEXT-full\Microchip\TCPIP Stack\StackTsk.c
                  __tmp_0   0x000000       data     static E:\3.46\pic18-lt\cxx-framework\src\traditional\stdclib\putc.c
                  __tmp_0   0x000000       data     static E:\3.46\pic18-lt\cxx-framework\src\traditional\stdclib\vfprintf.c
                  __tmp_0   0x000000       data     static C:\Users\Tim\Desktop\PIC-WEB-5-42-UEXT-full\Microchip\TCPIP Stack\DHCP.c
                  __tmp_0   0x000000       data     static C:\Users\Tim\Desktop\PIC-WEB-5-42-UEXT-full\Microchip\TCPIP Stack\SPIFlash.c
                  __tmp_0   0x000000       data     static C:\Users\Tim\Desktop\PIC-WEB-5-42-UEXT-full\Microchip\TCPIP Stack\DHCPs.c
                  __tmp_0   0x000000       data     static C:\Users\Tim\Desktop\PIC-WEB-5-42-UEXT-full\Microchip\TCPIP Stack\DNS.c
                  __tmp_0   0x000000       data     static E:\3.46\pic18-lt\cxx-framework\src\traditional\stdclib\sprintf.c
                  __tmp_0   0x000000       data     static C:\Users\Tim\Desktop\PIC-WEB-5-42-UEXT-full\Microchip\TCPIP Stack\SNTP.c
                  __tmp_0   0x000000       data     static E:\3.46\pic18-lt\cxx-framework\src\traditional\stdclib\ldexp.c
                  __tmp_0   0x000000       data     static C:\Users\Tim\Desktop\PIC-WEB-5-42-UEXT-full\TCPIP\Demo App\BerkeleyTCPClientDemo.c
                  __tmp_0   0x000000       data     static C:\Users\Tim\Desktop\PIC-WEB-5-42-UEXT-full\Microchip\TCPIP Stack\SMTP.c
                  __tmp_0   0x000000       data     static C:\Users\Tim\Desktop\PIC-WEB-5-42-UEXT-full\Microchip\TCPIP Stack\Reboot.c
                  __tmp_0   0x000000       data     static C:\Users\Tim\Desktop\PIC-WEB-5-42-UEXT-full\Microchip\TCPIP Stack\ETH97J60.c
                  __tmp_0   0x000000       data     static C:\Users\Tim\Desktop\PIC-WEB-5-42-UEXT-full\Microchip\TCPIP Stack\BerkeleyAPI.c
                __uitoa:0   0x00071d       data     extern C:\Users\Tim\Desktop\PIC-WEB-5-42-UEXT-full\Microchip\TCPIP Stack\Helpers.c
                __uitoa:1   0x00071f       data     extern C:\Users\Tim\Desktop\PIC-WEB-5-42-UEXT-full\Microchip\TCPIP Stack\Helpers.c
                   _iTemp   0x000c42       data     static C:\Users\Tim\Desktop\PIC-WEB-5-42-UEXT-full\TCPIP\Demo App\CustomHTTPApp.c
                        a   0x000725       data     static C:\Users\Tim\Desktop\PIC-WEB-5-42-UEXT-full\Microchip\TCPIP Stack\Helpers.c
                        a   0x000c00       data     static C:\Users\Tim\Desktop\PIC-WEB-5-42-UEXT-full\Microchip\TCPIP Stack\Hashes.c
          activeUDPSocket   0x0002b8       data     extern C:\Users\Tim\Desktop\PIC-WEB-5-42-UEXT-full\Microchip\TCPIP Stack\UDP.c
                addRemote   0x000c10       data     static C:\Users\Tim\Desktop\PIC-WEB-5-42-UEXT-full\TCPIP\Demo App\BerkeleyTCPServerDemo.c
                     addr   0x000c44       data     static C:\Users\Tim\Desktop\PIC-WEB-5-42-UEXT-full\Microchip\TCPIP Stack\MPFS2.c
                     addr   0x000c0f       data     static C:\Users\Tim\Desktop\PIC-WEB-5-42-UEXT-full\Microchip\TCPIP Stack\BerkeleyAPI.c
                     addr   0x000c00       data     static C:\Users\Tim\Desktop\PIC-WEB-5-42-UEXT-full\TCPIP\Demo App\BerkeleyTCPServerDemo.c
                     addr   0x000cab       data     static C:\Users\Tim\Desktop\PIC-WEB-5-42-UEXT-full\Microchip\TCPIP Stack\SPIFlash.c
                     addr   0x00098b       data     static C:\Users\Tim\Desktop\PIC-WEB-5-42-UEXT-full\TCPIP\Demo App\BerkeleyTCPClientDemo.c
                     addr   0x0007a1       data     static C:\Users\Tim\Desktop\PIC-WEB-5-42-UEXT-full\Microchip\TCPIP Stack\BerkeleyAPI.c
                     addr   0x000cab       data     static C:\Users\Tim\Desktop\PIC-WEB-5-42-UEXT-full\Microchip\TCPIP Stack\SPIFlash.c
               addrRemote   0x000c39       data     static C:\Users\Tim\Desktop\PIC-WEB-5-42-UEXT-full\Microchip\TCPIP Stack\BerkeleyAPI.c
                  address   0x0008c3       data     static C:\Users\Tim\Desktop\PIC-WEB-5-42-UEXT-full\Microchip\TCPIP Stack\ETH97J60.c
                  address   0x0008c1       data     static C:\Users\Tim\Desktop\PIC-WEB-5-42-UEXT-full\Microchip\TCPIP Stack\ETH97J60.c
                  address   0x00088c       data     static C:\Users\Tim\Desktop\PIC-WEB-5-42-UEXT-full\Microchip\TCPIP Stack\SPIFlash.c
                  address   0x000890       data     static C:\Users\Tim\Desktop\PIC-WEB-5-42-UEXT-full\Microchip\TCPIP Stack\SPIFlash.c
                  address   0x000898       data     static C:\Users\Tim\Desktop\PIC-WEB-5-42-UEXT-full\Microchip\TCPIP Stack\SPIFlash.c
                  address   0x0008a1       data     static C:\Users\Tim\Desktop\PIC-WEB-5-42-UEXT-full\Microchip\TCPIP Stack\SPIFlash.c
                  address   0x0008a5       data     static C:\Users\Tim\Desktop\PIC-WEB-5-42-UEXT-full\Microchip\TCPIP Stack\SPIFlash.c
                  address   0x0008ab       data     static C:\Users\Tim\Desktop\PIC-WEB-5-42-UEXT-full\Microchip\TCPIP Stack\SPIFlash.c
                  addrlen   0x000c32       data     static C:\Users\Tim\Desktop\PIC-WEB-5-42-UEXT-full\TCPIP\Demo App\BerkeleyUDPClientDemo.c
                  addrlen   0x0007a3       data     static C:\Users\Tim\Desktop\PIC-WEB-5-42-UEXT-full\Microchip\TCPIP Stack\BerkeleyAPI.c
                  addrlen   0x000c0b       data     static C:\Users\Tim\Desktop\PIC-WEB-5-42-UEXT-full\TCPIP\Demo App\BerkeleyTCPClientDemo.c
                  addrlen   0x000c20       data     static C:\Users\Tim\Desktop\PIC-WEB-5-42-UEXT-full\TCPIP\Demo App\BerkeleyTCPServerDemo.c
                    adres   0x00069e       data     static C:\Users\Tim\Desktop\PIC-WEB-5-42-UEXT-full\TCPIP\Demo App\MainDemo.c
                       af   0x000792       data     static C:\Users\Tim\Desktop\PIC-WEB-5-42-UEXT-full\Microchip\TCPIP Stack\BerkeleyAPI.c
                  arduADC   0x000c00       data     static C:\Users\Tim\Desktop\PIC-WEB-5-42-UEXT-full\TCPIP\Demo App\MainDemo.c
                     args   0x000c00       data     static C:\Users\Tim\Desktop\PIC-WEB-5-42-UEXT-full\Microchip\TCPIP Stack\Helpers.c
                 assigned   0x000c3a       data     static C:\Users\Tim\Desktop\PIC-WEB-5-42-UEXT-full\Microchip\TCPIP Stack\BerkeleyAPI.c
                        b   0x000724       data     static C:\Users\Tim\Desktop\PIC-WEB-5-42-UEXT-full\Microchip\TCPIP Stack\Helpers.c
                        b   0x000727       data     static C:\Users\Tim\Desktop\PIC-WEB-5-42-UEXT-full\Microchip\TCPIP Stack\Helpers.c
                        b   0x000723       data     static C:\Users\Tim\Desktop\PIC-WEB-5-42-UEXT-full\Microchip\TCPIP Stack\Helpers.c
                        b   0x000cc0       data     static C:\Users\Tim\Desktop\PIC-WEB-5-42-UEXT-full\Microchip\TCPIP Stack\Helpers.c
                        b   0x000c04       data     static C:\Users\Tim\Desktop\PIC-WEB-5-42-UEXT-full\Microchip\TCPIP Stack\Hashes.c
                  bAccept   0x000c29       data     static C:\Users\Tim\Desktop\PIC-WEB-5-42-UEXT-full\Microchip\TCPIP Stack\DHCPs.c
                  bAccept   0x0004e6       data     static C:\Users\Tim\Desktop\PIC-WEB-5-42-UEXT-full\Microchip\TCPIP Stack\DHCPs.c
             bCloseSocket   0x000c02       data     static C:\Users\Tim\Desktop\PIC-WEB-5-42-UEXT-full\Microchip\TCPIP Stack\TCP.c
        bCurrentLinkState   0x000c79       data     static C:\Users\Tim\Desktop\PIC-WEB-5-42-UEXT-full\Microchip\TCPIP Stack\StackTsk.c
       bDHCPServerEnabled   0x0009f2       data     extern C:\Users\Tim\Desktop\PIC-WEB-5-42-UEXT-full\Microchip\TCPIP Stack\DHCPs.c
             bInitialized   0x000b35       data     static C:\Users\Tim\Desktop\PIC-WEB-5-42-UEXT-full\Microchip\TCPIP Stack\Telnet.c
           bLastLinkState   0x000b2e       data     static C:\Users\Tim\Desktop\PIC-WEB-5-42-UEXT-full\Microchip\TCPIP Stack\StackTsk.c
                    bQuit   0x000caa       data     static C:\Users\Tim\Desktop\PIC-WEB-5-42-UEXT-full\TCPIP\Demo App\UARTConfig.c
                   bRenew   0x0004e7       data     static C:\Users\Tim\Desktop\PIC-WEB-5-42-UEXT-full\Microchip\TCPIP Stack\DHCPs.c
                   bRenew   0x000c2a       data     static C:\Users\Tim\Desktop\PIC-WEB-5-42-UEXT-full\Microchip\TCPIP Stack\DHCPs.c
                bRenewing   0x0003ff       data     static C:\Users\Tim\Desktop\PIC-WEB-5-42-UEXT-full\Microchip\TCPIP Stack\DHCP.c
              bRetransmit   0x000c01       data     static C:\Users\Tim\Desktop\PIC-WEB-5-42-UEXT-full\Microchip\TCPIP Stack\TCP.c
       bSegmentAcceptable   0x000c3e       data     static C:\Users\Tim\Desktop\PIC-WEB-5-42-UEXT-full\Microchip\TCPIP Stack\TCP.c
          bSocketWasReset   0x000c58       data     static C:\Users\Tim\Desktop\PIC-WEB-5-42-UEXT-full\Microchip\TCPIP Stack\BerkeleyAPI.c
             bTextCompare   0x0003a6       data     static C:\Users\Tim\Desktop\PIC-WEB-5-42-UEXT-full\Microchip\TCPIP Stack\TCP.c
             bTextCompare   0x000394       data     static C:\Users\Tim\Desktop\PIC-WEB-5-42-UEXT-full\Microchip\TCPIP Stack\TCP.c
             bTextCompare   0x00039f       data     static C:\Users\Tim\Desktop\PIC-WEB-5-42-UEXT-full\Microchip\TCPIP Stack\TCP.c
                  backlog   0x00079e       data     static C:\Users\Tim\Desktop\PIC-WEB-5-42-UEXT-full\Microchip\TCPIP Stack\BerkeleyAPI.c
                      bfr   0x000c22       data     static C:\Users\Tim\Desktop\PIC-WEB-5-42-UEXT-full\TCPIP\Demo App\BerkeleyTCPServerDemo.c
                   binary   0x000c12       data     static C:\Users\Tim\Desktop\PIC-WEB-5-42-UEXT-full\Microchip\TCPIP Stack\Telnet.c
                     bits   0x00073c       data     static C:\Users\Tim\Desktop\PIC-WEB-5-42-UEXT-full\Microchip\TCPIP Stack\Helpers.c
                 blockLen   0x000c04       data     static C:\Users\Tim\Desktop\PIC-WEB-5-42-UEXT-full\TCPIP\Demo App\UARTConfig.c
                 blockPtr   0x000c1a       data     static C:\Users\Tim\Desktop\PIC-WEB-5-42-UEXT-full\Microchip\TCPIP Stack\Hashes.c
                 blockPtr   0x000c1a       data     static C:\Users\Tim\Desktop\PIC-WEB-5-42-UEXT-full\Microchip\TCPIP Stack\Hashes.c
          bsdClientSocket   0x00098a       data     static C:\Users\Tim\Desktop\PIC-WEB-5-42-UEXT-full\TCPIP\Demo App\BerkeleyTCPClientDemo.c
          bsdServerSocket   0x000b16       data     static C:\Users\Tim\Desktop\PIC-WEB-5-42-UEXT-full\TCPIP\Demo App\BerkeleyTCPServerDemo.c
             bsdUdpClient   0x000967       data     static C:\Users\Tim\Desktop\PIC-WEB-5-42-UEXT-full\TCPIP\Demo App\BerkeleyUDPClientDemo.c
                      buf   0x0007ab       data     static C:\Users\Tim\Desktop\PIC-WEB-5-42-UEXT-full\Microchip\TCPIP Stack\BerkeleyAPI.c
                      buf   0x0007b2       data     static C:\Users\Tim\Desktop\PIC-WEB-5-42-UEXT-full\Microchip\TCPIP Stack\BerkeleyAPI.c
                      buf   0x0007c1       data     static C:\Users\Tim\Desktop\PIC-WEB-5-42-UEXT-full\Microchip\TCPIP Stack\BerkeleyAPI.c
                      buf   0x0007c8       data     static C:\Users\Tim\Desktop\PIC-WEB-5-42-UEXT-full\Microchip\TCPIP Stack\BerkeleyAPI.c
                      buf   0x000c02       data     static C:\Users\Tim\Desktop\PIC-WEB-5-42-UEXT-full\Microchip\TCPIP Stack\HTTP2.c
                      buf   0x000c02       data     static C:\Users\Tim\Desktop\PIC-WEB-5-42-UEXT-full\Microchip\TCPIP Stack\HTTP2.c
                   buffer   0x000cd1       data     static C:\Users\Tim\Desktop\PIC-WEB-5-42-UEXT-full\Microchip\TCPIP Stack\HTTP2.c
                   buffer   0x000894       data     static C:\Users\Tim\Desktop\PIC-WEB-5-42-UEXT-full\Microchip\TCPIP Stack\SPIFlash.c
                   buffer   0x000c54       data     static C:\Users\Tim\Desktop\PIC-WEB-5-42-UEXT-full\Microchip\TCPIP Stack\TCP.c
                   buffer   0x0009ac       data     static C:\Users\Tim\Desktop\PIC-WEB-5-42-UEXT-full\Microchip\TCPIP Stack\UART.c
                   buffer   0x000730       data     static C:\Users\Tim\Desktop\PIC-WEB-5-42-UEXT-full\Microchip\TCPIP Stack\Helpers.c
                   buffer   0x000c55       data     static C:\Users\Tim\Desktop\PIC-WEB-5-42-UEXT-full\Microchip\TCPIP Stack\TCP.c
                   buffer   0x00037c       data     static C:\Users\Tim\Desktop\PIC-WEB-5-42-UEXT-full\Microchip\TCPIP Stack\TCP.c
                 bus_mode   0x000f5e       data     static C:\Users\Tim\Desktop\PIC-WEB-5-42-UEXT-full\TCPIP\Demo App\Olimex_Demo_Files\Custom_SPI_Low.c
                     byte   0x0008a9       data     static C:\Users\Tim\Desktop\PIC-WEB-5-42-UEXT-full\Microchip\TCPIP Stack\SPIFlash.c
                     byte   0x000379       data     static C:\Users\Tim\Desktop\PIC-WEB-5-42-UEXT-full\Microchip\TCPIP Stack\TCP.c
                     byte   0x000362       data     static C:\Users\Tim\Desktop\PIC-WEB-5-42-UEXT-full\Microchip\TCPIP Stack\TCP.c
                        c   0x000743       data     static C:\Users\Tim\Desktop\PIC-WEB-5-42-UEXT-full\Microchip\TCPIP Stack\Helpers.c
                        c   0x000c00       data     static C:\Users\Tim\Desktop\PIC-WEB-5-42-UEXT-full\Microchip\TCPIP Stack\UART.c
                        c   0x000c01       data     static C:\Users\Tim\Desktop\PIC-WEB-5-42-UEXT-full\TCPIP\Demo App\UARTConfig.c
                        c   0x000ccc       data     static C:\Users\Tim\Desktop\PIC-WEB-5-42-UEXT-full\Microchip\TCPIP Stack\HTTP2.c
                        c   0x000c04       data     static C:\Users\Tim\Desktop\PIC-WEB-5-42-UEXT-full\Microchip\TCPIP Stack\HTTP2.c
                        c   0x000c3f       data     static C:\Users\Tim\Desktop\PIC-WEB-5-42-UEXT-full\Microchip\TCPIP Stack\HTTP2.c
                        c   0x000c03       data     static C:\Users\Tim\Desktop\PIC-WEB-5-42-UEXT-full\Microchip\TCPIP Stack\SMTP.c
                        c   0x000c02       data     static C:\Users\Tim\Desktop\PIC-WEB-5-42-UEXT-full\Microchip\TCPIP Stack\SMTP.c
                        c   0x000c00       data     static C:\Users\Tim\Desktop\PIC-WEB-5-42-UEXT-full\Microchip\TCPIP Stack\HTTP2.c
                        c   0x000f3f       data     static C:\Users\Tim\Desktop\PIC-WEB-5-42-UEXT-full\Microchip\TCPIP Stack\SMTP.c
                        c   0x000c17       data     static C:\Users\Tim\Desktop\PIC-WEB-5-42-UEXT-full\Microchip\TCPIP Stack\MPFS2.c
                        c   0x000c08       data     static C:\Users\Tim\Desktop\PIC-WEB-5-42-UEXT-full\Microchip\TCPIP Stack\Hashes.c
                        c   0x000c5d       data     static C:\Users\Tim\Desktop\PIC-WEB-5-42-UEXT-full\Microchip\TCPIP Stack\MPFS2.c
                        c   0x0000d4       data     static C:\Users\Tim\Desktop\PIC-WEB-5-42-UEXT-full\Microchip\TCPIP Stack\MPFS2.c
                       c2   0x000c00       data     static C:\Users\Tim\Desktop\PIC-WEB-5-42-UEXT-full\Microchip\TCPIP Stack\Helpers.c
                       cA   0x000c00       data     static C:\Users\Tim\Desktop\PIC-WEB-5-42-UEXT-full\Microchip\TCPIP Stack\Helpers.c
                     cArg   0x00090e       data     static C:\Users\Tim\Desktop\PIC-WEB-5-42-UEXT-full\Microchip\TCPIP Stack\HTTP2.c
                     cArg   0x00090a       data     static C:\Users\Tim\Desktop\PIC-WEB-5-42-UEXT-full\Microchip\TCPIP Stack\HTTP2.c
                       cB   0x000c01       data     static C:\Users\Tim\Desktop\PIC-WEB-5-42-UEXT-full\Microchip\TCPIP Stack\Helpers.c
                    cData   0x0002d5       data     static C:\Users\Tim\Desktop\PIC-WEB-5-42-UEXT-full\Microchip\TCPIP Stack\UDP.c
                    cData   0x0002d9       data     static C:\Users\Tim\Desktop\PIC-WEB-5-42-UEXT-full\Microchip\TCPIP Stack\UDP.c
                    cData   0x00091a       data     static C:\Users\Tim\Desktop\PIC-WEB-5-42-UEXT-full\Microchip\TCPIP Stack\HTTP2.c
                    cData   0x000915       data     static C:\Users\Tim\Desktop\PIC-WEB-5-42-UEXT-full\Microchip\TCPIP Stack\HTTP2.c
                    cData   0x000911       data     static C:\Users\Tim\Desktop\PIC-WEB-5-42-UEXT-full\Microchip\TCPIP Stack\HTTP2.c
                    cData   0x00090c       data     static C:\Users\Tim\Desktop\PIC-WEB-5-42-UEXT-full\Microchip\TCPIP Stack\HTTP2.c
                    cData   0x0000e5       data     static C:\Users\Tim\Desktop\PIC-WEB-5-42-UEXT-full\Microchip\TCPIP Stack\MPFS2.c
                    cData   0x000908       data     static C:\Users\Tim\Desktop\PIC-WEB-5-42-UEXT-full\Microchip\TCPIP Stack\HTTP2.c
                    cData   0x000906       data     static C:\Users\Tim\Desktop\PIC-WEB-5-42-UEXT-full\Microchip\TCPIP Stack\HTTP2.c
                    cData   0x0000d7       data     static C:\Users\Tim\Desktop\PIC-WEB-5-42-UEXT-full\Microchip\TCPIP Stack\MPFS2.c
                    cData   0x0002e6       data     static C:\Users\Tim\Desktop\PIC-WEB-5-42-UEXT-full\Microchip\TCPIP Stack\UDP.c
                   cDelim   0x000919       data     static C:\Users\Tim\Desktop\PIC-WEB-5-42-UEXT-full\Microchip\TCPIP Stack\HTTP2.c
                cDestData   0x000711       data     static C:\Users\Tim\Desktop\PIC-WEB-5-42-UEXT-full\Microchip\TCPIP Stack\Helpers.c
                cDestData   0x000719       data     static C:\Users\Tim\Desktop\PIC-WEB-5-42-UEXT-full\Microchip\TCPIP Stack\Helpers.c
                    cFile   0x0000cd       data     static C:\Users\Tim\Desktop\PIC-WEB-5-42-UEXT-full\Microchip\TCPIP Stack\MPFS2.c
                    cFile   0x0000cb       data     static C:\Users\Tim\Desktop\PIC-WEB-5-42-UEXT-full\Microchip\TCPIP Stack\MPFS2.c
                    cFile   0x000e00       data     static C:\Users\Tim\Desktop\PIC-WEB-5-42-UEXT-full\TCPIP\Demo App\CustomHTTPApp.c
                    cFile   0x00091e       data     static C:\Users\Tim\Desktop\PIC-WEB-5-42-UEXT-full\Microchip\TCPIP Stack\HTTP2.c
                    cFind   0x0003a1       data     static C:\Users\Tim\Desktop\PIC-WEB-5-42-UEXT-full\Microchip\TCPIP Stack\TCP.c
               cFindArray   0x00038c       data     static C:\Users\Tim\Desktop\PIC-WEB-5-42-UEXT-full\Microchip\TCPIP Stack\TCP.c
               cFindArray   0x000396       data     static C:\Users\Tim\Desktop\PIC-WEB-5-42-UEXT-full\Microchip\TCPIP Stack\TCP.c
          cFindArrayStart   0x000c4e       data     static C:\Users\Tim\Desktop\PIC-WEB-5-42-UEXT-full\Microchip\TCPIP Stack\TCP.c
          cFindArrayStart   0x000c4e       data     static C:\Users\Tim\Desktop\PIC-WEB-5-42-UEXT-full\Microchip\TCPIP Stack\TCP.c
               cFrameType   0x000c77       data     static C:\Users\Tim\Desktop\PIC-WEB-5-42-UEXT-full\Microchip\TCPIP Stack\StackTsk.c
             cIPFrameType   0x000c78       data     static C:\Users\Tim\Desktop\PIC-WEB-5-42-UEXT-full\Microchip\TCPIP Stack\StackTsk.c
                    cName   0x000c04       data     static C:\Users\Tim\Desktop\PIC-WEB-5-42-UEXT-full\TCPIP\Demo App\CustomHTTPApp.c
                    cName   0x0000f4       data     static C:\Users\Tim\Desktop\PIC-WEB-5-42-UEXT-full\Microchip\TCPIP Stack\MPFS2.c
                    cPass   0x000e04       data     static C:\Users\Tim\Desktop\PIC-WEB-5-42-UEXT-full\TCPIP\Demo App\CustomHTTPApp.c
              cSourceData   0x000715       data     static C:\Users\Tim\Desktop\PIC-WEB-5-42-UEXT-full\Microchip\TCPIP Stack\Helpers.c
              cSourceData   0x00070d       data     static C:\Users\Tim\Desktop\PIC-WEB-5-42-UEXT-full\Microchip\TCPIP Stack\Helpers.c
                    cUser   0x000e02       data     static C:\Users\Tim\Desktop\PIC-WEB-5-42-UEXT-full\TCPIP\Demo App\CustomHTTPApp.c
               callbackID   0x000900       data     static C:\Users\Tim\Desktop\PIC-WEB-5-42-UEXT-full\TCPIP\Demo App\HTTPPrint.h
                  charLen   0x000c39       data     static C:\Users\Tim\Desktop\PIC-WEB-5-42-UEXT-full\Microchip\TCPIP Stack\Helpers.c
                  charLen   0x000c3e       data     static C:\Users\Tim\Desktop\PIC-WEB-5-42-UEXT-full\Microchip\TCPIP Stack\Helpers.c
                checksum1   0x000c20       data     static C:\Users\Tim\Desktop\PIC-WEB-5-42-UEXT-full\Microchip\TCPIP Stack\TCP.c
                checksum2   0x000c22       data     static C:\Users\Tim\Desktop\PIC-WEB-5-42-UEXT-full\Microchip\TCPIP Stack\TCP.c
                checksums   0x000c15       data     static C:\Users\Tim\Desktop\PIC-WEB-5-42-UEXT-full\Microchip\TCPIP Stack\UDP.c
             clientSockID   0x000c37       data     static C:\Users\Tim\Desktop\PIC-WEB-5-42-UEXT-full\Microchip\TCPIP Stack\BerkeleyAPI.c
                     conn   0x000cfc       data     static C:\Users\Tim\Desktop\PIC-WEB-5-42-UEXT-full\Microchip\TCPIP Stack\HTTP2.c
                    count   0x000c01       data     static C:\Users\Tim\Desktop\PIC-WEB-5-42-UEXT-full\Microchip\TCPIP Stack\UART.c
                    count   0x000741       data     static C:\Users\Tim\Desktop\PIC-WEB-5-42-UEXT-full\Microchip\TCPIP Stack\Helpers.c
                    count   0x000732       data     static C:\Users\Tim\Desktop\PIC-WEB-5-42-UEXT-full\Microchip\TCPIP Stack\Helpers.c
                  curHTTP   0x000400       data     extern C:\Users\Tim\Desktop\PIC-WEB-5-42-UEXT-full\Microchip\TCPIP Stack\HTTP2.c
                curHTTPID   0x000483       data     extern C:\Users\Tim\Desktop\PIC-WEB-5-42-UEXT-full\Microchip\TCPIP Stack\HTTP2.c
                curr_byte   0x0002f9       data     static E:\3.46\pic18-lt\cxx-framework\src\traditional\startup\c018i.c
               curr_entry   0x0002fb       data     static E:\3.46\pic18-lt\cxx-framework\src\traditional\startup\c018i.c
             currentOctet   0x000c3a       data     static C:\Users\Tim\Desktop\PIC-WEB-5-42-UEXT-full\Microchip\TCPIP Stack\Helpers.c
             currentOctet   0x000c3f       data     static C:\Users\Tim\Desktop\PIC-WEB-5-42-UEXT-full\Microchip\TCPIP Stack\Helpers.c
              currentTick   0x000c8a       data     static C:\Users\Tim\Desktop\PIC-WEB-5-42-UEXT-full\TCPIP\Demo App\UARTConfig.c
            current_timer   0x000c2f       data     static C:\Users\Tim\Desktop\PIC-WEB-5-42-UEXT-full\Microchip\TCPIP Stack\DHCPs.c
                        d   0x000c0c       data     static C:\Users\Tim\Desktop\PIC-WEB-5-42-UEXT-full\Microchip\TCPIP Stack\Hashes.c
                     data   0x0005ca       data     static C:\Users\Tim\Desktop\PIC-WEB-5-42-UEXT-full\Microchip\TCPIP Stack\Hashes.c
                     data   0x000369       data     static C:\Users\Tim\Desktop\PIC-WEB-5-42-UEXT-full\Microchip\TCPIP Stack\TCP.c
                     data   0x000c04       data     static C:\Users\Tim\Desktop\PIC-WEB-5-42-UEXT-full\Microchip\TCPIP Stack\HTTP2.c
                     data   0x000364       data     static C:\Users\Tim\Desktop\PIC-WEB-5-42-UEXT-full\Microchip\TCPIP Stack\TCP.c
                     data   0x00036f       data     static C:\Users\Tim\Desktop\PIC-WEB-5-42-UEXT-full\Microchip\TCPIP Stack\TCP.c
                     data   0x0005b0       data     static C:\Users\Tim\Desktop\PIC-WEB-5-42-UEXT-full\Microchip\TCPIP Stack\Hashes.c
                     data   0x0005b6       data     static C:\Users\Tim\Desktop\PIC-WEB-5-42-UEXT-full\Microchip\TCPIP Stack\Hashes.c
                     data   0x000372       data     static C:\Users\Tim\Desktop\PIC-WEB-5-42-UEXT-full\Microchip\TCPIP Stack\TCP.c
                     data   0x000c05       data     static C:\Users\Tim\Desktop\PIC-WEB-5-42-UEXT-full\Microchip\TCPIP Stack\HTTP2.c
                     data   0x0005c5       data     static C:\Users\Tim\Desktop\PIC-WEB-5-42-UEXT-full\Microchip\TCPIP Stack\Hashes.c
                     data   0x000b04       data     static C:\Users\Tim\Desktop\PIC-WEB-5-42-UEXT-full\TCPIP\Demo App\Olimex_Demo_Files\Custom_UART_Low.c
                     data   0x0009ab       data     static C:\Users\Tim\Desktop\PIC-WEB-5-42-UEXT-full\Microchip\TCPIP Stack\UART.c
                     data   0x0005bf       data     static C:\Users\Tim\Desktop\PIC-WEB-5-42-UEXT-full\Microchip\TCPIP Stack\Hashes.c
                     data   0x0009b1       data     static C:\Users\Tim\Desktop\PIC-WEB-5-42-UEXT-full\Microchip\TCPIP Stack\UART.c
                     data   0x000c01       data     static C:\Users\Tim\Desktop\PIC-WEB-5-42-UEXT-full\Microchip\TCPIP Stack\UART.c
                     data   0x0009af       data     static C:\Users\Tim\Desktop\PIC-WEB-5-42-UEXT-full\Microchip\TCPIP Stack\UART.c
                dataCount   0x000c71       data     static C:\Users\Tim\Desktop\PIC-WEB-5-42-UEXT-full\Microchip\TCPIP Stack\StackTsk.c
                  dataLen   0x0008bd       data     static C:\Users\Tim\Desktop\PIC-WEB-5-42-UEXT-full\Microchip\TCPIP Stack\ETH97J60.c
                 data_out   0x000f57       data     static C:\Users\Tim\Desktop\PIC-WEB-5-42-UEXT-full\TCPIP\Demo App\Olimex_Demo_Files\Custom_SPI_Low.c
                 data_out   0x000b33       data     static C:\Users\Tim\Desktop\PIC-WEB-5-42-UEXT-full\TCPIP\Demo App\Olimex_Demo_Files\Custom_I2C_Low.c
                 data_ptr   0x0002fd       data     static E:\3.46\pic18-lt\cxx-framework\src\traditional\startup\c018i.c
                 destAddr   0x0008cb       data     static C:\Users\Tim\Desktop\PIC-WEB-5-42-UEXT-full\Microchip\TCPIP Stack\ETH97J60.c
              destIPValue   0x000ca6       data     static C:\Users\Tim\Desktop\PIC-WEB-5-42-UEXT-full\TCPIP\Demo App\UARTConfig.c
                 destSize   0x000746       data     static C:\Users\Tim\Desktop\PIC-WEB-5-42-UEXT-full\Microchip\TCPIP Stack\Helpers.c
                  destStr   0x000744       data     static C:\Users\Tim\Desktop\PIC-WEB-5-42-UEXT-full\Microchip\TCPIP Stack\Helpers.c
               dhcp_timer   0x0009f5       data     static C:\Users\Tim\Desktop\PIC-WEB-5-42-UEXT-full\Microchip\TCPIP Stack\DHCPs.c
                   digits   0x000c00       data     static C:\Users\Tim\Desktop\PIC-WEB-5-42-UEXT-full\TCPIP\Demo App\CustomHTTPApp.c
                    dummy   0x000c0e       data     static C:\Users\Tim\Desktop\PIC-WEB-5-42-UEXT-full\Microchip\TCPIP Stack\UART2TCPBridge.c
                       dw   0x000c0c       data     static C:\Users\Tim\Desktop\PIC-WEB-5-42-UEXT-full\Microchip\TCPIP Stack\TCPPerformanceTest.c
                       dw   0x000c37       data     static C:\Users\Tim\Desktop\PIC-WEB-5-42-UEXT-full\Microchip\TCPIP Stack\DHCPs.c
                       dw   0x000c25       data     static C:\Users\Tim\Desktop\PIC-WEB-5-42-UEXT-full\Microchip\TCPIP Stack\DHCPs.c
                       dw   0x000c10       data     static C:\Users\Tim\Desktop\PIC-WEB-5-42-UEXT-full\Microchip\TCPIP Stack\TCPPerformanceTest.c
                       dw   0x000cab       data     static C:\Users\Tim\Desktop\PIC-WEB-5-42-UEXT-full\Microchip\TCPIP Stack\Tick.c
                       dw   0x000c82       data     static C:\Users\Tim\Desktop\PIC-WEB-5-42-UEXT-full\Microchip\TCPIP Stack\Tick.c
                       dw   0x000c34       data     static C:\Users\Tim\Desktop\PIC-WEB-5-42-UEXT-full\Microchip\TCPIP Stack\Tick.c
              dwBytesRead   0x00093d       data     static C:\Users\Tim\Desktop\PIC-WEB-5-42-UEXT-full\Microchip\TCPIP Stack\TCPPerformanceTest.c
              dwBytesSent   0x000925       data     static C:\Users\Tim\Desktop\PIC-WEB-5-42-UEXT-full\Microchip\TCPIP Stack\TCPPerformanceTest.c
          dwInternalTicks   0x000b1a       data     static C:\Users\Tim\Desktop\PIC-WEB-5-42-UEXT-full\Microchip\TCPIP Stack\Tick.c
           dwLFSRRandSeed   0x000b1e       data     static C:\Users\Tim\Desktop\PIC-WEB-5-42-UEXT-full\Microchip\TCPIP Stack\Helpers.c
                 dwLastIP   0x0009e4       data     static C:\Users\Tim\Desktop\PIC-WEB-5-42-UEXT-full\TCPIP\Demo App\MainDemo.c
         dwLastUpdateTick   0x0009ec       data     static C:\Users\Tim\Desktop\PIC-WEB-5-42-UEXT-full\TCPIP\Demo App\BerkeleyUDPClientDemo.c
         dwLastUpdateTick   0x0009d8       data     static C:\Users\Tim\Desktop\PIC-WEB-5-42-UEXT-full\Microchip\TCPIP Stack\SNTP.c
                 dwOffset   0x0000df       data     static C:\Users\Tim\Desktop\PIC-WEB-5-42-UEXT-full\Microchip\TCPIP Stack\MPFS2.c
                dwOldSeed   0x000c1f       data     static C:\Users\Tim\Desktop\PIC-WEB-5-42-UEXT-full\Microchip\TCPIP Stack\Helpers.c
             dwRemoteHost   0x000346       data     static C:\Users\Tim\Desktop\PIC-WEB-5-42-UEXT-full\Microchip\TCPIP Stack\TCP.c
               dwRemoteIP   0x000956       data     static C:\Users\Tim\Desktop\PIC-WEB-5-42-UEXT-full\Microchip\TCPIP Stack\ICMP.c
            dwSNTPSeconds   0x0009d4       data     static C:\Users\Tim\Desktop\PIC-WEB-5-42-UEXT-full\Microchip\TCPIP Stack\SNTP.c
            dwSNTPSeconds   0x0009e8       data     static C:\Users\Tim\Desktop\PIC-WEB-5-42-UEXT-full\TCPIP\Demo App\BerkeleyUDPClientDemo.c
                   dwSeed   0x000700       data     static C:\Users\Tim\Desktop\PIC-WEB-5-42-UEXT-full\Microchip\TCPIP Stack\Helpers.c
               dwServerIP   0x00095f       data     static C:\Users\Tim\Desktop\PIC-WEB-5-42-UEXT-full\TCPIP\Demo App\BerkeleyUDPClientDemo.c
                   dwTemp   0x000c25       data     static C:\Users\Tim\Desktop\PIC-WEB-5-42-UEXT-full\Microchip\TCPIP Stack\TCP.c
                   dwTick   0x000c04       data     static C:\Users\Tim\Desktop\PIC-WEB-5-42-UEXT-full\TCPIP\Demo App\BerkeleyUDPClientDemo.c
                   dwTick   0x000c48       data     static C:\Users\Tim\Desktop\PIC-WEB-5-42-UEXT-full\Microchip\TCPIP Stack\SNTP.c
              dwTickDelta   0x000c44       data     static C:\Users\Tim\Desktop\PIC-WEB-5-42-UEXT-full\Microchip\TCPIP Stack\SNTP.c
              dwTickDelta   0x000c00       data     static C:\Users\Tim\Desktop\PIC-WEB-5-42-UEXT-full\TCPIP\Demo App\BerkeleyUDPClientDemo.c
              dwTickValue   0x0009c6       data     static C:\Users\Tim\Desktop\PIC-WEB-5-42-UEXT-full\Microchip\TCPIP Stack\Tick.c
                   dwTime   0x0000fc       data     static C:\Users\Tim\Desktop\PIC-WEB-5-42-UEXT-full\Microchip\TCPIP Stack\Telnet.c
              dwTimeStart   0x000939       data     static C:\Users\Tim\Desktop\PIC-WEB-5-42-UEXT-full\Microchip\TCPIP Stack\TCPPerformanceTest.c
              dwTimeStart   0x000921       data     static C:\Users\Tim\Desktop\PIC-WEB-5-42-UEXT-full\Microchip\TCPIP Stack\TCPPerformanceTest.c
                  dwTimer   0x0001fc       data     static C:\Users\Tim\Desktop\PIC-WEB-5-42-UEXT-full\Microchip\TCPIP Stack\SNTP.c
                  dwTimer   0x000963       data     static C:\Users\Tim\Desktop\PIC-WEB-5-42-UEXT-full\TCPIP\Demo App\BerkeleyUDPClientDemo.c
              dwTotalTime   0x000c07       data     static C:\Users\Tim\Desktop\PIC-WEB-5-42-UEXT-full\Microchip\TCPIP Stack\Helpers.c
                  dwVLine   0x000929       data     static C:\Users\Tim\Desktop\PIC-WEB-5-42-UEXT-full\Microchip\TCPIP Stack\TCPPerformanceTest.c
                    dwVal   0x000c00       data     static C:\Users\Tim\Desktop\PIC-WEB-5-42-UEXT-full\Microchip\TCPIP Stack\ICMP.c
                    dwVal   0x000c39       data     static C:\Users\Tim\Desktop\PIC-WEB-5-42-UEXT-full\Microchip\TCPIP Stack\Helpers.c
                    dwVal   0x000c34       data     static C:\Users\Tim\Desktop\PIC-WEB-5-42-UEXT-full\Microchip\TCPIP Stack\Helpers.c
                      end   0x000c04       data     static C:\Users\Tim\Desktop\PIC-WEB-5-42-UEXT-full\Microchip\TCPIP Stack\Helpers.c
                   endPtr   0x000c2d       data     static C:\Users\Tim\Desktop\PIC-WEB-5-42-UEXT-full\Microchip\TCPIP Stack\Hashes.c
                    errno   0x000b25       data     extern E:\3.46\pic18-lt\cxx-framework\src\traditional\stdclib\errno.c
                      ext   0x000ccf       data     static C:\Users\Tim\Desktop\PIC-WEB-5-42-UEXT-full\Microchip\TCPIP Stack\HTTP2.c
                        f   0x000c10       data     static C:\Users\Tim\Desktop\PIC-WEB-5-42-UEXT-full\Microchip\TCPIP Stack\Hashes.c
                 fatCache   0x0000b1       data     static C:\Users\Tim\Desktop\PIC-WEB-5-42-UEXT-full\Microchip\TCPIP Stack\MPFS2.c
               fatCacheID   0x0000c7       data     static C:\Users\Tim\Desktop\PIC-WEB-5-42-UEXT-full\Microchip\TCPIP Stack\MPFS2.c
                    fatID   0x0000ea       data     static C:\Users\Tim\Desktop\PIC-WEB-5-42-UEXT-full\Microchip\TCPIP Stack\MPFS2.c
                 filename   0x000ce1       data     static C:\Users\Tim\Desktop\PIC-WEB-5-42-UEXT-full\TCPIP\Demo App\CustomHTTPApp.c
                 filename   0x000c02       data     static C:\Users\Tim\Desktop\PIC-WEB-5-42-UEXT-full\TCPIP\Demo App\CustomHTTPApp.c
                    final   0x0000e9       data     static C:\Users\Tim\Desktop\PIC-WEB-5-42-UEXT-full\Microchip\TCPIP Stack\MPFS2.c
                flag_init   0x0009f4       data     static C:\Users\Tim\Desktop\PIC-WEB-5-42-UEXT-full\Microchip\TCPIP Stack\DHCPs.c
                    flags   0x0007cc       data     static C:\Users\Tim\Desktop\PIC-WEB-5-42-UEXT-full\Microchip\TCPIP Stack\BerkeleyAPI.c
                    flags   0x0008b3       data     static C:\Users\Tim\Desktop\PIC-WEB-5-42-UEXT-full\Microchip\TCPIP Stack\ETH97J60.c
                    flags   0x0007c5       data     static C:\Users\Tim\Desktop\PIC-WEB-5-42-UEXT-full\Microchip\TCPIP Stack\BerkeleyAPI.c
                    flags   0x0007af       data     static C:\Users\Tim\Desktop\PIC-WEB-5-42-UEXT-full\Microchip\TCPIP Stack\BerkeleyAPI.c
                    flags   0x0007b6       data     static C:\Users\Tim\Desktop\PIC-WEB-5-42-UEXT-full\Microchip\TCPIP Stack\BerkeleyAPI.c
                       fp   0x000c44       data     static C:\Users\Tim\Desktop\PIC-WEB-5-42-UEXT-full\Microchip\TCPIP Stack\HTTP2.c
                     from   0x0007ce       data     static C:\Users\Tim\Desktop\PIC-WEB-5-42-UEXT-full\Microchip\TCPIP Stack\BerkeleyAPI.c
                  fromlen   0x0007d0       data     static C:\Users\Tim\Desktop\PIC-WEB-5-42-UEXT-full\Microchip\TCPIP Stack\BerkeleyAPI.c
          gAutoPortNumber   0x000b31       data     static C:\Users\Tim\Desktop\PIC-WEB-5-42-UEXT-full\Microchip\TCPIP Stack\BerkeleyAPI.c
                        h   0x000c55       data     static C:\Users\Tim\Desktop\PIC-WEB-5-42-UEXT-full\Microchip\TCPIP Stack\UDP.c
                        h   0x000c00       data     static C:\Users\Tim\Desktop\PIC-WEB-5-42-UEXT-full\Microchip\TCPIP Stack\UDP.c
                        h   0x000988       data     static C:\Users\Tim\Desktop\PIC-WEB-5-42-UEXT-full\Microchip\TCPIP Stack\IP.c
                        h   0x0003b5       data     static C:\Users\Tim\Desktop\PIC-WEB-5-42-UEXT-full\Microchip\TCPIP Stack\TCP.c
                        h   0x0003af       data     static C:\Users\Tim\Desktop\PIC-WEB-5-42-UEXT-full\Microchip\TCPIP Stack\TCP.c
                        h   0x0002f0       data     static C:\Users\Tim\Desktop\PIC-WEB-5-42-UEXT-full\Microchip\TCPIP Stack\UDP.c
                       h0   0x0005cc       data     static C:\Users\Tim\Desktop\PIC-WEB-5-42-UEXT-full\Microchip\TCPIP Stack\Hashes.c
                       h0   0x000c1a       data     static C:\Users\Tim\Desktop\PIC-WEB-5-42-UEXT-full\Microchip\TCPIP Stack\Hashes.c
                       h1   0x0005ce       data     static C:\Users\Tim\Desktop\PIC-WEB-5-42-UEXT-full\Microchip\TCPIP Stack\Hashes.c
                       h1   0x000c1e       data     static C:\Users\Tim\Desktop\PIC-WEB-5-42-UEXT-full\Microchip\TCPIP Stack\Hashes.c
                       h2   0x000c22       data     static C:\Users\Tim\Desktop\PIC-WEB-5-42-UEXT-full\Microchip\TCPIP Stack\Hashes.c
                       h2   0x0005d0       data     static C:\Users\Tim\Desktop\PIC-WEB-5-42-UEXT-full\Microchip\TCPIP Stack\Hashes.c
                       h3   0x000c26       data     static C:\Users\Tim\Desktop\PIC-WEB-5-42-UEXT-full\Microchip\TCPIP Stack\Hashes.c
                       h3   0x0005d2       data     static C:\Users\Tim\Desktop\PIC-WEB-5-42-UEXT-full\Microchip\TCPIP Stack\Hashes.c
              hCurrentTCP   0x000b2b       data     static C:\Users\Tim\Desktop\PIC-WEB-5-42-UEXT-full\Microchip\TCPIP Stack\TCP.c
                   hFatID   0x0000d0       data     static C:\Users\Tim\Desktop\PIC-WEB-5-42-UEXT-full\Microchip\TCPIP Stack\MPFS2.c
                    hHTTP   0x000904       data     static C:\Users\Tim\Desktop\PIC-WEB-5-42-UEXT-full\Microchip\TCPIP Stack\HTTP2.c
                 hLastTCB   0x000b2c       data     static C:\Users\Tim\Desktop\PIC-WEB-5-42-UEXT-full\Microchip\TCPIP Stack\TCP.c
                    hMPFS   0x0000f9       data     static C:\Users\Tim\Desktop\PIC-WEB-5-42-UEXT-full\Microchip\TCPIP Stack\MPFS2.c
                    hMPFS   0x0000f8       data     static C:\Users\Tim\Desktop\PIC-WEB-5-42-UEXT-full\Microchip\TCPIP Stack\MPFS2.c
                    hMPFS   0x000c00       data     static C:\Users\Tim\Desktop\PIC-WEB-5-42-UEXT-full\Microchip\TCPIP Stack\MPFS2.c
                    hMPFS   0x0000f3       data     static C:\Users\Tim\Desktop\PIC-WEB-5-42-UEXT-full\Microchip\TCPIP Stack\MPFS2.c
                    hMPFS   0x0000f2       data     static C:\Users\Tim\Desktop\PIC-WEB-5-42-UEXT-full\Microchip\TCPIP Stack\MPFS2.c
                    hMPFS   0x0000db       data     static C:\Users\Tim\Desktop\PIC-WEB-5-42-UEXT-full\Microchip\TCPIP Stack\MPFS2.c
                    hMPFS   0x000c45       data     static C:\Users\Tim\Desktop\PIC-WEB-5-42-UEXT-full\Microchip\TCPIP Stack\MPFS2.c
                    hMPFS   0x0000d6       data     static C:\Users\Tim\Desktop\PIC-WEB-5-42-UEXT-full\Microchip\TCPIP Stack\MPFS2.c
                    hMPFS   0x0000de       data     static C:\Users\Tim\Desktop\PIC-WEB-5-42-UEXT-full\Microchip\TCPIP Stack\MPFS2.c
                    hMPFS   0x0000d3       data     static C:\Users\Tim\Desktop\PIC-WEB-5-42-UEXT-full\Microchip\TCPIP Stack\MPFS2.c
                    hMPFS   0x0000d2       data     static C:\Users\Tim\Desktop\PIC-WEB-5-42-UEXT-full\Microchip\TCPIP Stack\MPFS2.c
                    hMPFS   0x000c45       data     static C:\Users\Tim\Desktop\PIC-WEB-5-42-UEXT-full\Microchip\TCPIP Stack\MPFS2.c
                    hMPFS   0x0000e4       data     static C:\Users\Tim\Desktop\PIC-WEB-5-42-UEXT-full\Microchip\TCPIP Stack\MPFS2.c
                    hMPFS   0x0000f1       data     static C:\Users\Tim\Desktop\PIC-WEB-5-42-UEXT-full\Microchip\TCPIP Stack\MPFS2.c
                    hMPFS   0x0000f0       data     static C:\Users\Tim\Desktop\PIC-WEB-5-42-UEXT-full\Microchip\TCPIP Stack\MPFS2.c
                    hMPFS   0x0000ef       data     static C:\Users\Tim\Desktop\PIC-WEB-5-42-UEXT-full\Microchip\TCPIP Stack\MPFS2.c
                    hMPFS   0x0000ec       data     static C:\Users\Tim\Desktop\PIC-WEB-5-42-UEXT-full\Microchip\TCPIP Stack\MPFS2.c
                    hMPFS   0x0000ee       data     static C:\Users\Tim\Desktop\PIC-WEB-5-42-UEXT-full\Microchip\TCPIP Stack\MPFS2.c
                    hMPFS   0x0000ed       data     static C:\Users\Tim\Desktop\PIC-WEB-5-42-UEXT-full\Microchip\TCPIP Stack\MPFS2.c
                     hTCP   0x0003a0       data     static C:\Users\Tim\Desktop\PIC-WEB-5-42-UEXT-full\Microchip\TCPIP Stack\TCP.c
                     hTCP   0x000361       data     static C:\Users\Tim\Desktop\PIC-WEB-5-42-UEXT-full\Microchip\TCPIP Stack\TCP.c
                     hTCP   0x000363       data     static C:\Users\Tim\Desktop\PIC-WEB-5-42-UEXT-full\Microchip\TCPIP Stack\TCP.c
                     hTCP   0x000376       data     static C:\Users\Tim\Desktop\PIC-WEB-5-42-UEXT-full\Microchip\TCPIP Stack\TCP.c
                     hTCP   0x000368       data     static C:\Users\Tim\Desktop\PIC-WEB-5-42-UEXT-full\Microchip\TCPIP Stack\TCP.c
                     hTCP   0x000377       data     static C:\Users\Tim\Desktop\PIC-WEB-5-42-UEXT-full\Microchip\TCPIP Stack\TCP.c
                     hTCP   0x000378       data     static C:\Users\Tim\Desktop\PIC-WEB-5-42-UEXT-full\Microchip\TCPIP Stack\TCP.c
                     hTCP   0x000c00       data     static C:\Users\Tim\Desktop\PIC-WEB-5-42-UEXT-full\Microchip\TCPIP Stack\TCP.c
                     hTCP   0x00037b       data     static C:\Users\Tim\Desktop\PIC-WEB-5-42-UEXT-full\Microchip\TCPIP Stack\TCP.c
                     hTCP   0x000345       data     static C:\Users\Tim\Desktop\PIC-WEB-5-42-UEXT-full\Microchip\TCPIP Stack\TCP.c
                     hTCP   0x000395       data     static C:\Users\Tim\Desktop\PIC-WEB-5-42-UEXT-full\Microchip\TCPIP Stack\TCP.c
                     hTCP   0x000380       data     static C:\Users\Tim\Desktop\PIC-WEB-5-42-UEXT-full\Microchip\TCPIP Stack\TCP.c
                     hTCP   0x000381       data     static C:\Users\Tim\Desktop\PIC-WEB-5-42-UEXT-full\Microchip\TCPIP Stack\TCP.c
                     hTCP   0x0003b9       data     static C:\Users\Tim\Desktop\PIC-WEB-5-42-UEXT-full\Microchip\TCPIP Stack\TCP.c
                     hTCP   0x000c3d       data     static C:\Users\Tim\Desktop\PIC-WEB-5-42-UEXT-full\Microchip\TCPIP Stack\BerkeleyAPI.c
                     hTCP   0x00038b       data     static C:\Users\Tim\Desktop\PIC-WEB-5-42-UEXT-full\Microchip\TCPIP Stack\TCP.c
                     hTCP   0x00034e       data     static C:\Users\Tim\Desktop\PIC-WEB-5-42-UEXT-full\Microchip\TCPIP Stack\TCP.c
                     hTCP   0x00035f       data     static C:\Users\Tim\Desktop\PIC-WEB-5-42-UEXT-full\Microchip\TCPIP Stack\TCP.c
                     hTCP   0x00034f       data     static C:\Users\Tim\Desktop\PIC-WEB-5-42-UEXT-full\Microchip\TCPIP Stack\TCP.c
                     hTCP   0x000388       data     static C:\Users\Tim\Desktop\PIC-WEB-5-42-UEXT-full\Microchip\TCPIP Stack\TCP.c
                     hTCP   0x000360       data     static C:\Users\Tim\Desktop\PIC-WEB-5-42-UEXT-full\Microchip\TCPIP Stack\TCP.c
                     hTCP   0x000c44       data     static C:\Users\Tim\Desktop\PIC-WEB-5-42-UEXT-full\Microchip\TCPIP Stack\TCP.c
                     hTCP   0x000350       data     static C:\Users\Tim\Desktop\PIC-WEB-5-42-UEXT-full\Microchip\TCPIP Stack\TCP.c
                     hTCP   0x000352       data     static C:\Users\Tim\Desktop\PIC-WEB-5-42-UEXT-full\Microchip\TCPIP Stack\TCP.c
                     hTCP   0x000c25       data     static C:\Users\Tim\Desktop\PIC-WEB-5-42-UEXT-full\Microchip\TCPIP Stack\TCP.c
                     hTCP   0x00036e       data     static C:\Users\Tim\Desktop\PIC-WEB-5-42-UEXT-full\Microchip\TCPIP Stack\TCP.c
                     hTCP   0x000351       data     static C:\Users\Tim\Desktop\PIC-WEB-5-42-UEXT-full\Microchip\TCPIP Stack\TCP.c
                     hTCP   0x000371       data     static C:\Users\Tim\Desktop\PIC-WEB-5-42-UEXT-full\Microchip\TCPIP Stack\TCP.c
                     hTCP   0x000375       data     static C:\Users\Tim\Desktop\PIC-WEB-5-42-UEXT-full\Microchip\TCPIP Stack\TCP.c
           hTelnetSockets   0x0000fa       data     static C:\Users\Tim\Desktop\PIC-WEB-5-42-UEXT-full\Microchip\TCPIP Stack\Telnet.c
                   handle   0x000c02       data     static C:\Users\Tim\Desktop\PIC-WEB-5-42-UEXT-full\TCPIP\Demo App\UARTConfig.c
                     hash   0x000c27       data     static C:\Users\Tim\Desktop\PIC-WEB-5-42-UEXT-full\Microchip\TCPIP Stack\TCP.c
                hashCache   0x000c05       data     static C:\Users\Tim\Desktop\PIC-WEB-5-42-UEXT-full\Microchip\TCPIP Stack\MPFS2.c
                hashCache   0x000c4a       data     static C:\Users\Tim\Desktop\PIC-WEB-5-42-UEXT-full\Microchip\TCPIP Stack\MPFS2.c
                   header   0x000c00       data     static C:\Users\Tim\Desktop\PIC-WEB-5-42-UEXT-full\Microchip\TCPIP Stack\ETH97J60.c
                   header   0x000c02       data     static C:\Users\Tim\Desktop\PIC-WEB-5-42-UEXT-full\Microchip\TCPIP Stack\IP.c
                   header   0x000caa       data     static C:\Users\Tim\Desktop\PIC-WEB-5-42-UEXT-full\Microchip\TCPIP Stack\IP.c
                   header   0x000c84       data     static C:\Users\Tim\Desktop\PIC-WEB-5-42-UEXT-full\Microchip\TCPIP Stack\TCP.c
                   header   0x0003b3       data     static C:\Users\Tim\Desktop\PIC-WEB-5-42-UEXT-full\Microchip\TCPIP Stack\TCP.c
                      hex   0x000c40       data     static C:\Users\Tim\Desktop\PIC-WEB-5-42-UEXT-full\Microchip\TCPIP Stack\HTTP2.c
                httpStubs   0x00047f       data     extern C:\Users\Tim\Desktop\PIC-WEB-5-42-UEXT-full\Microchip\TCPIP Stack\HTTP2.c
                        i   0x000ccd       data     static C:\Users\Tim\Desktop\PIC-WEB-5-42-UEXT-full\Microchip\TCPIP Stack\HTTP2.c
                        i   0x000c04       data     static C:\Users\Tim\Desktop\PIC-WEB-5-42-UEXT-full\TCPIP\Demo App\CustomHTTPApp.c
                        i   0x000c38       data     static C:\Users\Tim\Desktop\PIC-WEB-5-42-UEXT-full\Microchip\TCPIP Stack\Helpers.c
                        i   0x000905       data     static C:\Users\Tim\Desktop\PIC-WEB-5-42-UEXT-full\Microchip\TCPIP Stack\HTTP2.c
                        i   0x000c14       data     static C:\Users\Tim\Desktop\PIC-WEB-5-42-UEXT-full\Microchip\TCPIP Stack\TCP.c
                        i   0x000c2c       data     static C:\Users\Tim\Desktop\PIC-WEB-5-42-UEXT-full\Microchip\TCPIP Stack\Helpers.c
                        i   0x000c00       data     static C:\Users\Tim\Desktop\PIC-WEB-5-42-UEXT-full\Microchip\TCPIP Stack\Helpers.c
                        i   0x000c15       data     static C:\Users\Tim\Desktop\PIC-WEB-5-42-UEXT-full\Microchip\TCPIP Stack\Helpers.c
                        i   0x000cbe       data     static C:\Users\Tim\Desktop\PIC-WEB-5-42-UEXT-full\Microchip\TCPIP Stack\Helpers.c
                        i   0x000c33       data     static C:\Users\Tim\Desktop\PIC-WEB-5-42-UEXT-full\Microchip\TCPIP Stack\Helpers.c
                        i   0x000c81       data     static C:\Users\Tim\Desktop\PIC-WEB-5-42-UEXT-full\TCPIP\Demo App\CustomHTTPApp.c
                        i   0x000caa       data     static C:\Users\Tim\Desktop\PIC-WEB-5-42-UEXT-full\Microchip\TCPIP Stack\ETH97J60.c
                        i   0x000c50       data     static C:\Users\Tim\Desktop\PIC-WEB-5-42-UEXT-full\Microchip\TCPIP Stack\TCP.c
                        i   0x000c00       data     static C:\Users\Tim\Desktop\PIC-WEB-5-42-UEXT-full\TCPIP\Demo App\CustomHTTPApp.c
                        i   0x000c39       data     static C:\Users\Tim\Desktop\PIC-WEB-5-42-UEXT-full\Microchip\TCPIP Stack\Helpers.c
                        i   0x000c18       data     static C:\Users\Tim\Desktop\PIC-WEB-5-42-UEXT-full\Microchip\TCPIP Stack\Hashes.c
                        i   0x000c22       data     static C:\Users\Tim\Desktop\PIC-WEB-5-42-UEXT-full\TCPIP\Demo App\CustomHTTPApp.c
                        i   0x000c35       data     static C:\Users\Tim\Desktop\PIC-WEB-5-42-UEXT-full\TCPIP\Demo App\CustomHTTPApp.c
                        i   0x000c3e       data     static C:\Users\Tim\Desktop\PIC-WEB-5-42-UEXT-full\TCPIP\Demo App\CustomHTTPApp.c
                        i   0x000c2a       data     static C:\Users\Tim\Desktop\PIC-WEB-5-42-UEXT-full\Microchip\TCPIP Stack\Hashes.c
                        i   0x000c35       data     static C:\Users\Tim\Desktop\PIC-WEB-5-42-UEXT-full\TCPIP\Demo App\CustomHTTPApp.c
                        i   0x000c06       data     static C:\Users\Tim\Desktop\PIC-WEB-5-42-UEXT-full\Microchip\TCPIP Stack\TCP.c
                        i   0x000c38       data     static C:\Users\Tim\Desktop\PIC-WEB-5-42-UEXT-full\TCPIP\Demo App\CustomHTTPApp.c
                        i   0x000e73       data     static C:\Users\Tim\Desktop\PIC-WEB-5-42-UEXT-full\TCPIP\Demo App\CustomHTTPApp.c
                        i   0x000c82       data     static C:\Users\Tim\Desktop\PIC-WEB-5-42-UEXT-full\Microchip\TCPIP Stack\TCP.c
                        i   0x000c23       data     static C:\Users\Tim\Desktop\PIC-WEB-5-42-UEXT-full\Microchip\TCPIP Stack\Helpers.c
                        i   0x000c04       data     static C:\Users\Tim\Desktop\PIC-WEB-5-42-UEXT-full\TCPIP\Demo App\MainDemo.c
                        i   0x000c59       data     static C:\Users\Tim\Desktop\PIC-WEB-5-42-UEXT-full\Microchip\TCPIP Stack\Helpers.c
                        i   0x000c00       data     static C:\Users\Tim\Desktop\PIC-WEB-5-42-UEXT-full\TCPIP\Demo App\CustomHTTPApp.c
                        i   0x000c0c       data     static C:\Users\Tim\Desktop\PIC-WEB-5-42-UEXT-full\TCPIP\Demo App\MainDemo.c
                        i   0x000c3d       data     static C:\Users\Tim\Desktop\PIC-WEB-5-42-UEXT-full\Microchip\TCPIP Stack\Helpers.c
                        i   0x000cfb       data     static C:\Users\Tim\Desktop\PIC-WEB-5-42-UEXT-full\Microchip\TCPIP Stack\ETH97J60.c
                        i   0x000cab       data     static C:\Users\Tim\Desktop\PIC-WEB-5-42-UEXT-full\Microchip\TCPIP Stack\MPFS2.c
                        i   0x000c00       data     static C:\Users\Tim\Desktop\PIC-WEB-5-42-UEXT-full\Microchip\TCPIP Stack\NBNS.c
                        i   0x000652       data     static C:\Users\Tim\Desktop\PIC-WEB-5-42-UEXT-full\Microchip\TCPIP Stack\UART2TCPBridge.c
                        i   0x000c00       data     static C:\Users\Tim\Desktop\PIC-WEB-5-42-UEXT-full\Microchip\TCPIP Stack\MPFS2.c
                        i   0x000c21       data     static C:\Users\Tim\Desktop\PIC-WEB-5-42-UEXT-full\Microchip\TCPIP Stack\NBNS.c
                        i   0x000c21       data     static C:\Users\Tim\Desktop\PIC-WEB-5-42-UEXT-full\Microchip\TCPIP Stack\NBNS.c
                        i   0x000c00       data     static C:\Users\Tim\Desktop\PIC-WEB-5-42-UEXT-full\Microchip\TCPIP Stack\UART.c
                        i   0x000c08       data     static C:\Users\Tim\Desktop\PIC-WEB-5-42-UEXT-full\Microchip\TCPIP Stack\SMTP.c
                        i   0x000c35       data     static C:\Users\Tim\Desktop\PIC-WEB-5-42-UEXT-full\Microchip\TCPIP Stack\BerkeleyAPI.c
                        i   0x000c57       data     static C:\Users\Tim\Desktop\PIC-WEB-5-42-UEXT-full\Microchip\TCPIP Stack\BerkeleyAPI.c
                        i   0x000c00       data     static C:\Users\Tim\Desktop\PIC-WEB-5-42-UEXT-full\Microchip\TCPIP Stack\DHCP.c
                        i   0x000c09       data     static C:\Users\Tim\Desktop\PIC-WEB-5-42-UEXT-full\Microchip\TCPIP Stack\DHCP.c
                        i   0x000c01       data     static C:\Users\Tim\Desktop\PIC-WEB-5-42-UEXT-full\Microchip\TCPIP Stack\DHCP.c
                        i   0x000c00       data     static C:\Users\Tim\Desktop\PIC-WEB-5-42-UEXT-full\Microchip\TCPIP Stack\DHCP.c
                        i   0x000c00       data     static C:\Users\Tim\Desktop\PIC-WEB-5-42-UEXT-full\Microchip\TCPIP Stack\DHCPs.c
                        i   0x000c35       data     static C:\Users\Tim\Desktop\PIC-WEB-5-42-UEXT-full\Microchip\TCPIP Stack\DHCPs.c
                        i   0x000c2f       data     static C:\Users\Tim\Desktop\PIC-WEB-5-42-UEXT-full\Microchip\TCPIP Stack\DHCPs.c
                        i   0x000c48       data     static C:\Users\Tim\Desktop\PIC-WEB-5-42-UEXT-full\Microchip\TCPIP Stack\MPFS2.c
                        i   0x000c09       data     static C:\Users\Tim\Desktop\PIC-WEB-5-42-UEXT-full\TCPIP\Demo App\BerkeleyTCPClientDemo.c
                        i   0x000c33       data     static C:\Users\Tim\Desktop\PIC-WEB-5-42-UEXT-full\TCPIP\Demo App\BerkeleyTCPServerDemo.c
                        i   0x000c30       data     static C:\Users\Tim\Desktop\PIC-WEB-5-42-UEXT-full\TCPIP\Demo App\BerkeleyUDPClientDemo.c
                        i   0x000c00       data     static C:\Users\Tim\Desktop\PIC-WEB-5-42-UEXT-full\TCPIP\Demo App\GenericTCPClient.c
                        i   0x000c00       data     static C:\Users\Tim\Desktop\PIC-WEB-5-42-UEXT-full\TCPIP\Demo App\GenericTCPServer.c
                        i   0x000c00       data     static C:\Users\Tim\Desktop\PIC-WEB-5-42-UEXT-full\Microchip\TCPIP Stack\Telnet.c
                        i   0x000c45       data     static C:\Users\Tim\Desktop\PIC-WEB-5-42-UEXT-full\TCPIP\Demo App\Olimex_Demo_Files\Custom_I2C.c
                        i   0x000c44       data     static C:\Users\Tim\Desktop\PIC-WEB-5-42-UEXT-full\TCPIP\Demo App\Olimex_Demo_Files\Custom_UART.c
                        i   0x000c00       data     static C:\Users\Tim\Desktop\PIC-WEB-5-42-UEXT-full\TCPIP\Demo App\Olimex_Demo_Files\Custom_UART.c
                        i   0x000c00       data     static C:\Users\Tim\Desktop\PIC-WEB-5-42-UEXT-full\TCPIP\Demo App\Olimex_Demo_Files\Custom_UART.c
                        i   0x000c00       data     static C:\Users\Tim\Desktop\PIC-WEB-5-42-UEXT-full\TCPIP\Demo App\Olimex_Demo_Files\Custom_UART.c
                        i   0x000c48       data     static C:\Users\Tim\Desktop\PIC-WEB-5-42-UEXT-full\TCPIP\Demo App\Olimex_Demo_Files\Misc_Functions.c
                        i   0x000c03       data     static C:\Users\Tim\Desktop\PIC-WEB-5-42-UEXT-full\Microchip\TCPIP Stack\Announce.c
                        i   0x000c00       data     static C:\Users\Tim\Desktop\PIC-WEB-5-42-UEXT-full\Microchip\TCPIP Stack\Announce.c
                        i   0x000c1c       data     static C:\Users\Tim\Desktop\PIC-WEB-5-42-UEXT-full\Microchip\TCPIP Stack\ARP.c
                        i   0x000c02       data     static C:\Users\Tim\Desktop\PIC-WEB-5-42-UEXT-full\Microchip\TCPIP Stack\AutoIP.c
                        i   0x000c03       data     static C:\Users\Tim\Desktop\PIC-WEB-5-42-UEXT-full\Microchip\TCPIP Stack\MPFS2.c
                        i   0x000c01       data     static C:\Users\Tim\Desktop\PIC-WEB-5-42-UEXT-full\Microchip\TCPIP Stack\ETH97J60.c
                        i   0x000c4f       data     static C:\Users\Tim\Desktop\PIC-WEB-5-42-UEXT-full\Microchip\TCPIP Stack\DNS.c
                        i   0x000c50       data     static C:\Users\Tim\Desktop\PIC-WEB-5-42-UEXT-full\Microchip\TCPIP Stack\DNS.c
                        i   0x000c4f       data     static C:\Users\Tim\Desktop\PIC-WEB-5-42-UEXT-full\Microchip\TCPIP Stack\DNS.c
                        i   0x000c34       data     static C:\Users\Tim\Desktop\PIC-WEB-5-42-UEXT-full\Microchip\TCPIP Stack\DNS.c
                        i   0x000c41       data     static C:\Users\Tim\Desktop\PIC-WEB-5-42-UEXT-full\Microchip\TCPIP Stack\DHCPs.c
                        i   0x000c2f       data     static C:\Users\Tim\Desktop\PIC-WEB-5-42-UEXT-full\Microchip\TCPIP Stack\DHCPs.c
                        i   0x000c2f       data     static C:\Users\Tim\Desktop\PIC-WEB-5-42-UEXT-full\Microchip\TCPIP Stack\DHCPs.c
                        i   0x000c41       data     static C:\Users\Tim\Desktop\PIC-WEB-5-42-UEXT-full\Microchip\TCPIP Stack\DHCPs.c
                        i   0x000c45       data     static C:\Users\Tim\Desktop\PIC-WEB-5-42-UEXT-full\Microchip\TCPIP Stack\DHCPs.c
                        i   0x000c2f       data     static C:\Users\Tim\Desktop\PIC-WEB-5-42-UEXT-full\Microchip\TCPIP Stack\DHCPs.c
                        i   0x000c51       data     static C:\Users\Tim\Desktop\PIC-WEB-5-42-UEXT-full\Microchip\TCPIP Stack\TCP.c
                        i   0x000c43       data     static C:\Users\Tim\Desktop\PIC-WEB-5-42-UEXT-full\Microchip\TCPIP Stack\DHCPs.c
                        i   0x000c33       data     static C:\Users\Tim\Desktop\PIC-WEB-5-42-UEXT-full\Microchip\TCPIP Stack\DHCPs.c
                 icounter   0x000c13       data     static C:\Users\Tim\Desktop\PIC-WEB-5-42-UEXT-full\Microchip\TCPIP Stack\Telnet.c
                   inbyte   0x00088b       data     static C:\Users\Tim\Desktop\PIC-WEB-5-42-UEXT-full\Microchip\TCPIP Stack\SPIFlash.c
                    index   0x0004ee       data     static C:\Users\Tim\Desktop\PIC-WEB-5-42-UEXT-full\Microchip\TCPIP Stack\DHCPs.c
              indexOfPool   0x000c30       data     static C:\Users\Tim\Desktop\PIC-WEB-5-42-UEXT-full\Microchip\TCPIP Stack\DHCPs.c
                       ip   0x000e6b       data     static C:\Users\Tim\Desktop\PIC-WEB-5-42-UEXT-full\TCPIP\Demo App\CustomHTTPApp.c
                   ipAddr   0x000c37       data     static C:\Users\Tim\Desktop\PIC-WEB-5-42-UEXT-full\Microchip\TCPIP Stack\DHCPs.c
                   ipAddr   0x000c31       data     static C:\Users\Tim\Desktop\PIC-WEB-5-42-UEXT-full\Microchip\TCPIP Stack\DHCPs.c
          ipResolvedDNSIP   0x000c06       data     static C:\Users\Tim\Desktop\PIC-WEB-5-42-UEXT-full\Microchip\TCPIP Stack\TCP.c
          ipResolvedDNSIP   0x000c01       data     static C:\Users\Tim\Desktop\PIC-WEB-5-42-UEXT-full\Microchip\TCPIP Stack\UDP.c
                   ipaddr   0x0004ea       data     static C:\Users\Tim\Desktop\PIC-WEB-5-42-UEXT-full\Microchip\TCPIP Stack\DHCPs.c
                 ipv4Addr   0x0004f9       data     static C:\Users\Tim\Desktop\PIC-WEB-5-42-UEXT-full\Microchip\TCPIP Stack\DHCPs.c
                   isDone   0x000cce       data     static C:\Users\Tim\Desktop\PIC-WEB-5-42-UEXT-full\Microchip\TCPIP Stack\HTTP2.c
                isFinding   0x000c53       data     static C:\Users\Tim\Desktop\PIC-WEB-5-42-UEXT-full\Microchip\TCPIP Stack\TCP.c
                isFinding   0x000c54       data     static C:\Users\Tim\Desktop\PIC-WEB-5-42-UEXT-full\Microchip\TCPIP Stack\TCP.c
             isMPFSLocked   0x0000b0       data     static C:\Users\Tim\Desktop\PIC-WEB-5-42-UEXT-full\Microchip\TCPIP Stack\MPFS2.c
               isNegative   0x000c2d       data     static C:\Users\Tim\Desktop\PIC-WEB-5-42-UEXT-full\Microchip\TCPIP Stack\Telnet.c
                        j   0x000c51       data     static C:\Users\Tim\Desktop\PIC-WEB-5-42-UEXT-full\Microchip\TCPIP Stack\TCP.c
                        j   0x000c01       data     static C:\Users\Tim\Desktop\PIC-WEB-5-42-UEXT-full\Microchip\TCPIP Stack\Helpers.c
                        j   0x000c33       data     static C:\Users\Tim\Desktop\PIC-WEB-5-42-UEXT-full\Microchip\TCPIP Stack\DHCPs.c
                        j   0x000c31       data     static C:\Users\Tim\Desktop\PIC-WEB-5-42-UEXT-full\Microchip\TCPIP Stack\DHCPs.c
                        j   0x000c19       data     static C:\Users\Tim\Desktop\PIC-WEB-5-42-UEXT-full\Microchip\TCPIP Stack\Hashes.c
                        j   0x000c52       data     static C:\Users\Tim\Desktop\PIC-WEB-5-42-UEXT-full\Microchip\TCPIP Stack\TCP.c
                        j   0x000c22       data     static C:\Users\Tim\Desktop\PIC-WEB-5-42-UEXT-full\Microchip\TCPIP Stack\NBNS.c
                        j   0x000c22       data     static C:\Users\Tim\Desktop\PIC-WEB-5-42-UEXT-full\Microchip\TCPIP Stack\NBNS.c
                        j   0x000c02       data     static C:\Users\Tim\Desktop\PIC-WEB-5-42-UEXT-full\Microchip\TCPIP Stack\DHCP.c
                        k   0x000c53       data     static C:\Users\Tim\Desktop\PIC-WEB-5-42-UEXT-full\Microchip\TCPIP Stack\TCP.c
                        k   0x000c52       data     static C:\Users\Tim\Desktop\PIC-WEB-5-42-UEXT-full\Microchip\TCPIP Stack\TCP.c
                        k   0x000c23       data     static C:\Users\Tim\Desktop\PIC-WEB-5-42-UEXT-full\Microchip\TCPIP Stack\NBNS.c
            lMissingBytes   0x000c2b       data     static C:\Users\Tim\Desktop\PIC-WEB-5-42-UEXT-full\Microchip\TCPIP Stack\TCP.c
                    lPort   0x000c59       data     static C:\Users\Tim\Desktop\PIC-WEB-5-42-UEXT-full\Microchip\TCPIP Stack\BerkeleyAPI.c
                  lResult   0x000c05       data     static C:\Users\Tim\Desktop\PIC-WEB-5-42-UEXT-full\TCPIP\Demo App\UARTConfig.c
                lastBlock   0x00056e       data     extern C:\Users\Tim\Desktop\PIC-WEB-5-42-UEXT-full\Microchip\TCPIP Stack\Hashes.c
              lastFailure   0x0008fc       data     static C:\Users\Tim\Desktop\PIC-WEB-5-42-UEXT-full\TCPIP\Demo App\CustomHTTPApp.c
              lastSuccess   0x0008fb       data     static C:\Users\Tim\Desktop\PIC-WEB-5-42-UEXT-full\TCPIP\Demo App\CustomHTTPApp.c
                 lastTick   0x000c86       data     static C:\Users\Tim\Desktop\PIC-WEB-5-42-UEXT-full\TCPIP\Demo App\UARTConfig.c
                   lbDone   0x000c04       data     static C:\Users\Tim\Desktop\PIC-WEB-5-42-UEXT-full\Microchip\TCPIP Stack\DHCP.c
                   lbDone   0x000c03       data     static C:\Users\Tim\Desktop\PIC-WEB-5-42-UEXT-full\TCPIP\Demo App\UARTConfig.c
                      len   0x000c00       data     static C:\Users\Tim\Desktop\PIC-WEB-5-42-UEXT-full\Microchip\TCPIP Stack\HTTP2.c
                      len   0x000954       data     static C:\Users\Tim\Desktop\PIC-WEB-5-42-UEXT-full\Microchip\TCPIP Stack\ICMP.c
                      len   0x000c00       data     static C:\Users\Tim\Desktop\PIC-WEB-5-42-UEXT-full\Microchip\TCPIP Stack\HTTP2.c
                      len   0x00097f       data     static C:\Users\Tim\Desktop\PIC-WEB-5-42-UEXT-full\Microchip\TCPIP Stack\IP.c
                      len   0x000c06       data     static C:\Users\Tim\Desktop\PIC-WEB-5-42-UEXT-full\Microchip\TCPIP Stack\Helpers.c
                      len   0x000c02       data     static C:\Users\Tim\Desktop\PIC-WEB-5-42-UEXT-full\Microchip\TCPIP Stack\HTTP2.c
                      len   0x000984       data     static C:\Users\Tim\Desktop\PIC-WEB-5-42-UEXT-full\Microchip\TCPIP Stack\IP.c
                      len   0x0008cf       data     static C:\Users\Tim\Desktop\PIC-WEB-5-42-UEXT-full\Microchip\TCPIP Stack\ETH97J60.c
                      len   0x0003b7       data     static C:\Users\Tim\Desktop\PIC-WEB-5-42-UEXT-full\Microchip\TCPIP Stack\TCP.c
                      len   0x0008d3       data     static C:\Users\Tim\Desktop\PIC-WEB-5-42-UEXT-full\Microchip\TCPIP Stack\ETH97J60.c
                      len   0x0007ca       data     static C:\Users\Tim\Desktop\PIC-WEB-5-42-UEXT-full\Microchip\TCPIP Stack\BerkeleyAPI.c
                      len   0x0008d8       data     static C:\Users\Tim\Desktop\PIC-WEB-5-42-UEXT-full\Microchip\TCPIP Stack\ETH97J60.c
                      len   0x0008dd       data     static C:\Users\Tim\Desktop\PIC-WEB-5-42-UEXT-full\Microchip\TCPIP Stack\ETH97J60.c
                      len   0x0007c3       data     static C:\Users\Tim\Desktop\PIC-WEB-5-42-UEXT-full\Microchip\TCPIP Stack\BerkeleyAPI.c
                      len   0x0002ee       data     static C:\Users\Tim\Desktop\PIC-WEB-5-42-UEXT-full\Microchip\TCPIP Stack\UDP.c
                      len   0x0008c9       data     static C:\Users\Tim\Desktop\PIC-WEB-5-42-UEXT-full\Microchip\TCPIP Stack\ETH97J60.c
                      len   0x0005b2       data     static C:\Users\Tim\Desktop\PIC-WEB-5-42-UEXT-full\Microchip\TCPIP Stack\Hashes.c
                      len   0x0007b4       data     static C:\Users\Tim\Desktop\PIC-WEB-5-42-UEXT-full\Microchip\TCPIP Stack\BerkeleyAPI.c
                      len   0x0005b9       data     static C:\Users\Tim\Desktop\PIC-WEB-5-42-UEXT-full\Microchip\TCPIP Stack\Hashes.c
                      len   0x0005c1       data     static C:\Users\Tim\Desktop\PIC-WEB-5-42-UEXT-full\Microchip\TCPIP Stack\Hashes.c
                      len   0x0005c8       data     static C:\Users\Tim\Desktop\PIC-WEB-5-42-UEXT-full\Microchip\TCPIP Stack\Hashes.c
                      len   0x00037e       data     static C:\Users\Tim\Desktop\PIC-WEB-5-42-UEXT-full\Microchip\TCPIP Stack\TCP.c
                      len   0x000c00       data     static C:\Users\Tim\Desktop\PIC-WEB-5-42-UEXT-full\TCPIP\Demo App\CustomHTTPApp.c
                      len   0x000366       data     static C:\Users\Tim\Desktop\PIC-WEB-5-42-UEXT-full\Microchip\TCPIP Stack\TCP.c
                      len   0x00036c       data     static C:\Users\Tim\Desktop\PIC-WEB-5-42-UEXT-full\Microchip\TCPIP Stack\TCP.c
                      len   0x0003ab       data     static C:\Users\Tim\Desktop\PIC-WEB-5-42-UEXT-full\Microchip\TCPIP Stack\TCP.c
                      len   0x000c00       data     static C:\Users\Tim\Desktop\PIC-WEB-5-42-UEXT-full\TCPIP\Demo App\CustomHTTPApp.c
                      len   0x0009ae       data     static C:\Users\Tim\Desktop\PIC-WEB-5-42-UEXT-full\Microchip\TCPIP Stack\UART.c
                      len   0x0007ad       data     static C:\Users\Tim\Desktop\PIC-WEB-5-42-UEXT-full\Microchip\TCPIP Stack\BerkeleyAPI.c
                      len   0x000ca8       data     static C:\Users\Tim\Desktop\PIC-WEB-5-42-UEXT-full\Microchip\TCPIP Stack\TCP.c
                      len   0x0008c7       data     static C:\Users\Tim\Desktop\PIC-WEB-5-42-UEXT-full\Microchip\TCPIP Stack\ETH97J60.c
                     lenA   0x000c00       data     static C:\Users\Tim\Desktop\PIC-WEB-5-42-UEXT-full\Microchip\TCPIP Stack\HTTP2.c
                     lenA   0x000cc8       data     static C:\Users\Tim\Desktop\PIC-WEB-5-42-UEXT-full\Microchip\TCPIP Stack\HTTP2.c
                     lenA   0x000c10       data     static C:\Users\Tim\Desktop\PIC-WEB-5-42-UEXT-full\Microchip\TCPIP Stack\HTTP2.c
                     lenA   0x000c2f       data     static C:\Users\Tim\Desktop\PIC-WEB-5-42-UEXT-full\TCPIP\Demo App\CustomHTTPApp.c
                     lenB   0x000c02       data     static C:\Users\Tim\Desktop\PIC-WEB-5-42-UEXT-full\Microchip\TCPIP Stack\HTTP2.c
                     lenB   0x000c31       data     static C:\Users\Tim\Desktop\PIC-WEB-5-42-UEXT-full\TCPIP\Demo App\CustomHTTPApp.c
                     lenB   0x000cca       data     static C:\Users\Tim\Desktop\PIC-WEB-5-42-UEXT-full\Microchip\TCPIP Stack\HTTP2.c
                     lenB   0x000c12       data     static C:\Users\Tim\Desktop\PIC-WEB-5-42-UEXT-full\Microchip\TCPIP Stack\HTTP2.c
                   length   0x000896       data     static C:\Users\Tim\Desktop\PIC-WEB-5-42-UEXT-full\Microchip\TCPIP Stack\SPIFlash.c
                   length   0x000f5a       data     static C:\Users\Tim\Desktop\PIC-WEB-5-42-UEXT-full\TCPIP\Demo App\Olimex_Demo_Files\Custom_SPI_Low.c
                   length   0x000c31       data     static C:\Users\Tim\Desktop\PIC-WEB-5-42-UEXT-full\TCPIP\Demo App\BerkeleyTCPServerDemo.c
                    local   0x000c45       data     static C:\Users\Tim\Desktop\PIC-WEB-5-42-UEXT-full\Microchip\TCPIP Stack\BerkeleyAPI.c
           localAckNumber   0x000c34       data     static C:\Users\Tim\Desktop\PIC-WEB-5-42-UEXT-full\Microchip\TCPIP Stack\TCP.c
         localHeaderFlags   0x000c33       data     static C:\Users\Tim\Desktop\PIC-WEB-5-42-UEXT-full\Microchip\TCPIP Stack\TCP.c
                  localIP   0x000979       data     static C:\Users\Tim\Desktop\PIC-WEB-5-42-UEXT-full\Microchip\TCPIP Stack\IP.c
                  localIP   0x0003a9       data     static C:\Users\Tim\Desktop\PIC-WEB-5-42-UEXT-full\Microchip\TCPIP Stack\TCP.c
                  localIP   0x0002ec       data     static C:\Users\Tim\Desktop\PIC-WEB-5-42-UEXT-full\Microchip\TCPIP Stack\UDP.c
                  localIP   0x0002f4       data     static C:\Users\Tim\Desktop\PIC-WEB-5-42-UEXT-full\Microchip\TCPIP Stack\UDP.c
                localPort   0x000c17       data     static C:\Users\Tim\Desktop\PIC-WEB-5-42-UEXT-full\Microchip\TCPIP Stack\BerkeleyAPI.c
                localPort   0x0002c7       data     static C:\Users\Tim\Desktop\PIC-WEB-5-42-UEXT-full\Microchip\TCPIP Stack\UDP.c
           localSeqNumber   0x000c38       data     static C:\Users\Tim\Desktop\PIC-WEB-5-42-UEXT-full\Microchip\TCPIP Stack\TCP.c
               local_addr   0x000c57       data     static C:\Users\Tim\Desktop\PIC-WEB-5-42-UEXT-full\Microchip\TCPIP Stack\BerkeleyAPI.c
                  lpStart   0x000c00       data     static C:\Users\Tim\Desktop\PIC-WEB-5-42-UEXT-full\Microchip\TCPIP Stack\SMTP.c
                  lpStart   0x000c00       data     static C:\Users\Tim\Desktop\PIC-WEB-5-42-UEXT-full\Microchip\TCPIP Stack\SMTP.c
                  macAddr   0x0004f7       data     static C:\Users\Tim\Desktop\PIC-WEB-5-42-UEXT-full\Microchip\TCPIP Stack\DHCPs.c
                  macAddr   0x0004f3       data     static C:\Users\Tim\Desktop\PIC-WEB-5-42-UEXT-full\Microchip\TCPIP Stack\DHCPs.c
                 macAddr1   0x0004ef       data     static C:\Users\Tim\Desktop\PIC-WEB-5-42-UEXT-full\Microchip\TCPIP Stack\DHCPs.c
                 macAddr2   0x0004f1       data     static C:\Users\Tim\Desktop\PIC-WEB-5-42-UEXT-full\Microchip\TCPIP Stack\DHCPs.c
                      md5   0x000e06       data     static C:\Users\Tim\Desktop\PIC-WEB-5-42-UEXT-full\TCPIP\Demo App\CustomHTTPApp.c
              messageType   0x0003fe       data     static C:\Users\Tim\Desktop\PIC-WEB-5-42-UEXT-full\Microchip\TCPIP Stack\DHCP.c
                   mychar   0x000c0d       data     static C:\Users\Tim\Desktop\PIC-WEB-5-42-UEXT-full\Microchip\TCPIP Stack\Telnet.c
                        n   0x000c0e       data     static C:\Users\Tim\Desktop\PIC-WEB-5-42-UEXT-full\TCPIP\Demo App\MainDemo.c
                 nStrings   0x000748       data     static C:\Users\Tim\Desktop\PIC-WEB-5-42-UEXT-full\Microchip\TCPIP Stack\Helpers.c
                     name   0x0007a6       data     static C:\Users\Tim\Desktop\PIC-WEB-5-42-UEXT-full\Microchip\TCPIP Stack\BerkeleyAPI.c
                     name   0x000799       data     static C:\Users\Tim\Desktop\PIC-WEB-5-42-UEXT-full\Microchip\TCPIP Stack\BerkeleyAPI.c
                     name   0x0007d2       data     static C:\Users\Tim\Desktop\PIC-WEB-5-42-UEXT-full\Microchip\TCPIP Stack\BerkeleyAPI.c
                 nameHash   0x000c46       data     static C:\Users\Tim\Desktop\PIC-WEB-5-42-UEXT-full\Microchip\TCPIP Stack\MPFS2.c
                 nameHash   0x000c01       data     static C:\Users\Tim\Desktop\PIC-WEB-5-42-UEXT-full\Microchip\TCPIP Stack\MPFS2.c
                  namelen   0x0007a8       data     static C:\Users\Tim\Desktop\PIC-WEB-5-42-UEXT-full\Microchip\TCPIP Stack\BerkeleyAPI.c
                  namelen   0x00079b       data     static C:\Users\Tim\Desktop\PIC-WEB-5-42-UEXT-full\Microchip\TCPIP Stack\BerkeleyAPI.c
                  namelen   0x0007d4       data     static C:\Users\Tim\Desktop\PIC-WEB-5-42-UEXT-full\Microchip\TCPIP Stack\BerkeleyAPI.c
             newAppConfig   0x000c00       data     static C:\Users\Tim\Desktop\PIC-WEB-5-42-UEXT-full\TCPIP\Demo App\CustomHTTPApp.c
                      num   0x000e63       data     static C:\Users\Tim\Desktop\PIC-WEB-5-42-UEXT-full\TCPIP\Demo App\CustomHTTPApp.c
                      num   0x000e6f       data     static C:\Users\Tim\Desktop\PIC-WEB-5-42-UEXT-full\TCPIP\Demo App\CustomHTTPApp.c
                      num   0x000e71       data     static C:\Users\Tim\Desktop\PIC-WEB-5-42-UEXT-full\TCPIP\Demo App\CustomHTTPApp.c
                      num   0x000e65       data     static C:\Users\Tim\Desktop\PIC-WEB-5-42-UEXT-full\TCPIP\Demo App\CustomHTTPApp.c
                      num   0x000e67       data     static C:\Users\Tim\Desktop\PIC-WEB-5-42-UEXT-full\TCPIP\Demo App\CustomHTTPApp.c
                 numBytes   0x000c00       data     static C:\Users\Tim\Desktop\PIC-WEB-5-42-UEXT-full\Microchip\TCPIP Stack\HTTP2.c
                 numFiles   0x0000c9       data     static C:\Users\Tim\Desktop\PIC-WEB-5-42-UEXT-full\Microchip\TCPIP Stack\MPFS2.c
                   offset   0x000c44       data     static C:\Users\Tim\Desktop\PIC-WEB-5-42-UEXT-full\TCPIP\Demo App\MainDemo.c
                   offset   0x0008bf       data     static C:\Users\Tim\Desktop\PIC-WEB-5-42-UEXT-full\Microchip\TCPIP Stack\ETH97J60.c
                   offset   0x0008c5       data     static C:\Users\Tim\Desktop\PIC-WEB-5-42-UEXT-full\Microchip\TCPIP Stack\ETH97J60.c
                   oldPtr   0x000c00       data     static C:\Users\Tim\Desktop\PIC-WEB-5-42-UEXT-full\Microchip\TCPIP Stack\HTTP2.c
                   oldPtr   0x000c00       data     static C:\Users\Tim\Desktop\PIC-WEB-5-42-UEXT-full\Microchip\TCPIP Stack\HTTP2.c
                   oldVal   0x000caa       data     static C:\Users\Tim\Desktop\PIC-WEB-5-42-UEXT-full\Microchip\TCPIP Stack\ETH97J60.c
                   oldVal   0x000caa       data     static C:\Users\Tim\Desktop\PIC-WEB-5-42-UEXT-full\Microchip\TCPIP Stack\ETH97J60.c
                     once   0x000b2d       data     static C:\Users\Tim\Desktop\PIC-WEB-5-42-UEXT-full\Microchip\TCPIP Stack\StackTsk.c
                   op_req   0x0005ea       data     static C:\Users\Tim\Desktop\PIC-WEB-5-42-UEXT-full\Microchip\TCPIP Stack\ARP.c
                  options   0x000c98       data     static C:\Users\Tim\Desktop\PIC-WEB-5-42-UEXT-full\Microchip\TCPIP Stack\TCP.c
              optionsSize   0x000c24       data     static C:\Users\Tim\Desktop\PIC-WEB-5-42-UEXT-full\Microchip\TCPIP Stack\TCP.c
                        p   0x000c5d       data     static C:\Users\Tim\Desktop\PIC-WEB-5-42-UEXT-full\Microchip\TCPIP Stack\UDP.c
                        p   0x000c1b       data     static C:\Users\Tim\Desktop\PIC-WEB-5-42-UEXT-full\Microchip\TCPIP Stack\UDP.c
                        p   0x000c5c       data     static C:\Users\Tim\Desktop\PIC-WEB-5-42-UEXT-full\Microchip\TCPIP Stack\UDP.c
                        p   0x0005fd       data     static C:\Users\Tim\Desktop\PIC-WEB-5-42-UEXT-full\Microchip\TCPIP Stack\ARP.c
              pListenSock   0x000c35       data     static C:\Users\Tim\Desktop\PIC-WEB-5-42-UEXT-full\Microchip\TCPIP Stack\BerkeleyAPI.c
                    pRead   0x000c39       data     static C:\Users\Tim\Desktop\PIC-WEB-5-42-UEXT-full\Microchip\TCPIP Stack\HTTP2.c
                   pWrite   0x000c3b       data     static C:\Users\Tim\Desktop\PIC-WEB-5-42-UEXT-full\Microchip\TCPIP Stack\HTTP2.c
                   packet   0x000c00       data     static C:\Users\Tim\Desktop\PIC-WEB-5-42-UEXT-full\Microchip\TCPIP Stack\ARP.c
                   packet   0x0005eb       data     static C:\Users\Tim\Desktop\PIC-WEB-5-42-UEXT-full\Microchip\TCPIP Stack\ARP.c
                   packet   0x000c55       data     static C:\Users\Tim\Desktop\PIC-WEB-5-42-UEXT-full\Microchip\TCPIP Stack\ARP.c
                   packet   0x000c00       data     static C:\Users\Tim\Desktop\PIC-WEB-5-42-UEXT-full\Microchip\TCPIP Stack\ARP.c
                     page   0x000cad       data     static C:\Users\Tim\Desktop\PIC-WEB-5-42-UEXT-full\Microchip\TCPIP Stack\SPIFlash.c
                     page   0x000cab       data     static C:\Users\Tim\Desktop\PIC-WEB-5-42-UEXT-full\Microchip\TCPIP Stack\SPIFlash.c
                     page   0x000cab       data     static C:\Users\Tim\Desktop\PIC-WEB-5-42-UEXT-full\Microchip\TCPIP Stack\SPIFlash.c
                  partPtr   0x000c2b       data     static C:\Users\Tim\Desktop\PIC-WEB-5-42-UEXT-full\Microchip\TCPIP Stack\Hashes.c
             partialMatch   0x000c1a       data     static C:\Users\Tim\Desktop\PIC-WEB-5-42-UEXT-full\Microchip\TCPIP Stack\UDP.c
             partialMatch   0x000c26       data     static C:\Users\Tim\Desktop\PIC-WEB-5-42-UEXT-full\Microchip\TCPIP Stack\TCP.c
                      pkt   0x000c00       data     static C:\Users\Tim\Desktop\PIC-WEB-5-42-UEXT-full\TCPIP\Demo App\BerkeleyUDPClientDemo.c
                      pkt   0x000c00       data     static C:\Users\Tim\Desktop\PIC-WEB-5-42-UEXT-full\Microchip\TCPIP Stack\SNTP.c
                     prom   0x0002f6       data     static E:\3.46\pic18-lt\cxx-framework\src\traditional\startup\c018i.c
                 protocol   0x00097d       data     static C:\Users\Tim\Desktop\PIC-WEB-5-42-UEXT-full\Microchip\TCPIP Stack\IP.c
                 protocol   0x000983       data     static C:\Users\Tim\Desktop\PIC-WEB-5-42-UEXT-full\Microchip\TCPIP Stack\IP.c
                 protocol   0x000796       data     static C:\Users\Tim\Desktop\PIC-WEB-5-42-UEXT-full\Microchip\TCPIP Stack\BerkeleyAPI.c
                       ps   0x000c35       data     static C:\Users\Tim\Desktop\PIC-WEB-5-42-UEXT-full\Microchip\TCPIP Stack\BerkeleyAPI.c
             pseudoHeader   0x000c61       data     static C:\Users\Tim\Desktop\PIC-WEB-5-42-UEXT-full\Microchip\TCPIP Stack\UDP.c
             pseudoHeader   0x000c14       data     static C:\Users\Tim\Desktop\PIC-WEB-5-42-UEXT-full\Microchip\TCPIP Stack\TCP.c
             pseudoHeader   0x000c9c       data     static C:\Users\Tim\Desktop\PIC-WEB-5-42-UEXT-full\Microchip\TCPIP Stack\TCP.c
             pseudoHeader   0x000c09       data     static C:\Users\Tim\Desktop\PIC-WEB-5-42-UEXT-full\Microchip\TCPIP Stack\UDP.c
                      ptr   0x000c15       data     static C:\Users\Tim\Desktop\PIC-WEB-5-42-UEXT-full\Microchip\TCPIP Stack\MPFS2.c
                      ptr   0x000c5a       data     static C:\Users\Tim\Desktop\PIC-WEB-5-42-UEXT-full\Microchip\TCPIP Stack\MPFS2.c
                      ptr   0x000c00       data     static C:\Users\Tim\Desktop\PIC-WEB-5-42-UEXT-full\TCPIP\Demo App\CustomHTTPApp.c
                      ptr   0x000c33       data     static C:\Users\Tim\Desktop\PIC-WEB-5-42-UEXT-full\TCPIP\Demo App\CustomHTTPApp.c
                      ptr   0x000c00       data     static C:\Users\Tim\Desktop\PIC-WEB-5-42-UEXT-full\TCPIP\Demo App\CustomHTTPApp.c
                      ptr   0x000c00       data     static C:\Users\Tim\Desktop\PIC-WEB-5-42-UEXT-full\TCPIP\Demo App\CustomHTTPApp.c
             ptrAppConfig   0x00069c       data     static C:\Users\Tim\Desktop\PIC-WEB-5-42-UEXT-full\TCPIP\Demo App\MainDemo.c
           ptrBaseAddress   0x000c1a       data     static C:\Users\Tim\Desktop\PIC-WEB-5-42-UEXT-full\Microchip\TCPIP Stack\TCP.c
                   ptrBuf   0x000c2a       data     static C:\Users\Tim\Desktop\PIC-WEB-5-42-UEXT-full\Microchip\TCPIP Stack\HTTP2.c
                  ptrData   0x000e5f       data     static C:\Users\Tim\Desktop\PIC-WEB-5-42-UEXT-full\TCPIP\Demo App\CustomHTTPApp.c
                  ptrDest   0x0003bf       data     static C:\Users\Tim\Desktop\PIC-WEB-5-42-UEXT-full\Microchip\TCPIP Stack\TCP.c
                  ptrHead   0x000c02       data     static C:\Users\Tim\Desktop\PIC-WEB-5-42-UEXT-full\Microchip\TCPIP Stack\TCP.c
              ptrLocation   0x000c4a       data     static C:\Users\Tim\Desktop\PIC-WEB-5-42-UEXT-full\Microchip\TCPIP Stack\TCP.c
              ptrLocation   0x000c4a       data     static C:\Users\Tim\Desktop\PIC-WEB-5-42-UEXT-full\Microchip\TCPIP Stack\TCP.c
                  ptrRead   0x000c44       data     static C:\Users\Tim\Desktop\PIC-WEB-5-42-UEXT-full\Microchip\TCPIP Stack\TCP.c
                  ptrRead   0x000c00       data     static C:\Users\Tim\Desktop\PIC-WEB-5-42-UEXT-full\Microchip\TCPIP Stack\TCP.c
                  ptrRead   0x000c44       data     static C:\Users\Tim\Desktop\PIC-WEB-5-42-UEXT-full\Microchip\TCPIP Stack\TCP.c
                ptrSource   0x0003c2       data     static C:\Users\Tim\Desktop\PIC-WEB-5-42-UEXT-full\Microchip\TCPIP Stack\TCP.c
                  ptrTemp   0x000c00       data     static C:\Users\Tim\Desktop\PIC-WEB-5-42-UEXT-full\Microchip\TCPIP Stack\TCP.c
                       qw   0x000c10       data     static C:\Users\Tim\Desktop\PIC-WEB-5-42-UEXT-full\Microchip\TCPIP Stack\TCPPerformanceTest.c
                       qw   0x000c14       data     static C:\Users\Tim\Desktop\PIC-WEB-5-42-UEXT-full\Microchip\TCPIP Stack\TCPPerformanceTest.c
                        r   0x000c0c       data     static C:\Users\Tim\Desktop\PIC-WEB-5-42-UEXT-full\TCPIP\Demo App\CustomHTTPApp.c
             randomResult   0x000c0b       data     static C:\Users\Tim\Desktop\PIC-WEB-5-42-UEXT-full\Microchip\TCPIP Stack\Helpers.c
                 rcounter   0x000c0b       data     static C:\Users\Tim\Desktop\PIC-WEB-5-42-UEXT-full\Microchip\TCPIP Stack\Telnet.c
                    rdptr   0x000f58       data     static C:\Users\Tim\Desktop\PIC-WEB-5-42-UEXT-full\TCPIP\Demo App\Olimex_Demo_Files\Custom_SPI_Low.c
               recvBuffer   0x000c00       data     static C:\Users\Tim\Desktop\PIC-WEB-5-42-UEXT-full\TCPIP\Demo App\BerkeleyTCPClientDemo.c
                      reg   0x000c37       data     static C:\Users\Tim\Desktop\PIC-WEB-5-42-UEXT-full\Microchip\TCPIP Stack\Telnet.c
                      rem   0x000c02       data     static C:\Users\Tim\Desktop\PIC-WEB-5-42-UEXT-full\TCPIP\Demo App\CustomHTTPApp.c
                 rem_addr   0x000c36       data     static C:\Users\Tim\Desktop\PIC-WEB-5-42-UEXT-full\Microchip\TCPIP Stack\BerkeleyAPI.c
                   remote   0x000981       data     static C:\Users\Tim\Desktop\PIC-WEB-5-42-UEXT-full\Microchip\TCPIP Stack\IP.c
                   remote   0x00097b       data     static C:\Users\Tim\Desktop\PIC-WEB-5-42-UEXT-full\Microchip\TCPIP Stack\IP.c
                   remote   0x0008ba       data     static C:\Users\Tim\Desktop\PIC-WEB-5-42-UEXT-full\Microchip\TCPIP Stack\ETH97J60.c
                   remote   0x000952       data     static C:\Users\Tim\Desktop\PIC-WEB-5-42-UEXT-full\Microchip\TCPIP Stack\ICMP.c
                   remote   0x0008b6       data     static C:\Users\Tim\Desktop\PIC-WEB-5-42-UEXT-full\Microchip\TCPIP Stack\ETH97J60.c
                   remote   0x0003a7       data     static C:\Users\Tim\Desktop\PIC-WEB-5-42-UEXT-full\Microchip\TCPIP Stack\TCP.c
                   remote   0x0003b1       data     static C:\Users\Tim\Desktop\PIC-WEB-5-42-UEXT-full\Microchip\TCPIP Stack\TCP.c
               remoteHost   0x0002c2       data     static C:\Users\Tim\Desktop\PIC-WEB-5-42-UEXT-full\Microchip\TCPIP Stack\UDP.c
           remoteHostType   0x0002c6       data     static C:\Users\Tim\Desktop\PIC-WEB-5-42-UEXT-full\Microchip\TCPIP Stack\UDP.c
                 remoteIP   0x000c11       data     static C:\Users\Tim\Desktop\PIC-WEB-5-42-UEXT-full\Microchip\TCPIP Stack\BerkeleyAPI.c
               remoteInfo   0x000c39       data     static C:\Users\Tim\Desktop\PIC-WEB-5-42-UEXT-full\Microchip\TCPIP Stack\BerkeleyAPI.c
               remoteNode   0x0002ea       data     static C:\Users\Tim\Desktop\PIC-WEB-5-42-UEXT-full\Microchip\TCPIP Stack\UDP.c
               remoteNode   0x000e76       data     extern C:\Users\Tim\Desktop\PIC-WEB-5-42-UEXT-full\Microchip\TCPIP Stack\StackTsk.c
               remoteNode   0x0002f2       data     static C:\Users\Tim\Desktop\PIC-WEB-5-42-UEXT-full\Microchip\TCPIP Stack\UDP.c
               remotePort   0x0002c9       data     static C:\Users\Tim\Desktop\PIC-WEB-5-42-UEXT-full\Microchip\TCPIP Stack\UDP.c
               remotePort   0x000c15       data     static C:\Users\Tim\Desktop\PIC-WEB-5-42-UEXT-full\Microchip\TCPIP Stack\BerkeleyAPI.c
           remoteSockInfo   0x000c38       data     static C:\Users\Tim\Desktop\PIC-WEB-5-42-UEXT-full\Microchip\TCPIP Stack\BerkeleyAPI.c
           remoteSockInfo   0x000c37       data     static C:\Users\Tim\Desktop\PIC-WEB-5-42-UEXT-full\Microchip\TCPIP Stack\BerkeleyAPI.c
                 response   0x000c8e       data     static C:\Users\Tim\Desktop\PIC-WEB-5-42-UEXT-full\TCPIP\Demo App\UARTConfig.c
                   result   0x0005d6       data     static C:\Users\Tim\Desktop\PIC-WEB-5-42-UEXT-full\Microchip\TCPIP Stack\Hashes.c
                   result   0x000c00       data     static C:\Users\Tim\Desktop\PIC-WEB-5-42-UEXT-full\Microchip\TCPIP Stack\SMTP.c
                   result   0x000c00       data     static C:\Users\Tim\Desktop\PIC-WEB-5-42-UEXT-full\Microchip\TCPIP Stack\SMTP.c
                   result   0x000c0c       data     static C:\Users\Tim\Desktop\PIC-WEB-5-42-UEXT-full\Microchip\TCPIP Stack\SMTP.c
                   result   0x000c0c       data     static C:\Users\Tim\Desktop\PIC-WEB-5-42-UEXT-full\Microchip\TCPIP Stack\SMTP.c
                   result   0x000cad       data     static C:\Users\Tim\Desktop\PIC-WEB-5-42-UEXT-full\Microchip\TCPIP Stack\SPIFlash.c
                      ret   0x000c0a       data     static C:\Users\Tim\Desktop\PIC-WEB-5-42-UEXT-full\TCPIP\Demo App\PingDemo.c
                        s   0x000c37       data     static C:\Users\Tim\Desktop\PIC-WEB-5-42-UEXT-full\Microchip\TCPIP Stack\BerkeleyAPI.c
                        s   0x000798       data     static C:\Users\Tim\Desktop\PIC-WEB-5-42-UEXT-full\Microchip\TCPIP Stack\BerkeleyAPI.c
                        s   0x00079d       data     static C:\Users\Tim\Desktop\PIC-WEB-5-42-UEXT-full\Microchip\TCPIP Stack\BerkeleyAPI.c
                        s   0x0007a0       data     static C:\Users\Tim\Desktop\PIC-WEB-5-42-UEXT-full\Microchip\TCPIP Stack\BerkeleyAPI.c
                        s   0x0002d3       data     static C:\Users\Tim\Desktop\PIC-WEB-5-42-UEXT-full\Microchip\TCPIP Stack\UDP.c
                        s   0x0002ce       data     static C:\Users\Tim\Desktop\PIC-WEB-5-42-UEXT-full\Microchip\TCPIP Stack\UDP.c
                        s   0x0007a5       data     static C:\Users\Tim\Desktop\PIC-WEB-5-42-UEXT-full\Microchip\TCPIP Stack\BerkeleyAPI.c
                        s   0x000c5b       data     static C:\Users\Tim\Desktop\PIC-WEB-5-42-UEXT-full\Microchip\TCPIP Stack\UDP.c
                        s   0x0002e3       data     static C:\Users\Tim\Desktop\PIC-WEB-5-42-UEXT-full\Microchip\TCPIP Stack\UDP.c
                        s   0x0007aa       data     static C:\Users\Tim\Desktop\PIC-WEB-5-42-UEXT-full\Microchip\TCPIP Stack\BerkeleyAPI.c
                        s   0x000c00       data     static C:\Users\Tim\Desktop\PIC-WEB-5-42-UEXT-full\Microchip\TCPIP Stack\UDP.c
                        s   0x0007b1       data     static C:\Users\Tim\Desktop\PIC-WEB-5-42-UEXT-full\Microchip\TCPIP Stack\BerkeleyAPI.c
                        s   0x000c08       data     static C:\Users\Tim\Desktop\PIC-WEB-5-42-UEXT-full\Microchip\TCPIP Stack\UDP.c
                        s   0x0007d7       data     static C:\Users\Tim\Desktop\PIC-WEB-5-42-UEXT-full\Microchip\TCPIP Stack\BerkeleyAPI.c
                        s   0x0007d6       data     static C:\Users\Tim\Desktop\PIC-WEB-5-42-UEXT-full\Microchip\TCPIP Stack\BerkeleyAPI.c
                        s   0x0007c0       data     static C:\Users\Tim\Desktop\PIC-WEB-5-42-UEXT-full\Microchip\TCPIP Stack\BerkeleyAPI.c
                        s   0x0007c7       data     static C:\Users\Tim\Desktop\PIC-WEB-5-42-UEXT-full\Microchip\TCPIP Stack\BerkeleyAPI.c
                        s   0x000c19       data     static C:\Users\Tim\Desktop\PIC-WEB-5-42-UEXT-full\Microchip\TCPIP Stack\UDP.c
                        s   0x000c00       data     static C:\Users\Tim\Desktop\PIC-WEB-5-42-UEXT-full\Microchip\TCPIP Stack\BerkeleyAPI.c
             searchString   0x00073f       data     static C:\Users\Tim\Desktop\PIC-WEB-5-42-UEXT-full\Microchip\TCPIP Stack\Helpers.c
                     seed   0x000872       data     static C:\Users\Tim\Desktop\PIC-WEB-5-42-UEXT-full\Microchip\TCPIP Stack\AutoIP.c
              sendRequest   0x000500       data     static C:\Users\Tim\Desktop\PIC-WEB-5-42-UEXT-full\TCPIP\Demo App\BerkeleyTCPClientDemo.c
                     size   0x000c37       data     static C:\Users\Tim\Desktop\PIC-WEB-5-42-UEXT-full\Microchip\TCPIP Stack\BerkeleyAPI.c
                    smARP   0x000b3f       data     static C:\Users\Tim\Desktop\PIC-WEB-5-42-UEXT-full\Microchip\TCPIP Stack\ARP.c
             smDHCPServer   0x0009f3       data     static C:\Users\Tim\Desktop\PIC-WEB-5-42-UEXT-full\Microchip\TCPIP Stack\DHCPs.c
                    smDNS   0x000b24       data     static C:\Users\Tim\Desktop\PIC-WEB-5-42-UEXT-full\Microchip\TCPIP Stack\DNS.c
                   smNBNS   0x000b38       data     static C:\Users\Tim\Desktop\PIC-WEB-5-42-UEXT-full\Microchip\TCPIP Stack\NBNS.c
                  smStack   0x000e75       data     static C:\Users\Tim\Desktop\PIC-WEB-5-42-UEXT-full\Microchip\TCPIP Stack\StackTsk.c
                smp_phase   0x000f5f       data     static C:\Users\Tim\Desktop\PIC-WEB-5-42-UEXT-full\TCPIP\Demo App\Olimex_Demo_Files\Custom_SPI_Low.c
                sockCount   0x000c3b       data     static C:\Users\Tim\Desktop\PIC-WEB-5-42-UEXT-full\Microchip\TCPIP Stack\BerkeleyAPI.c
                   socket   0x000c0d       data     static C:\Users\Tim\Desktop\PIC-WEB-5-42-UEXT-full\Microchip\TCPIP Stack\BerkeleyAPI.c
                   socket   0x000c02       data     static C:\Users\Tim\Desktop\PIC-WEB-5-42-UEXT-full\Microchip\TCPIP Stack\BerkeleyAPI.c
                   socket   0x000c35       data     static C:\Users\Tim\Desktop\PIC-WEB-5-42-UEXT-full\Microchip\TCPIP Stack\BerkeleyAPI.c
                   socket   0x000c3a       data     static C:\Users\Tim\Desktop\PIC-WEB-5-42-UEXT-full\Microchip\TCPIP Stack\BerkeleyAPI.c
                   socket   0x000c34       data     static C:\Users\Tim\Desktop\PIC-WEB-5-42-UEXT-full\Microchip\TCPIP Stack\BerkeleyAPI.c
                   socket   0x000c36       data     static C:\Users\Tim\Desktop\PIC-WEB-5-42-UEXT-full\Microchip\TCPIP Stack\BerkeleyAPI.c
                   socket   0x000c55       data     static C:\Users\Tim\Desktop\PIC-WEB-5-42-UEXT-full\Microchip\TCPIP Stack\BerkeleyAPI.c
                   socket   0x000c55       data     static C:\Users\Tim\Desktop\PIC-WEB-5-42-UEXT-full\Microchip\TCPIP Stack\BerkeleyAPI.c
                   socket   0x0002cd       data     static C:\Users\Tim\Desktop\PIC-WEB-5-42-UEXT-full\Microchip\TCPIP Stack\UDP.c
                   socket   0x000c35       data     static C:\Users\Tim\Desktop\PIC-WEB-5-42-UEXT-full\Microchip\TCPIP Stack\BerkeleyAPI.c
              socketcount   0x000c38       data     static C:\Users\Tim\Desktop\PIC-WEB-5-42-UEXT-full\Microchip\TCPIP Stack\BerkeleyAPI.c
               sourceAddr   0x0008cd       data     static C:\Users\Tim\Desktop\PIC-WEB-5-42-UEXT-full\Microchip\TCPIP Stack\ETH97J60.c
                  spiData   0x000c0e       data     static C:\Users\Tim\Desktop\PIC-WEB-5-42-UEXT-full\Microchip\TCPIP Stack\Telnet.c
                       ss   0x000c00       data     static C:\Users\Tim\Desktop\PIC-WEB-5-42-UEXT-full\Microchip\TCPIP Stack\UDP.c
                startTick   0x0007bc       data     static C:\Users\Tim\Desktop\PIC-WEB-5-42-UEXT-full\Microchip\TCPIP Stack\BerkeleyAPI.c
                    state   0x000c00       data     static C:\Users\Tim\Desktop\PIC-WEB-5-42-UEXT-full\TCPIP\Demo App\UARTConfig.c
                    state   0x000e69       data     static C:\Users\Tim\Desktop\PIC-WEB-5-42-UEXT-full\TCPIP\Demo App\CustomHTTPApp.c
                   status   0x000c42       data     static C:\Users\Tim\Desktop\PIC-WEB-5-42-UEXT-full\Microchip\TCPIP Stack\HTTP2.c
                   status   0x000c42       data     static C:\Users\Tim\Desktop\PIC-WEB-5-42-UEXT-full\Microchip\TCPIP Stack\HTTP2.c
                   status   0x000c39       data     static C:\Users\Tim\Desktop\PIC-WEB-5-42-UEXT-full\Microchip\TCPIP Stack\HTTP2.c
                      str   0x000c02       data     static C:\Users\Tim\Desktop\PIC-WEB-5-42-UEXT-full\Microchip\TCPIP Stack\Helpers.c
                      str   0x000708       data     static C:\Users\Tim\Desktop\PIC-WEB-5-42-UEXT-full\Microchip\TCPIP Stack\Helpers.c
                      str   0x000f52       data     static C:\Users\Tim\Desktop\PIC-WEB-5-42-UEXT-full\Microchip\TCPIP Stack\SMTP.c
                      str   0x000704       data     static C:\Users\Tim\Desktop\PIC-WEB-5-42-UEXT-full\Microchip\TCPIP Stack\Helpers.c
                      str   0x000f4e       data     static C:\Users\Tim\Desktop\PIC-WEB-5-42-UEXT-full\Microchip\TCPIP Stack\SMTP.c
                  strData   0x0002e0       data     static C:\Users\Tim\Desktop\PIC-WEB-5-42-UEXT-full\Microchip\TCPIP Stack\UDP.c
                  strData   0x0002de       data     static C:\Users\Tim\Desktop\PIC-WEB-5-42-UEXT-full\Microchip\TCPIP Stack\UDP.c
                      sum   0x000cc2       data     static C:\Users\Tim\Desktop\PIC-WEB-5-42-UEXT-full\Microchip\TCPIP Stack\Helpers.c
                sync_mode   0x000f5d       data     static C:\Users\Tim\Desktop\PIC-WEB-5-42-UEXT-full\TCPIP\Demo App\Olimex_Demo_Files\Custom_SPI_Low.c
                   szPort   0x000e61       data     static C:\Users\Tim\Desktop\PIC-WEB-5-42-UEXT-full\TCPIP\Demo App\CustomHTTPApp.c
             szRemoteHost   0x00095c       data     static C:\Users\Tim\Desktop\PIC-WEB-5-42-UEXT-full\Microchip\TCPIP Stack\ICMP.c
             szRemoteHost   0x00095a       data     static C:\Users\Tim\Desktop\PIC-WEB-5-42-UEXT-full\Microchip\TCPIP Stack\ICMP.c
                        t   0x000cbe       data     static C:\Users\Tim\Desktop\PIC-WEB-5-42-UEXT-full\Microchip\TCPIP Stack\Helpers.c
                        t   0x000c34       data     static C:\Users\Tim\Desktop\PIC-WEB-5-42-UEXT-full\Microchip\TCPIP Stack\Helpers.c
                        t   0x0009e0       data     static C:\Users\Tim\Desktop\PIC-WEB-5-42-UEXT-full\TCPIP\Demo App\MainDemo.c
                    tMode   0x0000e3       data     static C:\Users\Tim\Desktop\PIC-WEB-5-42-UEXT-full\Microchip\TCPIP Stack\MPFS2.c
              tblptru_sav   0x0006ff       data     static E:\3.46\pic18-lt\cxx-framework\src\traditional\stdclib\mcpyp2r.asm
              tblptru_sav   0x0006fe       data     static E:\3.46\pic18-lt\cxx-framework\src\traditional\stdclib\mcmpp2r.asm
                     temp   0x000c14       data     static C:\Users\Tim\Desktop\PIC-WEB-5-42-UEXT-full\TCPIP\Demo App\MainDemo.c
                     temp   0x000c16       data     static C:\Users\Tim\Desktop\PIC-WEB-5-42-UEXT-full\Microchip\TCPIP Stack\ETH97J60.c
                     temp   0x000c08       data     static C:\Users\Tim\Desktop\PIC-WEB-5-42-UEXT-full\TCPIP\Demo App\MainDemo.c
                     temp   0x000c45       data     static C:\Users\Tim\Desktop\PIC-WEB-5-42-UEXT-full\Microchip\TCPIP Stack\MPFS2.c
                     temp   0x000c14       data     static C:\Users\Tim\Desktop\PIC-WEB-5-42-UEXT-full\Microchip\TCPIP Stack\Hashes.c
                 tempData   0x000c06       data     static C:\Users\Tim\Desktop\PIC-WEB-5-42-UEXT-full\TCPIP\Demo App\UARTConfig.c
              tempIPValue   0x000ca2       data     static C:\Users\Tim\Desktop\PIC-WEB-5-42-UEXT-full\TCPIP\Demo App\UARTConfig.c
                   tempIT   0x000c33       data     static C:\Users\Tim\Desktop\PIC-WEB-5-42-UEXT-full\Microchip\TCPIP Stack\Telnet.c
              tempLocalIP   0x000c73       data     static C:\Users\Tim\Desktop\PIC-WEB-5-42-UEXT-full\Microchip\TCPIP Stack\StackTsk.c
             tempServerID   0x000c05       data     static C:\Users\Tim\Desktop\PIC-WEB-5-42-UEXT-full\Microchip\TCPIP Stack\DHCP.c
                  tempStr   0x000c15       data     static C:\Users\Tim\Desktop\PIC-WEB-5-42-UEXT-full\Microchip\TCPIP Stack\Telnet.c
                   tempTC   0x000c2f       data     static C:\Users\Tim\Desktop\PIC-WEB-5-42-UEXT-full\Microchip\TCPIP Stack\Telnet.c
              temperature   0x000c08       data     static C:\Users\Tim\Desktop\PIC-WEB-5-42-UEXT-full\TCPIP\Demo App\CustomHTTPApp.c
                   theSum   0x0005c3       data     static C:\Users\Tim\Desktop\PIC-WEB-5-42-UEXT-full\Microchip\TCPIP Stack\Hashes.c
                   theSum   0x0005bd       data     static C:\Users\Tim\Desktop\PIC-WEB-5-42-UEXT-full\Microchip\TCPIP Stack\Hashes.c
                   theSum   0x0005d4       data     static C:\Users\Tim\Desktop\PIC-WEB-5-42-UEXT-full\Microchip\TCPIP Stack\Hashes.c
                   theSum   0x0005ae       data     static C:\Users\Tim\Desktop\PIC-WEB-5-42-UEXT-full\Microchip\TCPIP Stack\Hashes.c
                   theSum   0x0005bb       data     static C:\Users\Tim\Desktop\PIC-WEB-5-42-UEXT-full\Microchip\TCPIP Stack\Hashes.c
                   theSum   0x0005b4       data     static C:\Users\Tim\Desktop\PIC-WEB-5-42-UEXT-full\Microchip\TCPIP Stack\Hashes.c
                      tmp   0x000c0a       data     static C:\Users\Tim\Desktop\PIC-WEB-5-42-UEXT-full\TCPIP\Demo App\MainDemo.c
                      tmp   0x000c0a       data     static C:\Users\Tim\Desktop\PIC-WEB-5-42-UEXT-full\TCPIP\Demo App\CustomHTTPApp.c
                tmpIpAddr   0x000c41       data     static C:\Users\Tim\Desktop\PIC-WEB-5-42-UEXT-full\Microchip\TCPIP Stack\DHCPs.c
              tmp_MacAddr   0x000c3b       data     static C:\Users\Tim\Desktop\PIC-WEB-5-42-UEXT-full\Microchip\TCPIP Stack\DHCPs.c
                   tmp_ip   0x000c2b       data     static C:\Users\Tim\Desktop\PIC-WEB-5-42-UEXT-full\Microchip\TCPIP Stack\DHCPs.c
                       to   0x0007b8       data     static C:\Users\Tim\Desktop\PIC-WEB-5-42-UEXT-full\Microchip\TCPIP Stack\BerkeleyAPI.c
                 toRotate   0x000734       data     extern C:\Users\Tim\Desktop\PIC-WEB-5-42-UEXT-full\Microchip\TCPIP Stack\Helpers.c
                    tolen   0x0007ba       data     static C:\Users\Tim\Desktop\PIC-WEB-5-42-UEXT-full\Microchip\TCPIP Stack\BerkeleyAPI.c
                      tot   0x000c10       data     static C:\Users\Tim\Desktop\PIC-WEB-5-42-UEXT-full\TCPIP\Demo App\MainDemo.c
                     type   0x000c03       data     static C:\Users\Tim\Desktop\PIC-WEB-5-42-UEXT-full\Microchip\TCPIP Stack\DHCP.c
                     type   0x000794       data     static C:\Users\Tim\Desktop\PIC-WEB-5-42-UEXT-full\Microchip\TCPIP Stack\BerkeleyAPI.c
                     type   0x0008bc       data     static C:\Users\Tim\Desktop\PIC-WEB-5-42-UEXT-full\Microchip\TCPIP Stack\ETH97J60.c
                     type   0x0008b8       data     static C:\Users\Tim\Desktop\PIC-WEB-5-42-UEXT-full\Microchip\TCPIP Stack\ETH97J60.c
                  udpaddr   0x000968       data     static C:\Users\Tim\Desktop\PIC-WEB-5-42-UEXT-full\TCPIP\Demo App\BerkeleyUDPClientDemo.c
                       ul   0x0000dc       data     static C:\Users\Tim\Desktop\PIC-WEB-5-42-UEXT-full\Microchip\TCPIP Stack\MPFS2.c
                        v   0x0002e4       data     static C:\Users\Tim\Desktop\PIC-WEB-5-42-UEXT-full\Microchip\TCPIP Stack\UDP.c
                        v   0x0002d4       data     static C:\Users\Tim\Desktop\PIC-WEB-5-42-UEXT-full\Microchip\TCPIP Stack\UDP.c
                        v   0x00072a       data     static C:\Users\Tim\Desktop\PIC-WEB-5-42-UEXT-full\Microchip\TCPIP Stack\Helpers.c
                        v   0x00072c       data     static C:\Users\Tim\Desktop\PIC-WEB-5-42-UEXT-full\Microchip\TCPIP Stack\Helpers.c
                        v   0x000c00       data     static C:\Users\Tim\Desktop\PIC-WEB-5-42-UEXT-full\Microchip\TCPIP Stack\DHCP.c
                        v   0x000c04       data     static C:\Users\Tim\Desktop\PIC-WEB-5-42-UEXT-full\Microchip\TCPIP Stack\BerkeleyAPI.c
         vARPAttemptCount   0x0007f7       data     static C:\Users\Tim\Desktop\PIC-WEB-5-42-UEXT-full\Microchip\TCPIP Stack\DNS.c
            vBase64Buffer   0x000c0b       data     static C:\Users\Tim\Desktop\PIC-WEB-5-42-UEXT-full\Microchip\TCPIP Stack\SMTP.c
                vBitCount   0x000c00       data     static C:\Users\Tim\Desktop\PIC-WEB-5-42-UEXT-full\Microchip\TCPIP Stack\Helpers.c
                  vBuffer   0x000c44       data     static C:\Users\Tim\Desktop\PIC-WEB-5-42-UEXT-full\Microchip\TCPIP Stack\TCP.c
                  vBuffer   0x000c00       data     static C:\Users\Tim\Desktop\PIC-WEB-5-42-UEXT-full\Microchip\TCPIP Stack\TCPPerformanceTest.c
                  vBuffer   0x000382       data     static C:\Users\Tim\Desktop\PIC-WEB-5-42-UEXT-full\Microchip\TCPIP Stack\TCP.c
                  vBuffer   0x000c03       data     static C:\Users\Tim\Desktop\PIC-WEB-5-42-UEXT-full\TCPIP\Demo App\GenericTCPClient.c
                  vBuffer   0x000c00       data     static C:\Users\Tim\Desktop\PIC-WEB-5-42-UEXT-full\Microchip\TCPIP Stack\TCPPerformanceTest.c
              vByteNumber   0x000c2d       data     static C:\Users\Tim\Desktop\PIC-WEB-5-42-UEXT-full\Microchip\TCPIP Stack\Helpers.c
          vBytesPerSecond   0x00092d       data     static C:\Users\Tim\Desktop\PIC-WEB-5-42-UEXT-full\Microchip\TCPIP Stack\TCPPerformanceTest.c
         vDNSAttemptCount   0x0007f8       data     static C:\Users\Tim\Desktop\PIC-WEB-5-42-UEXT-full\Microchip\TCPIP Stack\DNS.c
                vDestType   0x0003c1       data     static C:\Users\Tim\Desktop\PIC-WEB-5-42-UEXT-full\Microchip\TCPIP Stack\TCP.c
                   vFlags   0x000c03       data     static C:\Users\Tim\Desktop\PIC-WEB-5-42-UEXT-full\Microchip\TCPIP Stack\TCP.c
                   vFlags   0x0003be       data     static C:\Users\Tim\Desktop\PIC-WEB-5-42-UEXT-full\Microchip\TCPIP Stack\TCP.c
               vInterface   0x0003f7       data     static C:\Users\Tim\Desktop\PIC-WEB-5-42-UEXT-full\Microchip\TCPIP Stack\DHCP.c
               vInterface   0x0003f8       data     static C:\Users\Tim\Desktop\PIC-WEB-5-42-UEXT-full\Microchip\TCPIP Stack\DHCP.c
               vInterface   0x0003f9       data     static C:\Users\Tim\Desktop\PIC-WEB-5-42-UEXT-full\Microchip\TCPIP Stack\DHCP.c
               vInterface   0x0003fa       data     static C:\Users\Tim\Desktop\PIC-WEB-5-42-UEXT-full\Microchip\TCPIP Stack\DHCP.c
               vInterface   0x0003fb       data     static C:\Users\Tim\Desktop\PIC-WEB-5-42-UEXT-full\Microchip\TCPIP Stack\DHCP.c
               vInterface   0x0003fc       data     static C:\Users\Tim\Desktop\PIC-WEB-5-42-UEXT-full\Microchip\TCPIP Stack\DHCP.c
               vInterface   0x0003fd       data     static C:\Users\Tim\Desktop\PIC-WEB-5-42-UEXT-full\Microchip\TCPIP Stack\DHCP.c
               vInterface   0x00086b       data     static C:\Users\Tim\Desktop\PIC-WEB-5-42-UEXT-full\Microchip\TCPIP Stack\AutoIP.c
               vInterface   0x00086c       data     static C:\Users\Tim\Desktop\PIC-WEB-5-42-UEXT-full\Microchip\TCPIP Stack\AutoIP.c
               vInterface   0x000877       data     static C:\Users\Tim\Desktop\PIC-WEB-5-42-UEXT-full\Microchip\TCPIP Stack\AutoIP.c
               vInterface   0x00086d       data     static C:\Users\Tim\Desktop\PIC-WEB-5-42-UEXT-full\Microchip\TCPIP Stack\AutoIP.c
               vInterface   0x00086e       data     static C:\Users\Tim\Desktop\PIC-WEB-5-42-UEXT-full\Microchip\TCPIP Stack\AutoIP.c
               vInterface   0x00086f       data     static C:\Users\Tim\Desktop\PIC-WEB-5-42-UEXT-full\Microchip\TCPIP Stack\AutoIP.c
               vInterface   0x000870       data     static C:\Users\Tim\Desktop\PIC-WEB-5-42-UEXT-full\Microchip\TCPIP Stack\AutoIP.c
               vInterface   0x000871       data     static C:\Users\Tim\Desktop\PIC-WEB-5-42-UEXT-full\Microchip\TCPIP Stack\AutoIP.c
               vInterface   0x000876       data     static C:\Users\Tim\Desktop\PIC-WEB-5-42-UEXT-full\Microchip\TCPIP Stack\AutoIP.c
                  vMedium   0x000c1c       data     static C:\Users\Tim\Desktop\PIC-WEB-5-42-UEXT-full\Microchip\TCPIP Stack\TCP.c
      vNeedToSaveDefaults   0x000c00       data     static C:\Users\Tim\Desktop\PIC-WEB-5-42-UEXT-full\TCPIP\Demo App\MainDemo.c
                  vOption   0x000c42       data     static C:\Users\Tim\Desktop\PIC-WEB-5-42-UEXT-full\Microchip\TCPIP Stack\TCP.c
            vOptionsBytes   0x000c41       data     static C:\Users\Tim\Desktop\PIC-WEB-5-42-UEXT-full\Microchip\TCPIP Stack\TCP.c
                  vOutput   0x000c02       data     static C:\Users\Tim\Desktop\PIC-WEB-5-42-UEXT-full\Microchip\TCPIP Stack\Helpers.c
          vRemoteHostType   0x00034a       data     static C:\Users\Tim\Desktop\PIC-WEB-5-42-UEXT-full\Microchip\TCPIP Stack\TCP.c
               vSendFlags   0x0003ae       data     static C:\Users\Tim\Desktop\PIC-WEB-5-42-UEXT-full\Microchip\TCPIP Stack\TCP.c
           vSocketPurpose   0x00034d       data     static C:\Users\Tim\Desktop\PIC-WEB-5-42-UEXT-full\Microchip\TCPIP Stack\TCP.c
        vSocketsAllocated   0x000c15       data     static C:\Users\Tim\Desktop\PIC-WEB-5-42-UEXT-full\Microchip\TCPIP Stack\TCP.c
              vSourceType   0x0003c4       data     static C:\Users\Tim\Desktop\PIC-WEB-5-42-UEXT-full\Microchip\TCPIP Stack\TCP.c
                vTCPFlags   0x0003ad       data     static C:\Users\Tim\Desktop\PIC-WEB-5-42-UEXT-full\Microchip\TCPIP Stack\TCP.c
           vTelnetSession   0x000c01       data     static C:\Users\Tim\Desktop\PIC-WEB-5-42-UEXT-full\Microchip\TCPIP Stack\Telnet.c
            vTelnetStates   0x0000fb       data     static C:\Users\Tim\Desktop\PIC-WEB-5-42-UEXT-full\Microchip\TCPIP Stack\Telnet.c
             vTickReading   0x0009c0       data     static C:\Users\Tim\Desktop\PIC-WEB-5-42-UEXT-full\Microchip\TCPIP Stack\Tick.c
                    vTime   0x000c39       data     static C:\Users\Tim\Desktop\PIC-WEB-5-42-UEXT-full\Microchip\TCPIP Stack\Telnet.c
              vUARTRXFIFO   0x000600       data     static C:\Users\Tim\Desktop\PIC-WEB-5-42-UEXT-full\Microchip\TCPIP Stack\UART2TCPBridge.c
              vUARTTXFIFO   0x000641       data     static C:\Users\Tim\Desktop\PIC-WEB-5-42-UEXT-full\Microchip\TCPIP Stack\UART2TCPBridge.c
                      val   0x000738       data     static C:\Users\Tim\Desktop\PIC-WEB-5-42-UEXT-full\Microchip\TCPIP Stack\Helpers.c
                      val   0x0008d5       data     static C:\Users\Tim\Desktop\PIC-WEB-5-42-UEXT-full\Microchip\TCPIP Stack\ETH97J60.c
                      val   0x0008d6       data     static C:\Users\Tim\Desktop\PIC-WEB-5-42-UEXT-full\Microchip\TCPIP Stack\ETH97J60.c
                      val   0x00089c       data     static C:\Users\Tim\Desktop\PIC-WEB-5-42-UEXT-full\Microchip\TCPIP Stack\SPIFlash.c
                      val   0x0008da       data     static C:\Users\Tim\Desktop\PIC-WEB-5-42-UEXT-full\Microchip\TCPIP Stack\ETH97J60.c
                      val   0x0008d1       data     static C:\Users\Tim\Desktop\PIC-WEB-5-42-UEXT-full\Microchip\TCPIP Stack\ETH97J60.c
                      val   0x00089d       data     static C:\Users\Tim\Desktop\PIC-WEB-5-42-UEXT-full\Microchip\TCPIP Stack\SPIFlash.c
                      val   0x000cc0       data     static C:\Users\Tim\Desktop\PIC-WEB-5-42-UEXT-full\Microchip\TCPIP Stack\Helpers.c
                    value   0x000c29       data     static C:\Users\Tim\Desktop\PIC-WEB-5-42-UEXT-full\Microchip\TCPIP Stack\Telnet.c
                        w   0x000c02       data     static C:\Users\Tim\Desktop\PIC-WEB-5-42-UEXT-full\Microchip\TCPIP Stack\Telnet.c
                        w   0x000c0c       data     static C:\Users\Tim\Desktop\PIC-WEB-5-42-UEXT-full\Microchip\TCPIP Stack\TCPPerformanceTest.c
                        w   0x000c30       data     static C:\Users\Tim\Desktop\PIC-WEB-5-42-UEXT-full\Microchip\TCPIP Stack\SNTP.c
                        w   0x000c35       data     static C:\Users\Tim\Desktop\PIC-WEB-5-42-UEXT-full\Microchip\TCPIP Stack\DNS.c
                        w   0x000c36       data     static C:\Users\Tim\Desktop\PIC-WEB-5-42-UEXT-full\TCPIP\Demo App\CustomHTTPApp.c
                        w   0x000c04       data     static C:\Users\Tim\Desktop\PIC-WEB-5-42-UEXT-full\Microchip\TCPIP Stack\UART2TCPBridge.c
                        w   0x000c54       data     static C:\Users\Tim\Desktop\PIC-WEB-5-42-UEXT-full\Microchip\TCPIP Stack\TCP.c
                        w   0x000c01       data     static C:\Users\Tim\Desktop\PIC-WEB-5-42-UEXT-full\Microchip\TCPIP Stack\Helpers.c
                        w   0x000c09       data     static C:\Users\Tim\Desktop\PIC-WEB-5-42-UEXT-full\Microchip\TCPIP Stack\SMTP.c
                        w   0x000c0a       data     static C:\Users\Tim\Desktop\PIC-WEB-5-42-UEXT-full\Microchip\TCPIP Stack\TCPPerformanceTest.c
                        w   0x000c01       data     static C:\Users\Tim\Desktop\PIC-WEB-5-42-UEXT-full\TCPIP\Demo App\GenericTCPClient.c
                        w   0x000c04       data     static C:\Users\Tim\Desktop\PIC-WEB-5-42-UEXT-full\Microchip\TCPIP Stack\TCP.c
                        w   0x000c01       data     static C:\Users\Tim\Desktop\PIC-WEB-5-42-UEXT-full\TCPIP\Demo App\GenericTCPServer.c
                        w   0x000c02       data     static C:\Users\Tim\Desktop\PIC-WEB-5-42-UEXT-full\Microchip\TCPIP Stack\TCP.c
                        w   0x000cf9       data     static C:\Users\Tim\Desktop\PIC-WEB-5-42-UEXT-full\Microchip\TCPIP Stack\ETH97J60.c
                        w   0x000c02       data     static C:\Users\Tim\Desktop\PIC-WEB-5-42-UEXT-full\Microchip\TCPIP Stack\BerkeleyAPI.c
                       w2   0x000c04       data     static C:\Users\Tim\Desktop\PIC-WEB-5-42-UEXT-full\Microchip\TCPIP Stack\Telnet.c
                       w2   0x000c03       data     static C:\Users\Tim\Desktop\PIC-WEB-5-42-UEXT-full\TCPIP\Demo App\GenericTCPServer.c
                       w3   0x000c06       data     static C:\Users\Tim\Desktop\PIC-WEB-5-42-UEXT-full\Microchip\TCPIP Stack\Telnet.c
                       w4   0x000c08       data     static C:\Users\Tim\Desktop\PIC-WEB-5-42-UEXT-full\Microchip\TCPIP Stack\Telnet.c
               wActualLen   0x000ce1       data     static C:\Users\Tim\Desktop\PIC-WEB-5-42-UEXT-full\Microchip\TCPIP Stack\TCP.c
               wActualLen   0x000c56       data     static C:\Users\Tim\Desktop\PIC-WEB-5-42-UEXT-full\Microchip\TCPIP Stack\TCP.c
           wAddressLength   0x000f3d       data     static C:\Users\Tim\Desktop\PIC-WEB-5-42-UEXT-full\Microchip\TCPIP Stack\SMTP.c
          wBytesAvailable   0x000c4d       data     static C:\Users\Tim\Desktop\PIC-WEB-5-42-UEXT-full\Microchip\TCPIP Stack\UDP.c
             wBytesOutput   0x000c2e       data     static C:\Users\Tim\Desktop\PIC-WEB-5-42-UEXT-full\Microchip\TCPIP Stack\Helpers.c
          wBytesUntilWrap   0x000c04       data     static C:\Users\Tim\Desktop\PIC-WEB-5-42-UEXT-full\Microchip\TCPIP Stack\TCP.c
          wBytesUntilWrap   0x000c48       data     static C:\Users\Tim\Desktop\PIC-WEB-5-42-UEXT-full\Microchip\TCPIP Stack\TCP.c
          wBytesUntilWrap   0x000c48       data     static C:\Users\Tim\Desktop\PIC-WEB-5-42-UEXT-full\Microchip\TCPIP Stack\TCP.c
                wChecksum   0x000c6f       data     static C:\Users\Tim\Desktop\PIC-WEB-5-42-UEXT-full\Microchip\TCPIP Stack\UDP.c
                   wCount   0x000c00       data     static C:\Users\Tim\Desktop\PIC-WEB-5-42-UEXT-full\Microchip\TCPIP Stack\HTTP2.c
            wCurrentChunk   0x000c29       data     static C:\Users\Tim\Desktop\PIC-WEB-5-42-UEXT-full\TCPIP\Demo App\GenericTCPServer.c
       wCurrentETHAddress   0x000c1d       data     static C:\Users\Tim\Desktop\PIC-WEB-5-42-UEXT-full\Microchip\TCPIP Stack\TCP.c
                 wDataLen   0x0002d7       data     static C:\Users\Tim\Desktop\PIC-WEB-5-42-UEXT-full\Microchip\TCPIP Stack\UDP.c
                 wDataLen   0x000c46       data     static C:\Users\Tim\Desktop\PIC-WEB-5-42-UEXT-full\Microchip\TCPIP Stack\TCP.c
                 wDataLen   0x0002dc       data     static C:\Users\Tim\Desktop\PIC-WEB-5-42-UEXT-full\Microchip\TCPIP Stack\UDP.c
                 wDataLen   0x0002e8       data     static C:\Users\Tim\Desktop\PIC-WEB-5-42-UEXT-full\Microchip\TCPIP Stack\UDP.c
                 wDataLen   0x000c00       data     static C:\Users\Tim\Desktop\PIC-WEB-5-42-UEXT-full\Microchip\TCPIP Stack\TCP.c
                 wDataLen   0x000c46       data     static C:\Users\Tim\Desktop\PIC-WEB-5-42-UEXT-full\Microchip\TCPIP Stack\TCP.c
                 wDataLen   0x000c44       data     static C:\Users\Tim\Desktop\PIC-WEB-5-42-UEXT-full\Microchip\TCPIP Stack\TCP.c
                    wDest   0x0003c7       data     static C:\Users\Tim\Desktop\PIC-WEB-5-42-UEXT-full\Microchip\TCPIP Stack\TCP.c
                 wDestLen   0x000713       data     static C:\Users\Tim\Desktop\PIC-WEB-5-42-UEXT-full\Microchip\TCPIP Stack\Helpers.c
                 wDestLen   0x00071b       data     static C:\Users\Tim\Desktop\PIC-WEB-5-42-UEXT-full\Microchip\TCPIP Stack\Helpers.c
                wDestType   0x0003c9       data     static C:\Users\Tim\Desktop\PIC-WEB-5-42-UEXT-full\Microchip\TCPIP Stack\TCP.c
                wFIFOSize   0x000c02       data     static C:\Users\Tim\Desktop\PIC-WEB-5-42-UEXT-full\Microchip\TCPIP Stack\TCP.c
                wFIFOSize   0x000c46       data     static C:\Users\Tim\Desktop\PIC-WEB-5-42-UEXT-full\Microchip\TCPIP Stack\TCP.c
               wFreeSpace   0x000c31       data     static C:\Users\Tim\Desktop\PIC-WEB-5-42-UEXT-full\Microchip\TCPIP Stack\TCP.c
             wFreeTXSpace   0x000c44       data     static C:\Users\Tim\Desktop\PIC-WEB-5-42-UEXT-full\Microchip\TCPIP Stack\TCP.c
             wFreeTXSpace   0x000ce3       data     static C:\Users\Tim\Desktop\PIC-WEB-5-42-UEXT-full\Microchip\TCPIP Stack\TCP.c
             wFreeTXSpace   0x000c58       data     static C:\Users\Tim\Desktop\PIC-WEB-5-42-UEXT-full\Microchip\TCPIP Stack\TCP.c
                  wGetLen   0x000c0e       data     static C:\Users\Tim\Desktop\PIC-WEB-5-42-UEXT-full\Microchip\TCPIP Stack\TCPPerformanceTest.c
               wGetOffset   0x0002bf       data     static C:\Users\Tim\Desktop\PIC-WEB-5-42-UEXT-full\Microchip\TCPIP Stack\UDP.c
           wGetReadyCount   0x000c44       data     static C:\Users\Tim\Desktop\PIC-WEB-5-42-UEXT-full\Microchip\TCPIP Stack\TCP.c
           wGetReadyCount   0x000c44       data     static C:\Users\Tim\Desktop\PIC-WEB-5-42-UEXT-full\Microchip\TCPIP Stack\TCP.c
      wICMPSequenceNumber   0x000941       data     static C:\Users\Tim\Desktop\PIC-WEB-5-42-UEXT-full\Microchip\TCPIP Stack\ICMP.c
               wLastValue   0x000c05       data     static C:\Users\Tim\Desktop\PIC-WEB-5-42-UEXT-full\Microchip\TCPIP Stack\Helpers.c
                     wLen   0x000917       data     static C:\Users\Tim\Desktop\PIC-WEB-5-42-UEXT-full\Microchip\TCPIP Stack\HTTP2.c
                     wLen   0x000c02       data     static C:\Users\Tim\Desktop\PIC-WEB-5-42-UEXT-full\Microchip\TCPIP Stack\HTTP2.c
                     wLen   0x000913       data     static C:\Users\Tim\Desktop\PIC-WEB-5-42-UEXT-full\Microchip\TCPIP Stack\HTTP2.c
                     wLen   0x00089f       data     static C:\Users\Tim\Desktop\PIC-WEB-5-42-UEXT-full\Microchip\TCPIP Stack\SPIFlash.c
                     wLen   0x000f55       data     static C:\Users\Tim\Desktop\PIC-WEB-5-42-UEXT-full\Microchip\TCPIP Stack\SMTP.c
                     wLen   0x000f50       data     static C:\Users\Tim\Desktop\PIC-WEB-5-42-UEXT-full\Microchip\TCPIP Stack\SMTP.c
                     wLen   0x000c3d       data     static C:\Users\Tim\Desktop\PIC-WEB-5-42-UEXT-full\Microchip\TCPIP Stack\HTTP2.c
                     wLen   0x0000f6       data     static C:\Users\Tim\Desktop\PIC-WEB-5-42-UEXT-full\Microchip\TCPIP Stack\MPFS2.c
                     wLen   0x0000e7       data     static C:\Users\Tim\Desktop\PIC-WEB-5-42-UEXT-full\Microchip\TCPIP Stack\MPFS2.c
                     wLen   0x0000d9       data     static C:\Users\Tim\Desktop\PIC-WEB-5-42-UEXT-full\Microchip\TCPIP Stack\MPFS2.c
                     wLen   0x00091c       data     static C:\Users\Tim\Desktop\PIC-WEB-5-42-UEXT-full\Microchip\TCPIP Stack\HTTP2.c
                     wLen   0x000384       data     static C:\Users\Tim\Desktop\PIC-WEB-5-42-UEXT-full\Microchip\TCPIP Stack\TCP.c
                     wLen   0x000399       data     static C:\Users\Tim\Desktop\PIC-WEB-5-42-UEXT-full\Microchip\TCPIP Stack\TCP.c
                     wLen   0x00038e       data     static C:\Users\Tim\Desktop\PIC-WEB-5-42-UEXT-full\Microchip\TCPIP Stack\TCP.c
                wLenStart   0x000c4c       data     static C:\Users\Tim\Desktop\PIC-WEB-5-42-UEXT-full\Microchip\TCPIP Stack\TCP.c
                wLenStart   0x000c4c       data     static C:\Users\Tim\Desktop\PIC-WEB-5-42-UEXT-full\Microchip\TCPIP Stack\TCP.c
                  wLength   0x0003c5       data     static C:\Users\Tim\Desktop\PIC-WEB-5-42-UEXT-full\Microchip\TCPIP Stack\TCP.c
                  wLength   0x0003cd       data     static C:\Users\Tim\Desktop\PIC-WEB-5-42-UEXT-full\Microchip\TCPIP Stack\TCP.c
                     wMSS   0x000c43       data     static C:\Users\Tim\Desktop\PIC-WEB-5-42-UEXT-full\Microchip\TCPIP Stack\TCP.c
                  wMaxGet   0x000c02       data     static C:\Users\Tim\Desktop\PIC-WEB-5-42-UEXT-full\Microchip\TCPIP Stack\UART2TCPBridge.c
                  wMaxGet   0x000c25       data     static C:\Users\Tim\Desktop\PIC-WEB-5-42-UEXT-full\TCPIP\Demo App\GenericTCPServer.c
                  wMaxPut   0x000c00       data     static C:\Users\Tim\Desktop\PIC-WEB-5-42-UEXT-full\Microchip\TCPIP Stack\UART2TCPBridge.c
                  wMaxPut   0x000c27       data     static C:\Users\Tim\Desktop\PIC-WEB-5-42-UEXT-full\TCPIP\Demo App\GenericTCPServer.c
               wMinRXSize   0x0003ba       data     static C:\Users\Tim\Desktop\PIC-WEB-5-42-UEXT-full\Microchip\TCPIP Stack\TCP.c
               wMinTXSize   0x0003bc       data     static C:\Users\Tim\Desktop\PIC-WEB-5-42-UEXT-full\Microchip\TCPIP Stack\TCP.c
            wMissingBytes   0x000c2f       data     static C:\Users\Tim\Desktop\PIC-WEB-5-42-UEXT-full\Microchip\TCPIP Stack\TCP.c
               wNewWindow   0x000c3f       data     static C:\Users\Tim\Desktop\PIC-WEB-5-42-UEXT-full\Microchip\TCPIP Stack\TCP.c
                  wOffset   0x0002cf       data     static C:\Users\Tim\Desktop\PIC-WEB-5-42-UEXT-full\Microchip\TCPIP Stack\UDP.c
                  wOffset   0x0002d1       data     static C:\Users\Tim\Desktop\PIC-WEB-5-42-UEXT-full\Microchip\TCPIP Stack\UDP.c
wOriginalAppConfigChecksum   0x000686       data     static C:\Users\Tim\Desktop\PIC-WEB-5-42-UEXT-full\TCPIP\Demo App\MainDemo.c
               wOutputLen   0x000c06       data     static C:\Users\Tim\Desktop\PIC-WEB-5-42-UEXT-full\Microchip\TCPIP Stack\Helpers.c
                    wPort   0x00034b       data     static C:\Users\Tim\Desktop\PIC-WEB-5-42-UEXT-full\Microchip\TCPIP Stack\TCP.c
                     wPos   0x000c3a       data     static C:\Users\Tim\Desktop\PIC-WEB-5-42-UEXT-full\Microchip\TCPIP Stack\HTTP2.c
               wPutOffset   0x0002bd       data     static C:\Users\Tim\Desktop\PIC-WEB-5-42-UEXT-full\Microchip\TCPIP Stack\UDP.c
          wQueueInsertPos   0x000c29       data     static C:\Users\Tim\Desktop\PIC-WEB-5-42-UEXT-full\Microchip\TCPIP Stack\TCP.c
                  wRXSize   0x000c18       data     static C:\Users\Tim\Desktop\PIC-WEB-5-42-UEXT-full\Microchip\TCPIP Stack\TCP.c
             wReadPtrSave   0x000c6d       data     static C:\Users\Tim\Desktop\PIC-WEB-5-42-UEXT-full\Microchip\TCPIP Stack\UDP.c
              wRemotePort   0x000c43       data     static C:\Users\Tim\Desktop\PIC-WEB-5-42-UEXT-full\Microchip\TCPIP Stack\BerkeleyAPI.c
                wRightLen   0x000ce5       data     static C:\Users\Tim\Desktop\PIC-WEB-5-42-UEXT-full\Microchip\TCPIP Stack\TCP.c
                wRightLen   0x000c5a       data     static C:\Users\Tim\Desktop\PIC-WEB-5-42-UEXT-full\Microchip\TCPIP Stack\TCP.c
               wSearchLen   0x0003a4       data     static C:\Users\Tim\Desktop\PIC-WEB-5-42-UEXT-full\Microchip\TCPIP Stack\TCP.c
               wSearchLen   0x00039d       data     static C:\Users\Tim\Desktop\PIC-WEB-5-42-UEXT-full\Microchip\TCPIP Stack\TCP.c
               wSearchLen   0x000392       data     static C:\Users\Tim\Desktop\PIC-WEB-5-42-UEXT-full\Microchip\TCPIP Stack\TCP.c
           wSegmentLength   0x000c3c       data     static C:\Users\Tim\Desktop\PIC-WEB-5-42-UEXT-full\Microchip\TCPIP Stack\TCP.c
                  wSource   0x0003ca       data     static C:\Users\Tim\Desktop\PIC-WEB-5-42-UEXT-full\Microchip\TCPIP Stack\TCP.c
               wSourceLen   0x000c00       data     static C:\Users\Tim\Desktop\PIC-WEB-5-42-UEXT-full\Microchip\TCPIP Stack\BerkeleyAPI.c
               wSourceLen   0x000717       data     static C:\Users\Tim\Desktop\PIC-WEB-5-42-UEXT-full\Microchip\TCPIP Stack\Helpers.c
               wSourceLen   0x00070f       data     static C:\Users\Tim\Desktop\PIC-WEB-5-42-UEXT-full\Microchip\TCPIP Stack\Helpers.c
                   wStart   0x0003a2       data     static C:\Users\Tim\Desktop\PIC-WEB-5-42-UEXT-full\Microchip\TCPIP Stack\TCP.c
                   wStart   0x000390       data     static C:\Users\Tim\Desktop\PIC-WEB-5-42-UEXT-full\Microchip\TCPIP Stack\TCP.c
                   wStart   0x000389       data     static C:\Users\Tim\Desktop\PIC-WEB-5-42-UEXT-full\Microchip\TCPIP Stack\TCP.c
                   wStart   0x00039b       data     static C:\Users\Tim\Desktop\PIC-WEB-5-42-UEXT-full\Microchip\TCPIP Stack\TCP.c
                   wStart   0x000386       data     static C:\Users\Tim\Desktop\PIC-WEB-5-42-UEXT-full\Microchip\TCPIP Stack\TCP.c
            wTXAllocation   0x000c04       data     static C:\Users\Tim\Desktop\PIC-WEB-5-42-UEXT-full\Microchip\TCPIP Stack\TCP.c
                  wTXSize   0x000c16       data     static C:\Users\Tim\Desktop\PIC-WEB-5-42-UEXT-full\Microchip\TCPIP Stack\TCP.c
              wTXWatchdog   0x0008b4       data     static C:\Users\Tim\Desktop\PIC-WEB-5-42-UEXT-full\Microchip\TCPIP Stack\ETH97J60.c
                    wTemp   0x000c52       data     static C:\Users\Tim\Desktop\PIC-WEB-5-42-UEXT-full\Microchip\TCPIP Stack\UDP.c
                    wTemp   0x000c55       data     static C:\Users\Tim\Desktop\PIC-WEB-5-42-UEXT-full\Microchip\TCPIP Stack\UDP.c
                    wTemp   0x000c29       data     static C:\Users\Tim\Desktop\PIC-WEB-5-42-UEXT-full\Microchip\TCPIP Stack\TCP.c
                    wTime   0x000c03       data     static C:\Users\Tim\Desktop\PIC-WEB-5-42-UEXT-full\Microchip\TCPIP Stack\Helpers.c
               wUDPLength   0x000c5f       data     static C:\Users\Tim\Desktop\PIC-WEB-5-42-UEXT-full\Microchip\TCPIP Stack\UDP.c
                     wVal   0x000c82       data     static C:\Users\Tim\Desktop\PIC-WEB-5-42-UEXT-full\Microchip\TCPIP Stack\TCP.c
                    wrptr   0x000f5b       data     static C:\Users\Tim\Desktop\PIC-WEB-5-42-UEXT-full\TCPIP\Demo App\Olimex_Demo_Files\Custom_SPI_Low.c
                   wvPROD   0x000c0c       data     static C:\Users\Tim\Desktop\PIC-WEB-5-42-UEXT-full\Microchip\TCPIP Stack\Reboot.c
                   wvTemp   0x000ca8       data     static C:\Users\Tim\Desktop\PIC-WEB-5-42-UEXT-full\TCPIP\Demo App\UARTConfig.c
                        z   0x000c10       data     static C:\Users\Tim\Desktop\PIC-WEB-5-42-UEXT-full\TCPIP\Demo App\CustomHTTPApp.c



                              Symbols - Sorted by Address
                     Name    Address   Location    Storage File                     
                ---------  ---------  ---------  --------- ---------                
                   _entry   0x000000    program     extern E:\3.46\pic18-lt\cxx-framework\src\traditional\startup\c018i.c
       ___return_lbl00000   0x000004    program     static                          
               HighVector   0x000008    program     extern C:\Users\Tim\Desktop\PIC-WEB-5-42-UEXT-full\TCPIP\Demo App\MainDemo.c
       ___return_lbl00004   0x00000c    program     static                          
                LowVector   0x000018    program     extern C:\Users\Tim\Desktop\PIC-WEB-5-42-UEXT-full\TCPIP\Demo App\MainDemo.c
       ___return_lbl00003   0x00001c    program     static                          
              SyncTCBStub   0x000194    program     static C:\Users\Tim\Desktop\PIC-WEB-5-42-UEXT-full\Microchip\TCPIP Stack\TCP.c
                  SyncTCB   0x000222    program     static C:\Users\Tim\Desktop\PIC-WEB-5-42-UEXT-full\Microchip\TCPIP Stack\TCP.c
                  TCPInit   0x0002ca    program     extern C:\Users\Tim\Desktop\PIC-WEB-5-42-UEXT-full\Microchip\TCPIP Stack\TCP.c
                  TCPOpen   0x00055e    program     extern C:\Users\Tim\Desktop\PIC-WEB-5-42-UEXT-full\Microchip\TCPIP Stack\TCP.c
              TCPWasReset   0x000706    program     extern C:\Users\Tim\Desktop\PIC-WEB-5-42-UEXT-full\Microchip\TCPIP Stack\TCP.c
           TCPIsConnected   0x00072c    program     extern C:\Users\Tim\Desktop\PIC-WEB-5-42-UEXT-full\Microchip\TCPIP Stack\TCP.c
            TCPDisconnect   0x000752    program     extern C:\Users\Tim\Desktop\PIC-WEB-5-42-UEXT-full\Microchip\TCPIP Stack\TCP.c
                 TCPClose   0x000816    program     extern C:\Users\Tim\Desktop\PIC-WEB-5-42-UEXT-full\Microchip\TCPIP Stack\TCP.c
         TCPGetRemoteInfo   0x00083c    program     extern C:\Users\Tim\Desktop\PIC-WEB-5-42-UEXT-full\Microchip\TCPIP Stack\TCP.c
                 TCPFlush   0x000896    program     extern C:\Users\Tim\Desktop\PIC-WEB-5-42-UEXT-full\Microchip\TCPIP Stack\TCP.c
            TCPIsPutReady   0x0008d2    program     extern C:\Users\Tim\Desktop\PIC-WEB-5-42-UEXT-full\Microchip\TCPIP Stack\TCP.c
                   TCPPut   0x00095c    program     extern C:\Users\Tim\Desktop\PIC-WEB-5-42-UEXT-full\Microchip\TCPIP Stack\TCP.c
              TCPPutArray   0x000a50    program     extern C:\Users\Tim\Desktop\PIC-WEB-5-42-UEXT-full\Microchip\TCPIP Stack\TCP.c
           TCPPutROMArray   0x000bea    program     extern C:\Users\Tim\Desktop\PIC-WEB-5-42-UEXT-full\Microchip\TCPIP Stack\TCP.c
             TCPPutString   0x000d8a    program     extern C:\Users\Tim\Desktop\PIC-WEB-5-42-UEXT-full\Microchip\TCPIP Stack\TCP.c
          TCPPutROMString   0x000dc6    program     extern C:\Users\Tim\Desktop\PIC-WEB-5-42-UEXT-full\Microchip\TCPIP Stack\TCP.c
         TCPGetTxFIFOFull   0x000e18    program     extern C:\Users\Tim\Desktop\PIC-WEB-5-42-UEXT-full\Microchip\TCPIP Stack\TCP.c
               TCPDiscard   0x000e70    program     extern C:\Users\Tim\Desktop\PIC-WEB-5-42-UEXT-full\Microchip\TCPIP Stack\TCP.c
            TCPIsGetReady   0x000ea6    program     extern C:\Users\Tim\Desktop\PIC-WEB-5-42-UEXT-full\Microchip\TCPIP Stack\TCP.c
                   TCPGet   0x000f12    program     extern C:\Users\Tim\Desktop\PIC-WEB-5-42-UEXT-full\Microchip\TCPIP Stack\TCP.c
              TCPGetArray   0x000fb8    program     extern C:\Users\Tim\Desktop\PIC-WEB-5-42-UEXT-full\Microchip\TCPIP Stack\TCP.c
         TCPGetRxFIFOFree   0x00111c    program     extern C:\Users\Tim\Desktop\PIC-WEB-5-42-UEXT-full\Microchip\TCPIP Stack\TCP.c
             TCPPeekArray   0x00116c    program     extern C:\Users\Tim\Desktop\PIC-WEB-5-42-UEXT-full\Microchip\TCPIP Stack\TCP.c
                  TCPPeek   0x0012dc    program     extern C:\Users\Tim\Desktop\PIC-WEB-5-42-UEXT-full\Microchip\TCPIP Stack\TCP.c
           TCPFindArrayEx   0x001302    program     extern C:\Users\Tim\Desktop\PIC-WEB-5-42-UEXT-full\Microchip\TCPIP Stack\TCP.c
        TCPFindROMArrayEx   0x001650    program     extern C:\Users\Tim\Desktop\PIC-WEB-5-42-UEXT-full\Microchip\TCPIP Stack\TCP.c
                TCPFindEx   0x0019d2    program     extern C:\Users\Tim\Desktop\PIC-WEB-5-42-UEXT-full\Microchip\TCPIP Stack\TCP.c
                  TCPTick   0x001a00    program     extern C:\Users\Tim\Desktop\PIC-WEB-5-42-UEXT-full\Microchip\TCPIP Stack\TCP.c
               TCPProcess   0x0021d6    program     extern C:\Users\Tim\Desktop\PIC-WEB-5-42-UEXT-full\Microchip\TCPIP Stack\TCP.c
                  SendTCP   0x002310    program     static C:\Users\Tim\Desktop\PIC-WEB-5-42-UEXT-full\Microchip\TCPIP Stack\TCP.c
       FindMatchingSocket   0x002892    program     static C:\Users\Tim\Desktop\PIC-WEB-5-42-UEXT-full\Microchip\TCPIP Stack\TCP.c
            SwapTCPHeader   0x002d88    program     static C:\Users\Tim\Desktop\PIC-WEB-5-42-UEXT-full\Microchip\TCPIP Stack\TCP.c
              CloseSocket   0x002f3e    program     static C:\Users\Tim\Desktop\PIC-WEB-5-42-UEXT-full\Microchip\TCPIP Stack\TCP.c
      GetMaxSegSizeOption   0x002fc8    program     static C:\Users\Tim\Desktop\PIC-WEB-5-42-UEXT-full\Microchip\TCPIP Stack\TCP.c
             HandleTCPSeg   0x0030b4    program     static C:\Users\Tim\Desktop\PIC-WEB-5-42-UEXT-full\Microchip\TCPIP Stack\TCP.c
             __tmplbl_165   0x004008    program     static                          
             __tmplbl_157   0x004008    program     static                          
        TCPAdjustFIFOSize   0x00400a    program     extern C:\Users\Tim\Desktop\PIC-WEB-5-42-UEXT-full\Microchip\TCPIP Stack\TCP.c
               TCPRAMCopy   0x004240    program     static C:\Users\Tim\Desktop\PIC-WEB-5-42-UEXT-full\Microchip\TCPIP Stack\TCP.c
            TCPRAMCopyROM   0x0042fc    program     static C:\Users\Tim\Desktop\PIC-WEB-5-42-UEXT-full\Microchip\TCPIP Stack\TCP.c
                HTTPPrint   0x0043da    program     extern C:\Users\Tim\Desktop\PIC-WEB-5-42-UEXT-full\TCPIP\Demo App\HTTPPrint.h
               HTTPPrint_   0x0048b0    program     extern C:\Users\Tim\Desktop\PIC-WEB-5-42-UEXT-full\TCPIP\Demo App\HTTPPrint.h
                 HTTPInit   0x0048d6    program     extern C:\Users\Tim\Desktop\PIC-WEB-5-42-UEXT-full\Microchip\TCPIP Stack\HTTP2.c
               HTTPServer   0x004998    program     extern C:\Users\Tim\Desktop\PIC-WEB-5-42-UEXT-full\Microchip\TCPIP Stack\HTTP2.c
             HTTPLoadConn   0x004aae    program     static C:\Users\Tim\Desktop\PIC-WEB-5-42-UEXT-full\Microchip\TCPIP Stack\HTTP2.c
              HTTPProcess   0x004b6c    program     static C:\Users\Tim\Desktop\PIC-WEB-5-42-UEXT-full\Microchip\TCPIP Stack\HTTP2.c
             __tmplbl_170   0x004b6c    program     static                          
             __tmplbl_145   0x00567e    program     static                          
             __tmplbl_144   0x0056f4    program     static                          
             __tmplbl_143   0x00571a    program     static                          
             __tmplbl_150   0x00579a    program     static                          
             __tmplbl_142   0x005948    program     static                          
             __tmplbl_152   0x005968    program     static                          
             __tmplbl_141   0x0059b0    program     static                          
             __tmplbl_140   0x005dc4    program     static                          
             __tmplbl_139   0x006020    program     static                          
             __tmplbl_138   0x00608a    program     static                          
             __tmplbl_137   0x006102    program     static                          
             __tmplbl_165   0x00615c    program     static                          
             __tmplbl_149   0x00615c    program     static                          
             __tmplbl_166   0x00615c    program     static                          
             __tmplbl_148   0x00615c    program     static                          
             __tmplbl_155   0x00615c    program     static                          
             __tmplbl_157   0x00615c    program     static                          
             __tmplbl_158   0x00615c    program     static                          
             __tmplbl_147   0x00615c    program     static                          
             HTTPSendFile   0x006168    program     static C:\Users\Tim\Desktop\PIC-WEB-5-42-UEXT-full\Microchip\TCPIP Stack\HTTP2.c
    HTTPHeaderParseLookup   0x006370    program     static C:\Users\Tim\Desktop\PIC-WEB-5-42-UEXT-full\Microchip\TCPIP Stack\HTTP2.c
HTTPHeaderParseAuthorization   0x00638c    program     static C:\Users\Tim\Desktop\PIC-WEB-5-42-UEXT-full\Microchip\TCPIP Stack\HTTP2.c
    HTTPHeaderParseCookie   0x006508    program     static C:\Users\Tim\Desktop\PIC-WEB-5-42-UEXT-full\Microchip\TCPIP Stack\HTTP2.c
HTTPHeaderParseContentLength   0x00670e    program     static C:\Users\Tim\Desktop\PIC-WEB-5-42-UEXT-full\Microchip\TCPIP Stack\HTTP2.c
            HTTPURLDecode   0x0067e4    program     extern C:\Users\Tim\Desktop\PIC-WEB-5-42-UEXT-full\Microchip\TCPIP Stack\HTTP2.c
               HTTPGetArg   0x0068fe    program     extern C:\Users\Tim\Desktop\PIC-WEB-5-42-UEXT-full\Microchip\TCPIP Stack\HTTP2.c
            HTTPGetROMArg   0x0069b6    program     extern C:\Users\Tim\Desktop\PIC-WEB-5-42-UEXT-full\Microchip\TCPIP Stack\HTTP2.c
         HTTPReadPostName   0x006aaa    program     extern C:\Users\Tim\Desktop\PIC-WEB-5-42-UEXT-full\Microchip\TCPIP Stack\HTTP2.c
        HTTPReadPostValue   0x006aea    program     extern C:\Users\Tim\Desktop\PIC-WEB-5-42-UEXT-full\Microchip\TCPIP Stack\HTTP2.c
               HTTPReadTo   0x006b92    program     static C:\Users\Tim\Desktop\PIC-WEB-5-42-UEXT-full\Microchip\TCPIP Stack\HTTP2.c
           HTTPMPFSUpload   0x006e70    program     static C:\Users\Tim\Desktop\PIC-WEB-5-42-UEXT-full\Microchip\TCPIP Stack\HTTP2.c
              HTTPIncFile   0x00723c    program     extern C:\Users\Tim\Desktop\PIC-WEB-5-42-UEXT-full\Microchip\TCPIP Stack\HTTP2.c
            HTTPNeedsAuth   0x007388    program     extern C:\Users\Tim\Desktop\PIC-WEB-5-42-UEXT-full\TCPIP\Demo App\CustomHTTPApp.c
            HTTPCheckAuth   0x0073e2    program     extern C:\Users\Tim\Desktop\PIC-WEB-5-42-UEXT-full\TCPIP\Demo App\CustomHTTPApp.c
           HTTPExecuteGet   0x00742e    program     extern C:\Users\Tim\Desktop\PIC-WEB-5-42-UEXT-full\TCPIP\Demo App\CustomHTTPApp.c
           ___if_lbl00007   0x0074a0    program     static                          
           ___if_lbl00008   0x0074a0    program     static                          
          ___for_lbl00011   0x00752c    program     static                          
          ___for_lbl00009   0x0075b2    program     static                          
          ___for_lbl00010   0x0075bc    program     static                          
           ___if_lbl00012   0x0075d0    program     static                          
           ___if_lbl00014   0x007646    program     static                          
           ___if_lbl00013   0x007646    program     static                          
          ___for_lbl00017   0x0076d2    program     static                          
          ___for_lbl00015   0x00771a    program     static                          
          ___for_lbl00016   0x007724    program     static                          
           ___if_lbl00018   0x007724    program     static                          
           ___if_lbl00019   0x007802    program     static                          
           ___if_lbl00020   0x007846    program     static                          
           ___if_lbl00021   0x00788a    program     static                          
           ___if_lbl00022   0x00788e    program     static                          
           ___if_lbl00023   0x007928    program     static                          
           ___do_lbl00028   0x007928    program     static                          
        ___while_lbl00026   0x007930    program     static                          
           ___do_lbl00025   0x007952    program     static                          
        ___while_lbl00027   0x007952    program     static                          
           ___do_lbl00024   0x007952    program     static                          
           ___if_lbl00029   0x007986    program     static                          
           ___if_lbl00031   0x0079ba    program     static                          
           ___if_lbl00030   0x0079ba    program     static                          
               __tmplbl_3   0x007a20    program     static                          
               __tmplbl_2   0x007a24    program     static                          
           ___if_lbl00032   0x007a28    program     static                          
               __tmplbl_5   0x007a62    program     static                          
               __tmplbl_4   0x007a66    program     static                          
           ___if_lbl00033   0x007a6a    program     static                          
               __tmplbl_7   0x007aa4    program     static                          
               __tmplbl_6   0x007aa8    program     static                          
           ___if_lbl00034   0x007aac    program     static                          
               __tmplbl_9   0x007ae6    program     static                          
               __tmplbl_8   0x007aea    program     static                          
           ___if_lbl00035   0x007af4    program     static                          
         ___else_lbl00048   0x007af6    program     static                          
         ___else_lbl00046   0x007b28    program     static                          
      ___case_49_lbl00037   0x007b9e    program     static                          
      ___case_50_lbl00038   0x007ba2    program     static                          
      ___case_51_lbl00039   0x007ba6    program     static                          
      ___case_52_lbl00040   0x007baa    program     static                          
      ___case_53_lbl00041   0x007bae    program     static                          
      ___case_54_lbl00042   0x007bb2    program     static                          
      ___case_55_lbl00043   0x007bb6    program     static                          
   ___switchexit_lbl00036   0x007bba    program     static                          
           ___if_lbl00045   0x007bba    program     static                          
           ___if_lbl00044   0x007bba    program     static                          
           ___if_lbl00047   0x007bba    program     static                          
       ___return_lbl00006   0x007bbe    program     static                          
          HTTPExecutePost   0x007bc0    program     extern C:\Users\Tim\Desktop\PIC-WEB-5-42-UEXT-full\TCPIP\Demo App\CustomHTTPApp.c
           HTTPPostConfig   0x007c60    program     static C:\Users\Tim\Desktop\PIC-WEB-5-42-UEXT-full\TCPIP\Demo App\CustomHTTPApp.c
              HTTPPostMD5   0x008192    program     static C:\Users\Tim\Desktop\PIC-WEB-5-42-UEXT-full\TCPIP\Demo App\CustomHTTPApp.c
            HTTPPostEmail   0x0084de    program     static C:\Users\Tim\Desktop\PIC-WEB-5-42-UEXT-full\TCPIP\Demo App\CustomHTTPApp.c
      HTTPPrint_builddate   0x008c0e    program     extern C:\Users\Tim\Desktop\PIC-WEB-5-42-UEXT-full\TCPIP\Demo App\CustomHTTPApp.c
        HTTPPrint_version   0x008cc0    program     extern C:\Users\Tim\Desktop\PIC-WEB-5-42-UEXT-full\TCPIP\Demo App\CustomHTTPApp.c
            HTTPPrint_btn   0x008cee    program     extern C:\Users\Tim\Desktop\PIC-WEB-5-42-UEXT-full\TCPIP\Demo App\CustomHTTPApp.c
            HTTPPrint_led   0x008d6c    program     extern C:\Users\Tim\Desktop\PIC-WEB-5-42-UEXT-full\TCPIP\Demo App\CustomHTTPApp.c
    HTTPPrint_ledSelected   0x008e06    program     extern C:\Users\Tim\Desktop\PIC-WEB-5-42-UEXT-full\TCPIP\Demo App\CustomHTTPApp.c
           HTTPPrint_temp   0x008eb8    program     extern C:\Users\Tim\Desktop\PIC-WEB-5-42-UEXT-full\TCPIP\Demo App\CustomHTTPApp.c
            HTTPPrint_pot   0x00906e    program     extern C:\Users\Tim\Desktop\PIC-WEB-5-42-UEXT-full\TCPIP\Demo App\CustomHTTPApp.c
    HTTPPrint_UART_Output   0x0090c4    program     extern C:\Users\Tim\Desktop\PIC-WEB-5-42-UEXT-full\TCPIP\Demo App\CustomHTTPApp.c
         HTTPPrint_I2CRes   0x00918c    program     extern C:\Users\Tim\Desktop\PIC-WEB-5-42-UEXT-full\TCPIP\Demo App\CustomHTTPApp.c
         HTTPPrint_SPIRes   0x0091b6    program     extern C:\Users\Tim\Desktop\PIC-WEB-5-42-UEXT-full\TCPIP\Demo App\CustomHTTPApp.c
        HTTPPrint_lcdtext   0x0091e0    program     extern C:\Users\Tim\Desktop\PIC-WEB-5-42-UEXT-full\TCPIP\Demo App\CustomHTTPApp.c
       HTTPPrint_hellomsg   0x009236    program     extern C:\Users\Tim\Desktop\PIC-WEB-5-42-UEXT-full\TCPIP\Demo App\CustomHTTPApp.c
     HTTPPrint_cookiename   0x0092b8    program     extern C:\Users\Tim\Desktop\PIC-WEB-5-42-UEXT-full\TCPIP\Demo App\CustomHTTPApp.c
   HTTPPrint_uploadeImage   0x009338    program     extern C:\Users\Tim\Desktop\PIC-WEB-5-42-UEXT-full\TCPIP\Demo App\CustomHTTPApp.c
    HTTPPrint_uploadedmd5   0x00933a    program     extern C:\Users\Tim\Desktop\PIC-WEB-5-42-UEXT-full\TCPIP\Demo App\CustomHTTPApp.c
              HTTPPrintIP   0x00949e    program     extern C:\Users\Tim\Desktop\PIC-WEB-5-42-UEXT-full\TCPIP\Demo App\CustomHTTPApp.c
HTTPPrint_config_hostname   0x009528    program     extern C:\Users\Tim\Desktop\PIC-WEB-5-42-UEXT-full\TCPIP\Demo App\CustomHTTPApp.c
HTTPPrint_config_dhcpchecked   0x009552    program     extern C:\Users\Tim\Desktop\PIC-WEB-5-42-UEXT-full\TCPIP\Demo App\CustomHTTPApp.c
      HTTPPrint_config_ip   0x009588    program     extern C:\Users\Tim\Desktop\PIC-WEB-5-42-UEXT-full\TCPIP\Demo App\CustomHTTPApp.c
      HTTPPrint_config_gw   0x00959c    program     extern C:\Users\Tim\Desktop\PIC-WEB-5-42-UEXT-full\TCPIP\Demo App\CustomHTTPApp.c
  HTTPPrint_config_subnet   0x0095b0    program     extern C:\Users\Tim\Desktop\PIC-WEB-5-42-UEXT-full\TCPIP\Demo App\CustomHTTPApp.c
    HTTPPrint_config_dns1   0x0095c4    program     extern C:\Users\Tim\Desktop\PIC-WEB-5-42-UEXT-full\TCPIP\Demo App\CustomHTTPApp.c
    HTTPPrint_config_dns2   0x0095d8    program     extern C:\Users\Tim\Desktop\PIC-WEB-5-42-UEXT-full\TCPIP\Demo App\CustomHTTPApp.c
     HTTPPrint_config_mac   0x0095ec    program     extern C:\Users\Tim\Desktop\PIC-WEB-5-42-UEXT-full\TCPIP\Demo App\CustomHTTPApp.c
      HTTPPrint_read_comm   0x0096e0    program     extern C:\Users\Tim\Desktop\PIC-WEB-5-42-UEXT-full\TCPIP\Demo App\CustomHTTPApp.c
     HTTPPrint_write_comm   0x0096e2    program     extern C:\Users\Tim\Desktop\PIC-WEB-5-42-UEXT-full\TCPIP\Demo App\CustomHTTPApp.c
         HTTPPrint_reboot   0x0096e4    program     extern C:\Users\Tim\Desktop\PIC-WEB-5-42-UEXT-full\TCPIP\Demo App\CustomHTTPApp.c
       ___return_lbl00271   0x0096e6    program     static                          
     HTTPPrint_rebootaddr   0x0096e8    program     extern C:\Users\Tim\Desktop\PIC-WEB-5-42-UEXT-full\TCPIP\Demo App\CustomHTTPApp.c
      HTTPPrint_ddns_user   0x009712    program     extern C:\Users\Tim\Desktop\PIC-WEB-5-42-UEXT-full\TCPIP\Demo App\CustomHTTPApp.c
      HTTPPrint_ddns_pass   0x009714    program     extern C:\Users\Tim\Desktop\PIC-WEB-5-42-UEXT-full\TCPIP\Demo App\CustomHTTPApp.c
      HTTPPrint_ddns_host   0x009716    program     extern C:\Users\Tim\Desktop\PIC-WEB-5-42-UEXT-full\TCPIP\Demo App\CustomHTTPApp.c
   HTTPPrint_ddns_service   0x009718    program     extern C:\Users\Tim\Desktop\PIC-WEB-5-42-UEXT-full\TCPIP\Demo App\CustomHTTPApp.c
    HTTPPrint_ddns_status   0x00971a    program     extern C:\Users\Tim\Desktop\PIC-WEB-5-42-UEXT-full\TCPIP\Demo App\CustomHTTPApp.c
HTTPPrint_ddns_status_msg   0x009748    program     extern C:\Users\Tim\Desktop\PIC-WEB-5-42-UEXT-full\TCPIP\Demo App\CustomHTTPApp.c
       HTTPPrint_smtps_en   0x0097bc    program     extern C:\Users\Tim\Desktop\PIC-WEB-5-42-UEXT-full\TCPIP\Demo App\CustomHTTPApp.c
        HTTPPrint_snmp_en   0x0097ea    program     extern C:\Users\Tim\Desktop\PIC-WEB-5-42-UEXT-full\TCPIP\Demo App\CustomHTTPApp.c
      HTTPPrint_status_ok   0x009818    program     extern C:\Users\Tim\Desktop\PIC-WEB-5-42-UEXT-full\TCPIP\Demo App\CustomHTTPApp.c
    HTTPPrint_status_fail   0x009860    program     extern C:\Users\Tim\Desktop\PIC-WEB-5-42-UEXT-full\TCPIP\Demo App\CustomHTTPApp.c
           SMTPBeginUsage   0x0098a8    program     extern C:\Users\Tim\Desktop\PIC-WEB-5-42-UEXT-full\Microchip\TCPIP Stack\SMTP.c
             SMTPEndUsage   0x0098de    program     extern C:\Users\Tim\Desktop\PIC-WEB-5-42-UEXT-full\Microchip\TCPIP Stack\SMTP.c
                 SMTPTask   0x009922    program     extern C:\Users\Tim\Desktop\PIC-WEB-5-42-UEXT-full\Microchip\TCPIP Stack\SMTP.c
             __tmplbl_100   0x00a84c    program     static                          
              __tmplbl_99   0x00a894    program     static                          
              __tmplbl_98   0x00a9be    program     static                          
              __tmplbl_97   0x00a9cc    program     static                          
              __tmplbl_84   0x00aa22    program     static                          
              __tmplbl_91   0x00aa32    program     static                          
              __tmplbl_92   0x00aa32    program     static                          
              __tmplbl_88   0x00aa32    program     static                          
             SMTPSendMail   0x00aa34    program     extern C:\Users\Tim\Desktop\PIC-WEB-5-42-UEXT-full\Microchip\TCPIP Stack\SMTP.c
               SMTPIsBusy   0x00aa3a    program     extern C:\Users\Tim\Desktop\PIC-WEB-5-42-UEXT-full\Microchip\TCPIP Stack\SMTP.c
           SMTPIsPutReady   0x00aa44    program     extern C:\Users\Tim\Desktop\PIC-WEB-5-42-UEXT-full\Microchip\TCPIP Stack\SMTP.c
                  SMTPPut   0x00aa5a    program     extern C:\Users\Tim\Desktop\PIC-WEB-5-42-UEXT-full\Microchip\TCPIP Stack\SMTP.c
             SMTPPutArray   0x00aaca    program     extern C:\Users\Tim\Desktop\PIC-WEB-5-42-UEXT-full\Microchip\TCPIP Stack\SMTP.c
          SMTPPutROMArray   0x00ab1a    program     extern C:\Users\Tim\Desktop\PIC-WEB-5-42-UEXT-full\Microchip\TCPIP Stack\SMTP.c
            SMTPPutString   0x00ab74    program     extern C:\Users\Tim\Desktop\PIC-WEB-5-42-UEXT-full\Microchip\TCPIP Stack\SMTP.c
         SMTPPutROMString   0x00abbc    program     extern C:\Users\Tim\Desktop\PIC-WEB-5-42-UEXT-full\Microchip\TCPIP Stack\SMTP.c
                SMTPFlush   0x00ac14    program     extern C:\Users\Tim\Desktop\PIC-WEB-5-42-UEXT-full\Microchip\TCPIP Stack\SMTP.c
              SMTPPutDone   0x00ac1c    program     extern C:\Users\Tim\Desktop\PIC-WEB-5-42-UEXT-full\Microchip\TCPIP Stack\SMTP.c
         FindEmailAddress   0x00ac22    program     static C:\Users\Tim\Desktop\PIC-WEB-5-42-UEXT-full\Microchip\TCPIP Stack\SMTP.c
      FindROMEmailAddress   0x00ace4    program     static C:\Users\Tim\Desktop\PIC-WEB-5-42-UEXT-full\Microchip\TCPIP Stack\SMTP.c
           DHCPServerTask   0x00adbe    program     extern C:\Users\Tim\Desktop\PIC-WEB-5-42-UEXT-full\Microchip\TCPIP Stack\DHCPs.c
     DHCPReplyToDiscovery   0x00b074    program     static C:\Users\Tim\Desktop\PIC-WEB-5-42-UEXT-full\Microchip\TCPIP Stack\DHCPs.c
       DHCPReplyToRequest   0x00b356    program     static C:\Users\Tim\Desktop\PIC-WEB-5-42-UEXT-full\Microchip\TCPIP Stack\DHCPs.c
           DHCPServerInit   0x00b7d8    program     static C:\Users\Tim\Desktop\PIC-WEB-5-42-UEXT-full\Microchip\TCPIP Stack\DHCPs.c
         renew_dhcps_Pool   0x00ba2e    program     static C:\Users\Tim\Desktop\PIC-WEB-5-42-UEXT-full\Microchip\TCPIP Stack\DHCPs.c
getIndexByMacaddr_DhcpPool   0x00bcc2    program     static C:\Users\Tim\Desktop\PIC-WEB-5-42-UEXT-full\Microchip\TCPIP Stack\DHCPs.c
           isIpAddrInPool   0x00bd40    program     static C:\Users\Tim\Desktop\PIC-WEB-5-42-UEXT-full\Microchip\TCPIP Stack\DHCPs.c
GetIPAddrFromIndex_DhcpPool   0x00bdac    program     static C:\Users\Tim\Desktop\PIC-WEB-5-42-UEXT-full\Microchip\TCPIP Stack\DHCPs.c
         Compare_MAC_addr   0x00be0e    program     static C:\Users\Tim\Desktop\PIC-WEB-5-42-UEXT-full\Microchip\TCPIP Stack\DHCPs.c
      isMacAddr_Effective   0x00be64    program     static C:\Users\Tim\Desktop\PIC-WEB-5-42-UEXT-full\Microchip\TCPIP Stack\DHCPs.c
preAssign_ToDHCPClient_FromPool   0x00bea0    program     static C:\Users\Tim\Desktop\PIC-WEB-5-42-UEXT-full\Microchip\TCPIP Stack\DHCPs.c
postAssign_ToDHCPClient_FromPool   0x00c112    program     static C:\Users\Tim\Desktop\PIC-WEB-5-42-UEXT-full\Microchip\TCPIP Stack\DHCPs.c
       DHCPServer_Disable   0x00c246    program     extern C:\Users\Tim\Desktop\PIC-WEB-5-42-UEXT-full\Microchip\TCPIP Stack\DHCPs.c
        DHCPServer_Enable   0x00c25e    program     extern C:\Users\Tim\Desktop\PIC-WEB-5-42-UEXT-full\Microchip\TCPIP Stack\DHCPs.c
       BerkeleySocketInit   0x00c26a    program     extern C:\Users\Tim\Desktop\PIC-WEB-5-42-UEXT-full\Microchip\TCPIP Stack\BerkeleyAPI.c
                   socket   0x00c2ca    program     extern C:\Users\Tim\Desktop\PIC-WEB-5-42-UEXT-full\Microchip\TCPIP Stack\BerkeleyAPI.c
                     bind   0x00c384    program     extern C:\Users\Tim\Desktop\PIC-WEB-5-42-UEXT-full\Microchip\TCPIP Stack\BerkeleyAPI.c
                   listen   0x00c496    program     extern C:\Users\Tim\Desktop\PIC-WEB-5-42-UEXT-full\Microchip\TCPIP Stack\BerkeleyAPI.c
                   accept   0x00c6f8    program     extern C:\Users\Tim\Desktop\PIC-WEB-5-42-UEXT-full\Microchip\TCPIP Stack\BerkeleyAPI.c
                  connect   0x00c9ae    program     extern C:\Users\Tim\Desktop\PIC-WEB-5-42-UEXT-full\Microchip\TCPIP Stack\BerkeleyAPI.c
                     send   0x00cc3a    program     extern C:\Users\Tim\Desktop\PIC-WEB-5-42-UEXT-full\Microchip\TCPIP Stack\BerkeleyAPI.c
                   sendto   0x00cc66    program     extern C:\Users\Tim\Desktop\PIC-WEB-5-42-UEXT-full\Microchip\TCPIP Stack\BerkeleyAPI.c
                     recv   0x00cf8c    program     extern C:\Users\Tim\Desktop\PIC-WEB-5-42-UEXT-full\Microchip\TCPIP Stack\BerkeleyAPI.c
                 recvfrom   0x00d05e    program     extern C:\Users\Tim\Desktop\PIC-WEB-5-42-UEXT-full\Microchip\TCPIP Stack\BerkeleyAPI.c
              gethostname   0x00d27e    program     extern C:\Users\Tim\Desktop\PIC-WEB-5-42-UEXT-full\Microchip\TCPIP Stack\BerkeleyAPI.c
              closesocket   0x00d328    program     extern C:\Users\Tim\Desktop\PIC-WEB-5-42-UEXT-full\Microchip\TCPIP Stack\BerkeleyAPI.c
HandlePossibleTCPDisconnection   0x00d58a    program     static C:\Users\Tim\Desktop\PIC-WEB-5-42-UEXT-full\Microchip\TCPIP Stack\BerkeleyAPI.c
                 MPFSInit   0x00d6a6    program     extern C:\Users\Tim\Desktop\PIC-WEB-5-42-UEXT-full\Microchip\TCPIP Stack\MPFS2.c
                 MPFSOpen   0x00d6f8    program     extern C:\Users\Tim\Desktop\PIC-WEB-5-42-UEXT-full\Microchip\TCPIP Stack\MPFS2.c
              MPFSOpenROM   0x00d968    program     extern C:\Users\Tim\Desktop\PIC-WEB-5-42-UEXT-full\Microchip\TCPIP Stack\MPFS2.c
               MPFSOpenID   0x00dc04    program     extern C:\Users\Tim\Desktop\PIC-WEB-5-42-UEXT-full\Microchip\TCPIP Stack\MPFS2.c
                MPFSClose   0x00dd0c    program     extern C:\Users\Tim\Desktop\PIC-WEB-5-42-UEXT-full\Microchip\TCPIP Stack\MPFS2.c
                  MPFSGet   0x00dd4e    program     extern C:\Users\Tim\Desktop\PIC-WEB-5-42-UEXT-full\Microchip\TCPIP Stack\MPFS2.c
             MPFSGetArray   0x00de66    program     extern C:\Users\Tim\Desktop\PIC-WEB-5-42-UEXT-full\Microchip\TCPIP Stack\MPFS2.c
              MPFSGetLong   0x00dfe8    program     extern C:\Users\Tim\Desktop\PIC-WEB-5-42-UEXT-full\Microchip\TCPIP Stack\MPFS2.c
                 MPFSSeek   0x00e010    program     extern C:\Users\Tim\Desktop\PIC-WEB-5-42-UEXT-full\Microchip\TCPIP Stack\MPFS2.c
               MPFSFormat   0x00e31e    program     extern C:\Users\Tim\Desktop\PIC-WEB-5-42-UEXT-full\Microchip\TCPIP Stack\MPFS2.c
             MPFSPutArray   0x00e376    program     extern C:\Users\Tim\Desktop\PIC-WEB-5-42-UEXT-full\Microchip\TCPIP Stack\MPFS2.c
               MPFSPutEnd   0x00e394    program     extern C:\Users\Tim\Desktop\PIC-WEB-5-42-UEXT-full\Microchip\TCPIP Stack\MPFS2.c
           _LoadFATRecord   0x00e3a0    program     static C:\Users\Tim\Desktop\PIC-WEB-5-42-UEXT-full\Microchip\TCPIP Stack\MPFS2.c
         MPFSGetTimestamp   0x00e426    program     extern C:\Users\Tim\Desktop\PIC-WEB-5-42-UEXT-full\Microchip\TCPIP Stack\MPFS2.c
         MPFSGetMicrotime   0x00e4b4    program     extern C:\Users\Tim\Desktop\PIC-WEB-5-42-UEXT-full\Microchip\TCPIP Stack\MPFS2.c
             MPFSGetFlags   0x00e542    program     extern C:\Users\Tim\Desktop\PIC-WEB-5-42-UEXT-full\Microchip\TCPIP Stack\MPFS2.c
              MPFSGetSize   0x00e5c4    program     extern C:\Users\Tim\Desktop\PIC-WEB-5-42-UEXT-full\Microchip\TCPIP Stack\MPFS2.c
          MPFSGetBytesRem   0x00e652    program     extern C:\Users\Tim\Desktop\PIC-WEB-5-42-UEXT-full\Microchip\TCPIP Stack\MPFS2.c
         MPFSGetStartAddr   0x00e6e6    program     extern C:\Users\Tim\Desktop\PIC-WEB-5-42-UEXT-full\Microchip\TCPIP Stack\MPFS2.c
           MPFSGetEndAddr   0x00e77e    program     extern C:\Users\Tim\Desktop\PIC-WEB-5-42-UEXT-full\Microchip\TCPIP Stack\MPFS2.c
          MPFSGetFilename   0x00e82c    program     extern C:\Users\Tim\Desktop\PIC-WEB-5-42-UEXT-full\Microchip\TCPIP Stack\MPFS2.c
          MPFSGetPosition   0x00e8e6    program     extern C:\Users\Tim\Desktop\PIC-WEB-5-42-UEXT-full\Microchip\TCPIP Stack\MPFS2.c
                MPFSGetID   0x00e962    program     extern C:\Users\Tim\Desktop\PIC-WEB-5-42-UEXT-full\Microchip\TCPIP Stack\MPFS2.c
                _Validate   0x00e992    program     static C:\Users\Tim\Desktop\PIC-WEB-5-42-UEXT-full\Microchip\TCPIP Stack\MPFS2.c
               __string_4   0x00ea14    program     static C:\Users\Tim\Desktop\PIC-WEB-5-42-UEXT-full\TCPIP\Demo App\BerkeleyTCPClientDemo.c
               __string_3   0x00ead0    program     static C:\Users\Tim\Desktop\PIC-WEB-5-42-UEXT-full\TCPIP\Demo App\BerkeleyTCPClientDemo.c
               __string_2   0x00eb03    program     static C:\Users\Tim\Desktop\PIC-WEB-5-42-UEXT-full\TCPIP\Demo App\BerkeleyTCPClientDemo.c
               __string_0   0x00eb33    program     static C:\Users\Tim\Desktop\PIC-WEB-5-42-UEXT-full\TCPIP\Demo App\BerkeleyUDPClientDemo.c
               __string_5   0x00eb40    program     static C:\Users\Tim\Desktop\PIC-WEB-5-42-UEXT-full\TCPIP\Demo App\GenericTCPClient.c
               __string_4   0x00eb58    program     static C:\Users\Tim\Desktop\PIC-WEB-5-42-UEXT-full\TCPIP\Demo App\GenericTCPClient.c
               __string_3   0x00eb6a    program     static C:\Users\Tim\Desktop\PIC-WEB-5-42-UEXT-full\TCPIP\Demo App\GenericTCPClient.c
               __string_2   0x00eb6f    program     static C:\Users\Tim\Desktop\PIC-WEB-5-42-UEXT-full\TCPIP\Demo App\GenericTCPClient.c
               __string_0   0x00eb9b    program     static C:\Users\Tim\Desktop\PIC-WEB-5-42-UEXT-full\TCPIP\Demo App\PingDemo.c
               __string_4   0x00ebad    program     static C:\Users\Tim\Desktop\PIC-WEB-5-42-UEXT-full\TCPIP\Demo App\SMTPDemo.c
               __string_3   0x00ebc6    program     static C:\Users\Tim\Desktop\PIC-WEB-5-42-UEXT-full\TCPIP\Demo App\SMTPDemo.c
               __string_2   0x00ebf1    program     static C:\Users\Tim\Desktop\PIC-WEB-5-42-UEXT-full\TCPIP\Demo App\SMTPDemo.c
              __string_20   0x00ebf6    program     static C:\Users\Tim\Desktop\PIC-WEB-5-42-UEXT-full\TCPIP\Demo App\UARTConfig.c
              __string_19   0x00ec08    program     static C:\Users\Tim\Desktop\PIC-WEB-5-42-UEXT-full\TCPIP\Demo App\UARTConfig.c
              __string_18   0x00ec19    program     static C:\Users\Tim\Desktop\PIC-WEB-5-42-UEXT-full\TCPIP\Demo App\UARTConfig.c
              __string_17   0x00ec27    program     static C:\Users\Tim\Desktop\PIC-WEB-5-42-UEXT-full\TCPIP\Demo App\UARTConfig.c
              __string_16   0x00ec2a    program     static C:\Users\Tim\Desktop\PIC-WEB-5-42-UEXT-full\TCPIP\Demo App\UARTConfig.c
              __string_15   0x00ec42    program     static C:\Users\Tim\Desktop\PIC-WEB-5-42-UEXT-full\TCPIP\Demo App\UARTConfig.c
              __string_14   0x00ec55    program     static C:\Users\Tim\Desktop\PIC-WEB-5-42-UEXT-full\TCPIP\Demo App\UARTConfig.c
              __string_13   0x00ec70    program     static C:\Users\Tim\Desktop\PIC-WEB-5-42-UEXT-full\TCPIP\Demo App\UARTConfig.c
              __string_12   0x00ec79    program     static C:\Users\Tim\Desktop\PIC-WEB-5-42-UEXT-full\TCPIP\Demo App\UARTConfig.c
              __string_11   0x00ec81    program     static C:\Users\Tim\Desktop\PIC-WEB-5-42-UEXT-full\TCPIP\Demo App\UARTConfig.c
              __string_10   0x00ecae    program     static C:\Users\Tim\Desktop\PIC-WEB-5-42-UEXT-full\TCPIP\Demo App\UARTConfig.c
               __string_9   0x00ecb1    program     static C:\Users\Tim\Desktop\PIC-WEB-5-42-UEXT-full\TCPIP\Demo App\UARTConfig.c
               __string_8   0x00ecb5    program     static C:\Users\Tim\Desktop\PIC-WEB-5-42-UEXT-full\TCPIP\Demo App\UARTConfig.c
               __string_7   0x00ecbc    program     static C:\Users\Tim\Desktop\PIC-WEB-5-42-UEXT-full\TCPIP\Demo App\UARTConfig.c
               __string_6   0x00ece7    program     static C:\Users\Tim\Desktop\PIC-WEB-5-42-UEXT-full\TCPIP\Demo App\UARTConfig.c
               __string_5   0x00ed10    program     static C:\Users\Tim\Desktop\PIC-WEB-5-42-UEXT-full\TCPIP\Demo App\UARTConfig.c
               __string_4   0x00ed33    program     static C:\Users\Tim\Desktop\PIC-WEB-5-42-UEXT-full\TCPIP\Demo App\UARTConfig.c
               __string_3   0x00ed59    program     static C:\Users\Tim\Desktop\PIC-WEB-5-42-UEXT-full\TCPIP\Demo App\UARTConfig.c
               __string_2   0x00ed7b    program     static C:\Users\Tim\Desktop\PIC-WEB-5-42-UEXT-full\TCPIP\Demo App\UARTConfig.c
               __string_1   0x00ed96    program     static C:\Users\Tim\Desktop\PIC-WEB-5-42-UEXT-full\TCPIP\Demo App\UARTConfig.c
               __string_0   0x00edb2    program     static C:\Users\Tim\Desktop\PIC-WEB-5-42-UEXT-full\TCPIP\Demo App\UARTConfig.c
               __string_0   0x00edf4    program     static C:\Users\Tim\Desktop\PIC-WEB-5-42-UEXT-full\Microchip\TCPIP Stack\Announce.c
              __string_54   0x00ee10    program     static C:\Users\Tim\Desktop\PIC-WEB-5-42-UEXT-full\Microchip\TCPIP Stack\HTTP2.c
              __string_53   0x00ee1b    program     static C:\Users\Tim\Desktop\PIC-WEB-5-42-UEXT-full\Microchip\TCPIP Stack\HTTP2.c
              __string_52   0x00ee20    program     static C:\Users\Tim\Desktop\PIC-WEB-5-42-UEXT-full\Microchip\TCPIP Stack\HTTP2.c
              __string_51   0x00ee2d    program     static C:\Users\Tim\Desktop\PIC-WEB-5-42-UEXT-full\Microchip\TCPIP Stack\HTTP2.c
              __string_50   0x00ee31    program     static C:\Users\Tim\Desktop\PIC-WEB-5-42-UEXT-full\Microchip\TCPIP Stack\HTTP2.c
              __string_49   0x00ee3a    program     static C:\Users\Tim\Desktop\PIC-WEB-5-42-UEXT-full\Microchip\TCPIP Stack\HTTP2.c
              __string_48   0x00ee43    program     static C:\Users\Tim\Desktop\PIC-WEB-5-42-UEXT-full\Microchip\TCPIP Stack\HTTP2.c
              __string_47   0x00ee53    program     static C:\Users\Tim\Desktop\PIC-WEB-5-42-UEXT-full\Microchip\TCPIP Stack\HTTP2.c
              __string_46   0x00ee6c    program     static C:\Users\Tim\Desktop\PIC-WEB-5-42-UEXT-full\Microchip\TCPIP Stack\HTTP2.c
              __string_45   0x00ee7b    program     static C:\Users\Tim\Desktop\PIC-WEB-5-42-UEXT-full\Microchip\TCPIP Stack\HTTP2.c
              __string_44   0x00ee8e    program     static C:\Users\Tim\Desktop\PIC-WEB-5-42-UEXT-full\Microchip\TCPIP Stack\HTTP2.c
              __string_43   0x00ee98    program     static C:\Users\Tim\Desktop\PIC-WEB-5-42-UEXT-full\Microchip\TCPIP Stack\HTTP2.c
              __string_42   0x00eea3    program     static C:\Users\Tim\Desktop\PIC-WEB-5-42-UEXT-full\Microchip\TCPIP Stack\HTTP2.c
              __string_41   0x00eea8    program     static C:\Users\Tim\Desktop\PIC-WEB-5-42-UEXT-full\Microchip\TCPIP Stack\HTTP2.c
              __string_40   0x00eeac    program     static C:\Users\Tim\Desktop\PIC-WEB-5-42-UEXT-full\Microchip\TCPIP Stack\HTTP2.c
              __string_39   0x00eebc    program     static C:\Users\Tim\Desktop\PIC-WEB-5-42-UEXT-full\Microchip\TCPIP Stack\HTTP2.c
              __string_38   0x00eecb    program     static C:\Users\Tim\Desktop\PIC-WEB-5-42-UEXT-full\Microchip\TCPIP Stack\HTTP2.c
              __string_37   0x00eed3    program     static C:\Users\Tim\Desktop\PIC-WEB-5-42-UEXT-full\Microchip\TCPIP Stack\HTTP2.c
              __string_36   0x00ef2a    program     static C:\Users\Tim\Desktop\PIC-WEB-5-42-UEXT-full\Microchip\TCPIP Stack\HTTP2.c
              __string_35   0x00ef5c    program     static C:\Users\Tim\Desktop\PIC-WEB-5-42-UEXT-full\Microchip\TCPIP Stack\HTTP2.c
              __string_34   0x00f02f    program     static C:\Users\Tim\Desktop\PIC-WEB-5-42-UEXT-full\Microchip\TCPIP Stack\HTTP2.c
              __string_33   0x00f0dc    program     static C:\Users\Tim\Desktop\PIC-WEB-5-42-UEXT-full\Microchip\TCPIP Stack\HTTP2.c
              __string_32   0x00f1fc    program     static C:\Users\Tim\Desktop\PIC-WEB-5-42-UEXT-full\Microchip\TCPIP Stack\HTTP2.c
              __string_31   0x00f262    program     static C:\Users\Tim\Desktop\PIC-WEB-5-42-UEXT-full\Microchip\TCPIP Stack\HTTP2.c
              __string_30   0x00f2d2    program     static C:\Users\Tim\Desktop\PIC-WEB-5-42-UEXT-full\Microchip\TCPIP Stack\HTTP2.c
              __string_29   0x00f33f    program     static C:\Users\Tim\Desktop\PIC-WEB-5-42-UEXT-full\Microchip\TCPIP Stack\HTTP2.c
              __string_28   0x00f3dd    program     static C:\Users\Tim\Desktop\PIC-WEB-5-42-UEXT-full\Microchip\TCPIP Stack\HTTP2.c
              __string_27   0x00f45e    program     static C:\Users\Tim\Desktop\PIC-WEB-5-42-UEXT-full\Microchip\TCPIP Stack\HTTP2.c
              __string_26   0x00f4bc    program     static C:\Users\Tim\Desktop\PIC-WEB-5-42-UEXT-full\Microchip\TCPIP Stack\HTTP2.c
              __string_25   0x00f4e1    program     static C:\Users\Tim\Desktop\PIC-WEB-5-42-UEXT-full\Microchip\TCPIP Stack\HTTP2.c
              __string_24   0x00f4e2    program     static C:\Users\Tim\Desktop\PIC-WEB-5-42-UEXT-full\Microchip\TCPIP Stack\HTTP2.c
              __string_23   0x00f4ef    program     static C:\Users\Tim\Desktop\PIC-WEB-5-42-UEXT-full\Microchip\TCPIP Stack\HTTP2.c
              __string_22   0x00f503    program     static C:\Users\Tim\Desktop\PIC-WEB-5-42-UEXT-full\Microchip\TCPIP Stack\HTTP2.c
              __string_21   0x00f50e    program     static C:\Users\Tim\Desktop\PIC-WEB-5-42-UEXT-full\Microchip\TCPIP Stack\HTTP2.c
              __string_20   0x00f518    program     static C:\Users\Tim\Desktop\PIC-WEB-5-42-UEXT-full\Microchip\TCPIP Stack\HTTP2.c
              __string_19   0x00f522    program     static C:\Users\Tim\Desktop\PIC-WEB-5-42-UEXT-full\Microchip\TCPIP Stack\HTTP2.c
              __string_18   0x00f52b    program     static C:\Users\Tim\Desktop\PIC-WEB-5-42-UEXT-full\Microchip\TCPIP Stack\HTTP2.c
              __string_17   0x00f534    program     static C:\Users\Tim\Desktop\PIC-WEB-5-42-UEXT-full\Microchip\TCPIP Stack\HTTP2.c
              __string_16   0x00f53e    program     static C:\Users\Tim\Desktop\PIC-WEB-5-42-UEXT-full\Microchip\TCPIP Stack\HTTP2.c
              __string_15   0x00f549    program     static C:\Users\Tim\Desktop\PIC-WEB-5-42-UEXT-full\Microchip\TCPIP Stack\HTTP2.c
              __string_14   0x00f54d    program     static C:\Users\Tim\Desktop\PIC-WEB-5-42-UEXT-full\Microchip\TCPIP Stack\HTTP2.c
              __string_13   0x00f551    program     static C:\Users\Tim\Desktop\PIC-WEB-5-42-UEXT-full\Microchip\TCPIP Stack\HTTP2.c
              __string_12   0x00f555    program     static C:\Users\Tim\Desktop\PIC-WEB-5-42-UEXT-full\Microchip\TCPIP Stack\HTTP2.c
              __string_11   0x00f559    program     static C:\Users\Tim\Desktop\PIC-WEB-5-42-UEXT-full\Microchip\TCPIP Stack\HTTP2.c
              __string_10   0x00f55d    program     static C:\Users\Tim\Desktop\PIC-WEB-5-42-UEXT-full\Microchip\TCPIP Stack\HTTP2.c
               __string_9   0x00f561    program     static C:\Users\Tim\Desktop\PIC-WEB-5-42-UEXT-full\Microchip\TCPIP Stack\HTTP2.c
               __string_8   0x00f565    program     static C:\Users\Tim\Desktop\PIC-WEB-5-42-UEXT-full\Microchip\TCPIP Stack\HTTP2.c
               __string_7   0x00f569    program     static C:\Users\Tim\Desktop\PIC-WEB-5-42-UEXT-full\Microchip\TCPIP Stack\HTTP2.c
               __string_6   0x00f56d    program     static C:\Users\Tim\Desktop\PIC-WEB-5-42-UEXT-full\Microchip\TCPIP Stack\HTTP2.c
               __string_5   0x00f572    program     static C:\Users\Tim\Desktop\PIC-WEB-5-42-UEXT-full\Microchip\TCPIP Stack\HTTP2.c
               __string_4   0x00f576    program     static C:\Users\Tim\Desktop\PIC-WEB-5-42-UEXT-full\Microchip\TCPIP Stack\HTTP2.c
               __string_2   0x00f57a    program     static C:\Users\Tim\Desktop\PIC-WEB-5-42-UEXT-full\Microchip\TCPIP Stack\HTTP2.c
               __string_1   0x00f57f    program     static C:\Users\Tim\Desktop\PIC-WEB-5-42-UEXT-full\Microchip\TCPIP Stack\HTTP2.c
               __string_0   0x00f58a    program     static C:\Users\Tim\Desktop\PIC-WEB-5-42-UEXT-full\Microchip\TCPIP Stack\HTTP2.c
               __string_0   0x00f595    program     static C:\Users\Tim\Desktop\PIC-WEB-5-42-UEXT-full\Microchip\TCPIP Stack\MPFS2.c
              __string_14   0x00f59c    program     static C:\Users\Tim\Desktop\PIC-WEB-5-42-UEXT-full\Microchip\TCPIP Stack\SMTP.c
              __string_13   0x00f5a3    program     static C:\Users\Tim\Desktop\PIC-WEB-5-42-UEXT-full\Microchip\TCPIP Stack\SMTP.c
              __string_12   0x00f5a7    program     static C:\Users\Tim\Desktop\PIC-WEB-5-42-UEXT-full\Microchip\TCPIP Stack\SMTP.c
              __string_11   0x00f5ad    program     static C:\Users\Tim\Desktop\PIC-WEB-5-42-UEXT-full\Microchip\TCPIP Stack\SMTP.c
              __string_10   0x00f5b9    program     static C:\Users\Tim\Desktop\PIC-WEB-5-42-UEXT-full\Microchip\TCPIP Stack\SMTP.c
               __string_9   0x00f5c0    program     static C:\Users\Tim\Desktop\PIC-WEB-5-42-UEXT-full\Microchip\TCPIP Stack\SMTP.c
               __string_8   0x00f5c7    program     static C:\Users\Tim\Desktop\PIC-WEB-5-42-UEXT-full\Microchip\TCPIP Stack\SMTP.c
               __string_7   0x00f5ce    program     static C:\Users\Tim\Desktop\PIC-WEB-5-42-UEXT-full\Microchip\TCPIP Stack\SMTP.c
               __string_6   0x00f5d5    program     static C:\Users\Tim\Desktop\PIC-WEB-5-42-UEXT-full\Microchip\TCPIP Stack\SMTP.c
               __string_5   0x00f5df    program     static C:\Users\Tim\Desktop\PIC-WEB-5-42-UEXT-full\Microchip\TCPIP Stack\SMTP.c
               __string_4   0x00f5e3    program     static C:\Users\Tim\Desktop\PIC-WEB-5-42-UEXT-full\Microchip\TCPIP Stack\SMTP.c
               __string_3   0x00f5ef    program     static C:\Users\Tim\Desktop\PIC-WEB-5-42-UEXT-full\Microchip\TCPIP Stack\SMTP.c
               __string_2   0x00f5f2    program     static C:\Users\Tim\Desktop\PIC-WEB-5-42-UEXT-full\Microchip\TCPIP Stack\SMTP.c
               __string_1   0x00f5ff    program     static C:\Users\Tim\Desktop\PIC-WEB-5-42-UEXT-full\Microchip\TCPIP Stack\SMTP.c
               __string_0   0x00f610    program     static C:\Users\Tim\Desktop\PIC-WEB-5-42-UEXT-full\Microchip\TCPIP Stack\SMTP.c
               __string_0   0x00f621    program     static C:\Users\Tim\Desktop\PIC-WEB-5-42-UEXT-full\Microchip\TCPIP Stack\SNTP.c
               __string_3   0x00f62e    program     static C:\Users\Tim\Desktop\PIC-WEB-5-42-UEXT-full\Microchip\TCPIP Stack\TCPPerformanceTest.c
               __string_2   0x00f63e    program     static C:\Users\Tim\Desktop\PIC-WEB-5-42-UEXT-full\Microchip\TCPIP Stack\TCPPerformanceTest.c
               __string_1   0x00f65f    program     static C:\Users\Tim\Desktop\PIC-WEB-5-42-UEXT-full\Microchip\TCPIP Stack\TCPPerformanceTest.c
               __string_0   0x00f667    program     static C:\Users\Tim\Desktop\PIC-WEB-5-42-UEXT-full\Microchip\TCPIP Stack\TCPPerformanceTest.c
              __string_19   0x00f685    program     static C:\Users\Tim\Desktop\PIC-WEB-5-42-UEXT-full\Microchip\TCPIP Stack\Telnet.c
              __string_18   0x00f68c    program     static C:\Users\Tim\Desktop\PIC-WEB-5-42-UEXT-full\Microchip\TCPIP Stack\Telnet.c
              __string_17   0x00f693    program     static C:\Users\Tim\Desktop\PIC-WEB-5-42-UEXT-full\Microchip\TCPIP Stack\Telnet.c
              __string_16   0x00f69a    program     static C:\Users\Tim\Desktop\PIC-WEB-5-42-UEXT-full\Microchip\TCPIP Stack\Telnet.c
              __string_15   0x00f6a1    program     static C:\Users\Tim\Desktop\PIC-WEB-5-42-UEXT-full\Microchip\TCPIP Stack\Telnet.c
              __string_14   0x00f6a8    program     static C:\Users\Tim\Desktop\PIC-WEB-5-42-UEXT-full\Microchip\TCPIP Stack\Telnet.c
              __string_13   0x00f6af    program     static C:\Users\Tim\Desktop\PIC-WEB-5-42-UEXT-full\Microchip\TCPIP Stack\Telnet.c
              __string_12   0x00f6b2    program     static C:\Users\Tim\Desktop\PIC-WEB-5-42-UEXT-full\Microchip\TCPIP Stack\Telnet.c
              __string_11   0x00f6b8    program     static C:\Users\Tim\Desktop\PIC-WEB-5-42-UEXT-full\Microchip\TCPIP Stack\Telnet.c
              __string_10   0x00f6bf    program     static C:\Users\Tim\Desktop\PIC-WEB-5-42-UEXT-full\Microchip\TCPIP Stack\Telnet.c
               __string_9   0x00f6c8    program     static C:\Users\Tim\Desktop\PIC-WEB-5-42-UEXT-full\Microchip\TCPIP Stack\Telnet.c
               __string_8   0x00f6ce    program     static C:\Users\Tim\Desktop\PIC-WEB-5-42-UEXT-full\Microchip\TCPIP Stack\Telnet.c
              __string_76   0x00f6e1    program     static C:\Users\Tim\Desktop\PIC-WEB-5-42-UEXT-full\TCPIP\Demo App\CustomHTTPApp.c
              __string_75   0x00f6e7    program     static C:\Users\Tim\Desktop\PIC-WEB-5-42-UEXT-full\TCPIP\Demo App\CustomHTTPApp.c
              __string_74   0x00f6ec    program     static C:\Users\Tim\Desktop\PIC-WEB-5-42-UEXT-full\TCPIP\Demo App\CustomHTTPApp.c
              __string_73   0x00f713    program     static C:\Users\Tim\Desktop\PIC-WEB-5-42-UEXT-full\TCPIP\Demo App\CustomHTTPApp.c
              __string_72   0x00f718    program     static C:\Users\Tim\Desktop\PIC-WEB-5-42-UEXT-full\TCPIP\Demo App\CustomHTTPApp.c
              __string_71   0x00f720    program     static C:\Users\Tim\Desktop\PIC-WEB-5-42-UEXT-full\TCPIP\Demo App\CustomHTTPApp.c
              __string_70   0x00f746    program     static C:\Users\Tim\Desktop\PIC-WEB-5-42-UEXT-full\TCPIP\Demo App\CustomHTTPApp.c
              __string_69   0x00f75b    program     static C:\Users\Tim\Desktop\PIC-WEB-5-42-UEXT-full\TCPIP\Demo App\CustomHTTPApp.c
              __string_68   0x00f763    program     static C:\Users\Tim\Desktop\PIC-WEB-5-42-UEXT-full\TCPIP\Demo App\CustomHTTPApp.c
              __string_67   0x00f76b    program     static C:\Users\Tim\Desktop\PIC-WEB-5-42-UEXT-full\TCPIP\Demo App\CustomHTTPApp.c
              __string_66   0x00f770    program     static C:\Users\Tim\Desktop\PIC-WEB-5-42-UEXT-full\TCPIP\Demo App\CustomHTTPApp.c
              __string_65   0x00f77f    program     static C:\Users\Tim\Desktop\PIC-WEB-5-42-UEXT-full\TCPIP\Demo App\CustomHTTPApp.c
              __string_62   0x00f788    program     static C:\Users\Tim\Desktop\PIC-WEB-5-42-UEXT-full\TCPIP\Demo App\CustomHTTPApp.c
              __string_61   0x00f78e    program     static C:\Users\Tim\Desktop\PIC-WEB-5-42-UEXT-full\TCPIP\Demo App\CustomHTTPApp.c
              __string_60   0x00f7a3    program     static C:\Users\Tim\Desktop\PIC-WEB-5-42-UEXT-full\TCPIP\Demo App\CustomHTTPApp.c
              __string_59   0x00f7b4    program     static C:\Users\Tim\Desktop\PIC-WEB-5-42-UEXT-full\TCPIP\Demo App\CustomHTTPApp.c
              __string_58   0x00f7c3    program     static C:\Users\Tim\Desktop\PIC-WEB-5-42-UEXT-full\TCPIP\Demo App\CustomHTTPApp.c
              __string_57   0x00f7c9    program     static C:\Users\Tim\Desktop\PIC-WEB-5-42-UEXT-full\TCPIP\Demo App\CustomHTTPApp.c
              __string_56   0x00f7d0    program     static C:\Users\Tim\Desktop\PIC-WEB-5-42-UEXT-full\TCPIP\Demo App\CustomHTTPApp.c
              __string_55   0x00f7da    program     static C:\Users\Tim\Desktop\PIC-WEB-5-42-UEXT-full\TCPIP\Demo App\CustomHTTPApp.c
              __string_54   0x00f7ea    program     static C:\Users\Tim\Desktop\PIC-WEB-5-42-UEXT-full\TCPIP\Demo App\CustomHTTPApp.c
              __string_53   0x00f84b    program     static C:\Users\Tim\Desktop\PIC-WEB-5-42-UEXT-full\TCPIP\Demo App\CustomHTTPApp.c
              __string_52   0x00f874    program     static C:\Users\Tim\Desktop\PIC-WEB-5-42-UEXT-full\TCPIP\Demo App\CustomHTTPApp.c
              __string_51   0x00f8a3    program     static C:\Users\Tim\Desktop\PIC-WEB-5-42-UEXT-full\TCPIP\Demo App\CustomHTTPApp.c
              __string_50   0x00f8a7    program     static C:\Users\Tim\Desktop\PIC-WEB-5-42-UEXT-full\TCPIP\Demo App\CustomHTTPApp.c
              __string_49   0x00f8aa    program     static C:\Users\Tim\Desktop\PIC-WEB-5-42-UEXT-full\TCPIP\Demo App\CustomHTTPApp.c
              __string_48   0x00f8af    program     static C:\Users\Tim\Desktop\PIC-WEB-5-42-UEXT-full\TCPIP\Demo App\CustomHTTPApp.c
              __string_47   0x00f8b4    program     static C:\Users\Tim\Desktop\PIC-WEB-5-42-UEXT-full\TCPIP\Demo App\CustomHTTPApp.c
              __string_46   0x00f8b9    program     static C:\Users\Tim\Desktop\PIC-WEB-5-42-UEXT-full\TCPIP\Demo App\CustomHTTPApp.c
              __string_45   0x00f8c0    program     static C:\Users\Tim\Desktop\PIC-WEB-5-42-UEXT-full\TCPIP\Demo App\CustomHTTPApp.c
              __string_44   0x00f908    program     static C:\Users\Tim\Desktop\PIC-WEB-5-42-UEXT-full\TCPIP\Demo App\CustomHTTPApp.c
              __string_43   0x00f933    program     static C:\Users\Tim\Desktop\PIC-WEB-5-42-UEXT-full\TCPIP\Demo App\CustomHTTPApp.c
              __string_42   0x00f958    program     static C:\Users\Tim\Desktop\PIC-WEB-5-42-UEXT-full\TCPIP\Demo App\CustomHTTPApp.c
              __string_41   0x00f95d    program     static C:\Users\Tim\Desktop\PIC-WEB-5-42-UEXT-full\TCPIP\Demo App\CustomHTTPApp.c
              __string_40   0x00f960    program     static C:\Users\Tim\Desktop\PIC-WEB-5-42-UEXT-full\TCPIP\Demo App\CustomHTTPApp.c
              __string_39   0x00f974    program     static C:\Users\Tim\Desktop\PIC-WEB-5-42-UEXT-full\TCPIP\Demo App\CustomHTTPApp.c
              __string_38   0x00f989    program     static C:\Users\Tim\Desktop\PIC-WEB-5-42-UEXT-full\TCPIP\Demo App\CustomHTTPApp.c
              __string_37   0x00f98e    program     static C:\Users\Tim\Desktop\PIC-WEB-5-42-UEXT-full\TCPIP\Demo App\CustomHTTPApp.c
              __string_36   0x00f993    program     static C:\Users\Tim\Desktop\PIC-WEB-5-42-UEXT-full\TCPIP\Demo App\CustomHTTPApp.c
              __string_35   0x00f997    program     static C:\Users\Tim\Desktop\PIC-WEB-5-42-UEXT-full\TCPIP\Demo App\CustomHTTPApp.c
              __string_34   0x00f99c    program     static C:\Users\Tim\Desktop\PIC-WEB-5-42-UEXT-full\TCPIP\Demo App\CustomHTTPApp.c
              __string_33   0x00f9a1    program     static C:\Users\Tim\Desktop\PIC-WEB-5-42-UEXT-full\TCPIP\Demo App\CustomHTTPApp.c
              __string_32   0x00f9a5    program     static C:\Users\Tim\Desktop\PIC-WEB-5-42-UEXT-full\TCPIP\Demo App\CustomHTTPApp.c
              __string_31   0x00f9a8    program     static C:\Users\Tim\Desktop\PIC-WEB-5-42-UEXT-full\TCPIP\Demo App\CustomHTTPApp.c
              __string_30   0x00f9ab    program     static C:\Users\Tim\Desktop\PIC-WEB-5-42-UEXT-full\TCPIP\Demo App\CustomHTTPApp.c
              __string_29   0x00f9bb    program     static C:\Users\Tim\Desktop\PIC-WEB-5-42-UEXT-full\TCPIP\Demo App\CustomHTTPApp.c
              __string_28   0x00f9ce    program     static C:\Users\Tim\Desktop\PIC-WEB-5-42-UEXT-full\TCPIP\Demo App\CustomHTTPApp.c
              __string_27   0x00f9d9    program     static C:\Users\Tim\Desktop\PIC-WEB-5-42-UEXT-full\TCPIP\Demo App\CustomHTTPApp.c
              __string_26   0x00f9dd    program     static C:\Users\Tim\Desktop\PIC-WEB-5-42-UEXT-full\TCPIP\Demo App\CustomHTTPApp.c
              __string_25   0x00f9e6    program     static C:\Users\Tim\Desktop\PIC-WEB-5-42-UEXT-full\TCPIP\Demo App\CustomHTTPApp.c
              __string_24   0x00f9f2    program     static C:\Users\Tim\Desktop\PIC-WEB-5-42-UEXT-full\TCPIP\Demo App\CustomHTTPApp.c
              __string_23   0x00f9f7    program     static C:\Users\Tim\Desktop\PIC-WEB-5-42-UEXT-full\TCPIP\Demo App\CustomHTTPApp.c
              __string_22   0x00f9fc    program     static C:\Users\Tim\Desktop\PIC-WEB-5-42-UEXT-full\TCPIP\Demo App\CustomHTTPApp.c
              __string_21   0x00fa01    program     static C:\Users\Tim\Desktop\PIC-WEB-5-42-UEXT-full\TCPIP\Demo App\CustomHTTPApp.c
              __string_20   0x00fa06    program     static C:\Users\Tim\Desktop\PIC-WEB-5-42-UEXT-full\TCPIP\Demo App\CustomHTTPApp.c
              __string_19   0x00fa10    program     static C:\Users\Tim\Desktop\PIC-WEB-5-42-UEXT-full\TCPIP\Demo App\CustomHTTPApp.c
              __string_18   0x00fa1d    program     static C:\Users\Tim\Desktop\PIC-WEB-5-42-UEXT-full\TCPIP\Demo App\CustomHTTPApp.c
              __string_17   0x00fa23    program     static C:\Users\Tim\Desktop\PIC-WEB-5-42-UEXT-full\TCPIP\Demo App\CustomHTTPApp.c
              __string_16   0x00fa28    program     static C:\Users\Tim\Desktop\PIC-WEB-5-42-UEXT-full\TCPIP\Demo App\CustomHTTPApp.c
              __string_15   0x00fa2e    program     static C:\Users\Tim\Desktop\PIC-WEB-5-42-UEXT-full\TCPIP\Demo App\CustomHTTPApp.c
              __string_14   0x00fa36    program     static C:\Users\Tim\Desktop\PIC-WEB-5-42-UEXT-full\TCPIP\Demo App\CustomHTTPApp.c
              __string_13   0x00fa40    program     static C:\Users\Tim\Desktop\PIC-WEB-5-42-UEXT-full\TCPIP\Demo App\CustomHTTPApp.c
              __string_12   0x00fa4d    program     static C:\Users\Tim\Desktop\PIC-WEB-5-42-UEXT-full\TCPIP\Demo App\CustomHTTPApp.c
              __string_10   0x00fa55    program     static C:\Users\Tim\Desktop\PIC-WEB-5-42-UEXT-full\TCPIP\Demo App\CustomHTTPApp.c
               __string_9   0x00fa5a    program     static C:\Users\Tim\Desktop\PIC-WEB-5-42-UEXT-full\TCPIP\Demo App\CustomHTTPApp.c
               __string_8   0x00fa63    program     static C:\Users\Tim\Desktop\PIC-WEB-5-42-UEXT-full\TCPIP\Demo App\CustomHTTPApp.c
               __string_7   0x00fa68    program     static C:\Users\Tim\Desktop\PIC-WEB-5-42-UEXT-full\TCPIP\Demo App\CustomHTTPApp.c
               __string_6   0x00fa76    program     static C:\Users\Tim\Desktop\PIC-WEB-5-42-UEXT-full\TCPIP\Demo App\CustomHTTPApp.c
               __string_5   0x00fa7c    program     static C:\Users\Tim\Desktop\PIC-WEB-5-42-UEXT-full\TCPIP\Demo App\CustomHTTPApp.c
               __string_4   0x00fa86    program     static C:\Users\Tim\Desktop\PIC-WEB-5-42-UEXT-full\TCPIP\Demo App\CustomHTTPApp.c
               __string_3   0x00fa90    program     static C:\Users\Tim\Desktop\PIC-WEB-5-42-UEXT-full\TCPIP\Demo App\CustomHTTPApp.c
               __string_2   0x00fa96    program     static C:\Users\Tim\Desktop\PIC-WEB-5-42-UEXT-full\TCPIP\Demo App\CustomHTTPApp.c
               __string_1   0x00fa9b    program     static C:\Users\Tim\Desktop\PIC-WEB-5-42-UEXT-full\TCPIP\Demo App\CustomHTTPApp.c
               __string_3   0x00faa3    program     static C:\Users\Tim\Desktop\PIC-WEB-5-42-UEXT-full\TCPIP\Demo App\MainDemo.c
               __string_2   0x00faab    program     static C:\Users\Tim\Desktop\PIC-WEB-5-42-UEXT-full\TCPIP\Demo App\MainDemo.c
               __string_1   0x00faae    program     static C:\Users\Tim\Desktop\PIC-WEB-5-42-UEXT-full\TCPIP\Demo App\MainDemo.c
               __string_0   0x00fac1    program     static C:\Users\Tim\Desktop\PIC-WEB-5-42-UEXT-full\TCPIP\Demo App\MainDemo.c
                  UDPInit   0x00fb0c    program     extern C:\Users\Tim\Desktop\PIC-WEB-5-42-UEXT-full\Microchip\TCPIP Stack\UDP.c
                UDPOpenEx   0x00fb28    program     extern C:\Users\Tim\Desktop\PIC-WEB-5-42-UEXT-full\Microchip\TCPIP Stack\UDP.c
                  UDPTask   0x00fd44    program     extern C:\Users\Tim\Desktop\PIC-WEB-5-42-UEXT-full\Microchip\TCPIP Stack\UDP.c
              UDPIsOpened   0x010138    program     extern C:\Users\Tim\Desktop\PIC-WEB-5-42-UEXT-full\Microchip\TCPIP Stack\UDP.c
                 UDPClose   0x010160    program     extern C:\Users\Tim\Desktop\PIC-WEB-5-42-UEXT-full\Microchip\TCPIP Stack\UDP.c
           UDPSetTxBuffer   0x0101c8    program     extern C:\Users\Tim\Desktop\PIC-WEB-5-42-UEXT-full\Microchip\TCPIP Stack\UDP.c
           UDPSetRxBuffer   0x010216    program     extern C:\Users\Tim\Desktop\PIC-WEB-5-42-UEXT-full\Microchip\TCPIP Stack\UDP.c
            UDPIsPutReady   0x010238    program     extern C:\Users\Tim\Desktop\PIC-WEB-5-42-UEXT-full\Microchip\TCPIP Stack\UDP.c
                   UDPPut   0x01029c    program     extern C:\Users\Tim\Desktop\PIC-WEB-5-42-UEXT-full\Microchip\TCPIP Stack\UDP.c
              UDPPutArray   0x0102e0    program     extern C:\Users\Tim\Desktop\PIC-WEB-5-42-UEXT-full\Microchip\TCPIP Stack\UDP.c
           UDPPutROMArray   0x010368    program     extern C:\Users\Tim\Desktop\PIC-WEB-5-42-UEXT-full\Microchip\TCPIP Stack\UDP.c
             UDPPutString   0x0103f4    program     extern C:\Users\Tim\Desktop\PIC-WEB-5-42-UEXT-full\Microchip\TCPIP Stack\UDP.c
          UDPPutROMString   0x01042c    program     extern C:\Users\Tim\Desktop\PIC-WEB-5-42-UEXT-full\Microchip\TCPIP Stack\UDP.c
                 UDPFlush   0x01047a    program     extern C:\Users\Tim\Desktop\PIC-WEB-5-42-UEXT-full\Microchip\TCPIP Stack\UDP.c
            UDPIsGetReady   0x010632    program     extern C:\Users\Tim\Desktop\PIC-WEB-5-42-UEXT-full\Microchip\TCPIP Stack\UDP.c
                   UDPGet   0x01066a    program     extern C:\Users\Tim\Desktop\PIC-WEB-5-42-UEXT-full\Microchip\TCPIP Stack\UDP.c
              UDPGetArray   0x010698    program     extern C:\Users\Tim\Desktop\PIC-WEB-5-42-UEXT-full\Microchip\TCPIP Stack\UDP.c
               UDPDiscard   0x010708    program     extern C:\Users\Tim\Desktop\PIC-WEB-5-42-UEXT-full\Microchip\TCPIP Stack\UDP.c
               UDPProcess   0x010722    program     extern C:\Users\Tim\Desktop\PIC-WEB-5-42-UEXT-full\Microchip\TCPIP Stack\UDP.c
       FindMatchingSocket   0x01086c    program     static C:\Users\Tim\Desktop\PIC-WEB-5-42-UEXT-full\Microchip\TCPIP Stack\UDP.c
                 DHCPInit   0x0109e0    program     extern C:\Users\Tim\Desktop\PIC-WEB-5-42-UEXT-full\Microchip\TCPIP Stack\DHCP.c
              DHCPDisable   0x010a28    program     extern C:\Users\Tim\Desktop\PIC-WEB-5-42-UEXT-full\Microchip\TCPIP Stack\DHCP.c
               DHCPEnable   0x010a40    program     extern C:\Users\Tim\Desktop\PIC-WEB-5-42-UEXT-full\Microchip\TCPIP Stack\DHCP.c
            DHCPIsEnabled   0x010a58    program     extern C:\Users\Tim\Desktop\PIC-WEB-5-42-UEXT-full\Microchip\TCPIP Stack\DHCP.c
              DHCPIsBound   0x010a62    program     extern C:\Users\Tim\Desktop\PIC-WEB-5-42-UEXT-full\Microchip\TCPIP Stack\DHCP.c
         DHCPStateChanged   0x010a6a    program     extern C:\Users\Tim\Desktop\PIC-WEB-5-42-UEXT-full\Microchip\TCPIP Stack\DHCP.c
     DHCPIsServerDetected   0x010a76    program     extern C:\Users\Tim\Desktop\PIC-WEB-5-42-UEXT-full\Microchip\TCPIP Stack\DHCP.c
           DHCPTempIPAddr   0x010a82    program     extern C:\Users\Tim\Desktop\PIC-WEB-5-42-UEXT-full\Microchip\TCPIP Stack\DHCP.c
                 DHCPTask   0x010a94    program     extern C:\Users\Tim\Desktop\PIC-WEB-5-42-UEXT-full\Microchip\TCPIP Stack\DHCP.c
              __tmplbl_52   0x010a98    program     static                          
             _DHCPReceive   0x01125e    program     static C:\Users\Tim\Desktop\PIC-WEB-5-42-UEXT-full\Microchip\TCPIP Stack\DHCP.c
                _DHCPSend   0x011644    program     static C:\Users\Tim\Desktop\PIC-WEB-5-42-UEXT-full\Microchip\TCPIP Stack\DHCP.c
            s_put_n_chars   0x0118a4    program     static E:\3.46\pic18-lt\cxx-framework\src\traditional\stdclib\vfprintf.c
                 vfprintf   0x0118d0    program     extern E:\3.46\pic18-lt\cxx-framework\src\traditional\stdclib\vfprintf.c
              __tmplbl_85   0x0118fa    program     static                          
              __tmplbl_44   0x0121a8    program     static                          
              __tmplbl_43   0x0121c2    program     static                          
                   __pa_0   0x0121e4    program     static E:\3.46\pic18-lt\cxx-framework\src\traditional\stdclib\vfprintf.c
                   __pa_1   0x0121ec    program     static E:\3.46\pic18-lt\cxx-framework\src\traditional\stdclib\vfprintf.c
                   __pa_2   0x0121f6    program     static E:\3.46\pic18-lt\cxx-framework\src\traditional\stdclib\vfprintf.c
                   __pa_3   0x012200    program     static E:\3.46\pic18-lt\cxx-framework\src\traditional\stdclib\vfprintf.c
                   __pa_4   0x012218    program     static E:\3.46\pic18-lt\cxx-framework\src\traditional\stdclib\vfprintf.c
                   __pa_5   0x01222c    program     static E:\3.46\pic18-lt\cxx-framework\src\traditional\stdclib\vfprintf.c
                   __pa_6   0x012248    program     static E:\3.46\pic18-lt\cxx-framework\src\traditional\stdclib\vfprintf.c
                   __pa_7   0x012252    program     static E:\3.46\pic18-lt\cxx-framework\src\traditional\stdclib\vfprintf.c
                   __pa_8   0x01225e    program     static E:\3.46\pic18-lt\cxx-framework\src\traditional\stdclib\vfprintf.c
                   __pa_9   0x012280    program     static E:\3.46\pic18-lt\cxx-framework\src\traditional\stdclib\vfprintf.c
                  __pa_10   0x0122a0    program     static E:\3.46\pic18-lt\cxx-framework\src\traditional\stdclib\vfprintf.c
                  __pa_11   0x0122ae    program     static E:\3.46\pic18-lt\cxx-framework\src\traditional\stdclib\vfprintf.c
                  __pa_12   0x0122c4    program     static E:\3.46\pic18-lt\cxx-framework\src\traditional\stdclib\vfprintf.c
                  __pa_13   0x0122de    program     static E:\3.46\pic18-lt\cxx-framework\src\traditional\stdclib\vfprintf.c
                  __pa_14   0x0122f6    program     static E:\3.46\pic18-lt\cxx-framework\src\traditional\stdclib\vfprintf.c
                  __pa_15   0x012306    program     static E:\3.46\pic18-lt\cxx-framework\src\traditional\stdclib\vfprintf.c
                  __pa_16   0x01231c    program     static E:\3.46\pic18-lt\cxx-framework\src\traditional\stdclib\vfprintf.c
                  __pa_17   0x01232e    program     static E:\3.46\pic18-lt\cxx-framework\src\traditional\stdclib\vfprintf.c
                  __pa_18   0x012340    program     static E:\3.46\pic18-lt\cxx-framework\src\traditional\stdclib\vfprintf.c
                  __pa_19   0x01234a    program     static E:\3.46\pic18-lt\cxx-framework\src\traditional\stdclib\vfprintf.c
                  __pa_20   0x01235a    program     static E:\3.46\pic18-lt\cxx-framework\src\traditional\stdclib\vfprintf.c
                  __pa_21   0x01236a    program     static E:\3.46\pic18-lt\cxx-framework\src\traditional\stdclib\vfprintf.c
              __tmplbl_42   0x01237a    program     static                          
                  __pa_22   0x01237a    program     static E:\3.46\pic18-lt\cxx-framework\src\traditional\stdclib\vfprintf.c
                  __pa_23   0x012386    program     static E:\3.46\pic18-lt\cxx-framework\src\traditional\stdclib\vfprintf.c
                  __pa_24   0x012394    program     static E:\3.46\pic18-lt\cxx-framework\src\traditional\stdclib\vfprintf.c
                  __pa_25   0x01239c    program     static E:\3.46\pic18-lt\cxx-framework\src\traditional\stdclib\vfprintf.c
                  __pa_26   0x0123a6    program     static E:\3.46\pic18-lt\cxx-framework\src\traditional\stdclib\vfprintf.c
                  __pa_27   0x0123b0    program     static E:\3.46\pic18-lt\cxx-framework\src\traditional\stdclib\vfprintf.c
                  __pa_28   0x0123b8    program     static E:\3.46\pic18-lt\cxx-framework\src\traditional\stdclib\vfprintf.c
                  __pa_29   0x0123c6    program     static E:\3.46\pic18-lt\cxx-framework\src\traditional\stdclib\vfprintf.c
                  __pa_30   0x0123e2    program     static E:\3.46\pic18-lt\cxx-framework\src\traditional\stdclib\vfprintf.c
                  __pa_31   0x0123fc    program     static E:\3.46\pic18-lt\cxx-framework\src\traditional\stdclib\vfprintf.c
                  __pa_32   0x012416    program     static E:\3.46\pic18-lt\cxx-framework\src\traditional\stdclib\vfprintf.c
                  __pa_33   0x01242e    program     static E:\3.46\pic18-lt\cxx-framework\src\traditional\stdclib\vfprintf.c
                  __pa_34   0x012438    program     static E:\3.46\pic18-lt\cxx-framework\src\traditional\stdclib\vfprintf.c
                  __pa_35   0x012446    program     static E:\3.46\pic18-lt\cxx-framework\src\traditional\stdclib\vfprintf.c
                  __pa_36   0x01244e    program     static E:\3.46\pic18-lt\cxx-framework\src\traditional\stdclib\vfprintf.c
                  __pa_37   0x012458    program     static E:\3.46\pic18-lt\cxx-framework\src\traditional\stdclib\vfprintf.c
                  __pa_38   0x012468    program     static E:\3.46\pic18-lt\cxx-framework\src\traditional\stdclib\vfprintf.c
                  __pa_39   0x012476    program     static E:\3.46\pic18-lt\cxx-framework\src\traditional\stdclib\vfprintf.c
                  __pa_40   0x012482    program     static E:\3.46\pic18-lt\cxx-framework\src\traditional\stdclib\vfprintf.c
                  __pa_41   0x01248e    program     static E:\3.46\pic18-lt\cxx-framework\src\traditional\stdclib\vfprintf.c
                  __pa_42   0x012496    program     static E:\3.46\pic18-lt\cxx-framework\src\traditional\stdclib\vfprintf.c
                  __pa_43   0x0124a0    program     static E:\3.46\pic18-lt\cxx-framework\src\traditional\stdclib\vfprintf.c
                  __pa_44   0x0124a6    program     static E:\3.46\pic18-lt\cxx-framework\src\traditional\stdclib\vfprintf.c
                  __pa_45   0x0124b0    program     static E:\3.46\pic18-lt\cxx-framework\src\traditional\stdclib\vfprintf.c
                  __pa_46   0x0124bc    program     static E:\3.46\pic18-lt\cxx-framework\src\traditional\stdclib\vfprintf.c
             LFSRSeedRand   0x0124c6    program     extern C:\Users\Tim\Desktop\PIC-WEB-5-42-UEXT-full\Microchip\TCPIP Stack\Helpers.c
                 LFSRRand   0x012520    program     extern C:\Users\Tim\Desktop\PIC-WEB-5-42-UEXT-full\Microchip\TCPIP Stack\Helpers.c
      GenerateRandomDWORD   0x012598    program     extern C:\Users\Tim\Desktop\PIC-WEB-5-42-UEXT-full\Microchip\TCPIP Stack\Helpers.c
        ___while_lbl00010   0x0125dc    program     static                          
        ___while_lbl00012   0x0125e4    program     static                          
        ___while_lbl00013   0x0125e8    program     static                          
               __tmplbl_0   0x012622    program     static                          
           ___if_lbl00014   0x012642    program     static                          
           ___if_lbl00015   0x012658    program     static                          
           ___if_lbl00016   0x0126aa    program     static                          
           ___if_lbl00017   0x0126b2    program     static                          
        ___while_lbl00011   0x0126b4    program     static                          
       ___return_lbl00009   0x0126da    program     static                          
        StringToIPAddress   0x0126dc    program     extern C:\Users\Tim\Desktop\PIC-WEB-5-42-UEXT-full\Microchip\TCPIP Stack\Helpers.c
     ROMStringToIPAddress   0x01281c    program     extern C:\Users\Tim\Desktop\PIC-WEB-5-42-UEXT-full\Microchip\TCPIP Stack\Helpers.c
             Base64Decode   0x01295e    program     extern C:\Users\Tim\Desktop\PIC-WEB-5-42-UEXT-full\Microchip\TCPIP Stack\Helpers.c
             Base64Encode   0x012ab6    program     extern C:\Users\Tim\Desktop\PIC-WEB-5-42-UEXT-full\Microchip\TCPIP Stack\Helpers.c
                    uitoa   0x012c0e    program     extern C:\Users\Tim\Desktop\PIC-WEB-5-42-UEXT-full\Microchip\TCPIP Stack\Helpers.c
                  hexatob   0x012cd2    program     extern C:\Users\Tim\Desktop\PIC-WEB-5-42-UEXT-full\Microchip\TCPIP Stack\Helpers.c
             btohexa_high   0x012d0c    program     extern C:\Users\Tim\Desktop\PIC-WEB-5-42-UEXT-full\Microchip\TCPIP Stack\Helpers.c
              btohexa_low   0x012d28    program     extern C:\Users\Tim\Desktop\PIC-WEB-5-42-UEXT-full\Microchip\TCPIP Stack\Helpers.c
           stricmppgm2ram   0x012d42    program     extern C:\Users\Tim\Desktop\PIC-WEB-5-42-UEXT-full\Microchip\TCPIP Stack\Helpers.c
                    swaps   0x012dc0    program     extern C:\Users\Tim\Desktop\PIC-WEB-5-42-UEXT-full\Microchip\TCPIP Stack\Helpers.c
                    swapl   0x012dca    program     extern C:\Users\Tim\Desktop\PIC-WEB-5-42-UEXT-full\Microchip\TCPIP Stack\Helpers.c
           CalcIPChecksum   0x012df6    program     extern C:\Users\Tim\Desktop\PIC-WEB-5-42-UEXT-full\Microchip\TCPIP Stack\Helpers.c
          leftRotateDWORD   0x012ece    program     extern C:\Users\Tim\Desktop\PIC-WEB-5-42-UEXT-full\Microchip\TCPIP Stack\Helpers.c
          ___for_lbl00149   0x012ee2    program     static                          
          ___for_lbl00147   0x012efe    program     static                          
          ___for_lbl00152   0x012f06    program     static                          
          ___for_lbl00148   0x012f06    program     static                          
          ___for_lbl00150   0x012f1c    program     static                          
          ___for_lbl00151   0x012f22    program     static                          
       ___return_lbl00146   0x012f34    program     static                          
        FormatNetBIOSName   0x012f36    program     extern C:\Users\Tim\Desktop\PIC-WEB-5-42-UEXT-full\Microchip\TCPIP Stack\Helpers.c
                  strnchr   0x012f98    program     extern C:\Users\Tim\Desktop\PIC-WEB-5-42-UEXT-full\Microchip\TCPIP Stack\Helpers.c
                strncpy_m   0x012fe8    program     extern C:\Users\Tim\Desktop\PIC-WEB-5-42-UEXT-full\Microchip\TCPIP Stack\Helpers.c
                      pow   0x0130d4    program     extern E:\3.46\pic18-lt\cxx-framework\src\traditional\stdclib\pow.c
                   __pa_0   0x0138fc    program     static E:\3.46\pic18-lt\cxx-framework\src\traditional\stdclib\pow.c
                   __pa_1   0x013912    program     static E:\3.46\pic18-lt\cxx-framework\src\traditional\stdclib\pow.c
                   __pa_2   0x01391a    program     static E:\3.46\pic18-lt\cxx-framework\src\traditional\stdclib\pow.c
                   __pa_3   0x013934    program     static E:\3.46\pic18-lt\cxx-framework\src\traditional\stdclib\pow.c
                   __pa_4   0x013978    program     static E:\3.46\pic18-lt\cxx-framework\src\traditional\stdclib\pow.c
                   __pa_5   0x01399c    program     static E:\3.46\pic18-lt\cxx-framework\src\traditional\stdclib\pow.c
                   __pa_6   0x0139aa    program     static E:\3.46\pic18-lt\cxx-framework\src\traditional\stdclib\pow.c
                   __pa_7   0x0139be    program     static E:\3.46\pic18-lt\cxx-framework\src\traditional\stdclib\pow.c
                   __pa_8   0x0139d8    program     static E:\3.46\pic18-lt\cxx-framework\src\traditional\stdclib\pow.c
                   __pa_9   0x0139f2    program     static E:\3.46\pic18-lt\cxx-framework\src\traditional\stdclib\pow.c
                  __pa_10   0x013a0c    program     static E:\3.46\pic18-lt\cxx-framework\src\traditional\stdclib\pow.c
                  __pa_11   0x013a32    program     static E:\3.46\pic18-lt\cxx-framework\src\traditional\stdclib\pow.c
                  __pa_12   0x013a44    program     static E:\3.46\pic18-lt\cxx-framework\src\traditional\stdclib\pow.c
                  __pa_13   0x013a56    program     static E:\3.46\pic18-lt\cxx-framework\src\traditional\stdclib\pow.c
                  __pa_14   0x013a60    program     static E:\3.46\pic18-lt\cxx-framework\src\traditional\stdclib\pow.c
                  __pa_15   0x013a7a    program     static E:\3.46\pic18-lt\cxx-framework\src\traditional\stdclib\pow.c
                  __pa_16   0x013a92    program     static E:\3.46\pic18-lt\cxx-framework\src\traditional\stdclib\pow.c
                  __pa_17   0x013aa0    program     static E:\3.46\pic18-lt\cxx-framework\src\traditional\stdclib\pow.c
                  __pa_18   0x013aae    program     static E:\3.46\pic18-lt\cxx-framework\src\traditional\stdclib\pow.c
                  __pa_19   0x013ab6    program     static E:\3.46\pic18-lt\cxx-framework\src\traditional\stdclib\pow.c
                  __pa_20   0x013ac8    program     static E:\3.46\pic18-lt\cxx-framework\src\traditional\stdclib\pow.c
                  __pa_21   0x013ad4    program     static E:\3.46\pic18-lt\cxx-framework\src\traditional\stdclib\pow.c
                  __pa_22   0x013ae6    program     static E:\3.46\pic18-lt\cxx-framework\src\traditional\stdclib\pow.c
                  __pa_23   0x013af8    program     static E:\3.46\pic18-lt\cxx-framework\src\traditional\stdclib\pow.c
                  __pa_24   0x013b04    program     static E:\3.46\pic18-lt\cxx-framework\src\traditional\stdclib\pow.c
                  __pa_25   0x013b10    program     static E:\3.46\pic18-lt\cxx-framework\src\traditional\stdclib\pow.c
                  __pa_26   0x013b20    program     static E:\3.46\pic18-lt\cxx-framework\src\traditional\stdclib\pow.c
                  __pa_27   0x013b2e    program     static E:\3.46\pic18-lt\cxx-framework\src\traditional\stdclib\pow.c
                  __pa_28   0x013b38    program     static E:\3.46\pic18-lt\cxx-framework\src\traditional\stdclib\pow.c
                  __pa_29   0x013b40    program     static E:\3.46\pic18-lt\cxx-framework\src\traditional\stdclib\pow.c
                  __pa_30   0x013b48    program     static E:\3.46\pic18-lt\cxx-framework\src\traditional\stdclib\pow.c
                  __pa_31   0x013b5a    program     static E:\3.46\pic18-lt\cxx-framework\src\traditional\stdclib\pow.c
                  __pa_32   0x013b66    program     static E:\3.46\pic18-lt\cxx-framework\src\traditional\stdclib\pow.c
                  __pa_33   0x013b6c    program     static E:\3.46\pic18-lt\cxx-framework\src\traditional\stdclib\pow.c
                  __pa_34   0x013b74    program     static E:\3.46\pic18-lt\cxx-framework\src\traditional\stdclib\pow.c
                  __pa_35   0x013b80    program     static E:\3.46\pic18-lt\cxx-framework\src\traditional\stdclib\pow.c
                  __pa_36   0x013b8e    program     static E:\3.46\pic18-lt\cxx-framework\src\traditional\stdclib\pow.c
                  __pa_37   0x013b96    program     static E:\3.46\pic18-lt\cxx-framework\src\traditional\stdclib\pow.c
                  __pa_38   0x013ba0    program     static E:\3.46\pic18-lt\cxx-framework\src\traditional\stdclib\pow.c
                  __pa_39   0x013ba8    program     static E:\3.46\pic18-lt\cxx-framework\src\traditional\stdclib\pow.c
                  __pa_40   0x013bb2    program     static E:\3.46\pic18-lt\cxx-framework\src\traditional\stdclib\pow.c
                  __pa_41   0x013bc0    program     static E:\3.46\pic18-lt\cxx-framework\src\traditional\stdclib\pow.c
                  __pa_42   0x013bc8    program     static E:\3.46\pic18-lt\cxx-framework\src\traditional\stdclib\pow.c
                  __pa_43   0x013bd4    program     static E:\3.46\pic18-lt\cxx-framework\src\traditional\stdclib\pow.c
                  __pa_44   0x013be2    program     static E:\3.46\pic18-lt\cxx-framework\src\traditional\stdclib\pow.c
                  __pa_45   0x013bec    program     static E:\3.46\pic18-lt\cxx-framework\src\traditional\stdclib\pow.c
               TelnetTask   0x013bf2    program     extern C:\Users\Tim\Desktop\PIC-WEB-5-42-UEXT-full\Microchip\TCPIP Stack\Telnet.c
              __tmplbl_14   0x013c3e    program     static                          
              __tmplbl_11   0x0146d0    program     static                          
               __tmplbl_6   0x0146d0    program     static                          
               __tmplbl_9   0x0146d0    program     static                          
               __tmplbl_7   0x0146d0    program     static                          
               __tmplbl_8   0x0146d0    program     static                          
              __tmplbl_10   0x0146d0    program     static                          
               __tmplbl_2   0x0146f8    program     static                          
              HashAddData   0x0146fa    program     extern C:\Users\Tim\Desktop\PIC-WEB-5-42-UEXT-full\Microchip\TCPIP Stack\Hashes.c
           HashAddROMData   0x014726    program     extern C:\Users\Tim\Desktop\PIC-WEB-5-42-UEXT-full\Microchip\TCPIP Stack\Hashes.c
            MD5Initialize   0x014756    program     extern C:\Users\Tim\Desktop\PIC-WEB-5-42-UEXT-full\Microchip\TCPIP Stack\Hashes.c
               MD5AddData   0x0147fa    program     extern C:\Users\Tim\Desktop\PIC-WEB-5-42-UEXT-full\Microchip\TCPIP Stack\Hashes.c
            MD5AddROMData   0x014960    program     extern C:\Users\Tim\Desktop\PIC-WEB-5-42-UEXT-full\Microchip\TCPIP Stack\Hashes.c
             MD5HashBlock   0x014ace    program     static C:\Users\Tim\Desktop\PIC-WEB-5-42-UEXT-full\Microchip\TCPIP Stack\Hashes.c
             MD5Calculate   0x014e70    program     extern C:\Users\Tim\Desktop\PIC-WEB-5-42-UEXT-full\Microchip\TCPIP Stack\Hashes.c
            DNSBeginUsage   0x0151e6    program     extern C:\Users\Tim\Desktop\PIC-WEB-5-42-UEXT-full\Microchip\TCPIP Stack\DNS.c
              DNSEndUsage   0x0151f0    program     extern C:\Users\Tim\Desktop\PIC-WEB-5-42-UEXT-full\Microchip\TCPIP Stack\DNS.c
               DNSResolve   0x015214    program     extern C:\Users\Tim\Desktop\PIC-WEB-5-42-UEXT-full\Microchip\TCPIP Stack\DNS.c
            DNSResolveROM   0x015254    program     extern C:\Users\Tim\Desktop\PIC-WEB-5-42-UEXT-full\Microchip\TCPIP Stack\DNS.c
            DNSIsResolved   0x01529a    program     extern C:\Users\Tim\Desktop\PIC-WEB-5-42-UEXT-full\Microchip\TCPIP Stack\DNS.c
             DNSPutString   0x01599a    program     static C:\Users\Tim\Desktop\PIC-WEB-5-42-UEXT-full\Microchip\TCPIP Stack\DNS.c
          DNSPutROMString   0x015a46    program     static C:\Users\Tim\Desktop\PIC-WEB-5-42-UEXT-full\Microchip\TCPIP Stack\DNS.c
           DNSDiscardName   0x015b12    program     static C:\Users\Tim\Desktop\PIC-WEB-5-42-UEXT-full\Microchip\TCPIP Stack\DNS.c
                   LowISR   0x015b58    program     extern C:\Users\Tim\Desktop\PIC-WEB-5-42-UEXT-full\TCPIP\Demo App\MainDemo.c
                  HighISR   0x015c12    program     extern C:\Users\Tim\Desktop\PIC-WEB-5-42-UEXT-full\TCPIP\Demo App\MainDemo.c
                     main   0x015ce4    program     extern C:\Users\Tim\Desktop\PIC-WEB-5-42-UEXT-full\TCPIP\Demo App\MainDemo.c
        ___while_lbl00006   0x015d0a    program     static                          
               __tmplbl_0   0x015d44    program     static                          
        ___while_lbl00008   0x015d7c    program     static                          
               __tmplbl_1   0x015dba    program     static                          
        ___while_lbl00009   0x015dbe    program     static                          
        ___while_lbl00010   0x015dc0    program     static                          
        ___while_lbl00011   0x015dc4    program     static                          
           ___if_lbl00012   0x015dc8    program     static                          
        ___while_lbl00007   0x015dca    program     static                          
           ___if_lbl00013   0x015dce    program     static                          
        ___while_lbl00014   0x015de8    program     static                          
               __tmplbl_2   0x015e1c    program     static                          
           ___if_lbl00016   0x015e34    program     static                          
               __tmplbl_3   0x015e82    program     static                          
           ___if_lbl00017   0x015ece    program     static                          
        ___while_lbl00015   0x015ed0    program     static                          
       ___return_lbl00005   0x015ed0    program     static                          
           DisplayIPValue   0x015ed2    program     extern C:\Users\Tim\Desktop\PIC-WEB-5-42-UEXT-full\TCPIP\Demo App\MainDemo.c
                ProcessIO   0x015f46    program     static C:\Users\Tim\Desktop\PIC-WEB-5-42-UEXT-full\TCPIP\Demo App\MainDemo.c
          InitializeBoard   0x01602c    program     static C:\Users\Tim\Desktop\PIC-WEB-5-42-UEXT-full\TCPIP\Demo App\MainDemo.c
            InitAppConfig   0x01606e    program     static C:\Users\Tim\Desktop\PIC-WEB-5-42-UEXT-full\TCPIP\Demo App\MainDemo.c
            SaveAppConfig   0x016212    program     extern C:\Users\Tim\Desktop\PIC-WEB-5-42-UEXT-full\TCPIP\Demo App\MainDemo.c
         convertToDegrees   0x01627a    program     extern C:\Users\Tim\Desktop\PIC-WEB-5-42-UEXT-full\TCPIP\Demo App\MainDemo.c
fixTempOffsetUsingPotmeter   0x01642e    program     extern C:\Users\Tim\Desktop\PIC-WEB-5-42-UEXT-full\TCPIP\Demo App\MainDemo.c
                  MACInit   0x01647e    program     extern C:\Users\Tim\Desktop\PIC-WEB-5-42-UEXT-full\Microchip\TCPIP Stack\ETH97J60.c
        ___while_lbl00001   0x016486    program     static                          
        ___while_lbl00002   0x01648c    program     static                          
       ___return_lbl00000   0x016566    program     static                          
              MACIsLinked   0x016568    program     extern C:\Users\Tim\Desktop\PIC-WEB-5-42-UEXT-full\Microchip\TCPIP Stack\ETH97J60.c
             MACIsTxReady   0x01657a    program     extern C:\Users\Tim\Desktop\PIC-WEB-5-42-UEXT-full\Microchip\TCPIP Stack\ETH97J60.c
             MACDiscardRx   0x0165ac    program     extern C:\Users\Tim\Desktop\PIC-WEB-5-42-UEXT-full\Microchip\TCPIP Stack\ETH97J60.c
         MACGetFreeRxSize   0x016618    program     extern C:\Users\Tim\Desktop\PIC-WEB-5-42-UEXT-full\Microchip\TCPIP Stack\ETH97J60.c
             MACGetHeader   0x016696    program     extern C:\Users\Tim\Desktop\PIC-WEB-5-42-UEXT-full\Microchip\TCPIP Stack\ETH97J60.c
           ___if_lbl00020   0x0166a0    program     static                          
           ___if_lbl00021   0x0166b0    program     static                          
              __tmplbl_11   0x016706    program     static                          
              __tmplbl_10   0x016708    program     static                          
               __tmplbl_9   0x016712    program     static                          
               __tmplbl_8   0x01671c    program     static                          
               __tmplbl_7   0x016726    program     static                          
               __tmplbl_6   0x016734    program     static                          
               __tmplbl_5   0x01673e    program     static                          
           ___if_lbl00027   0x016740    program     static                          
              __tmplbl_13   0x01678c    program     static                          
              __tmplbl_14   0x016792    program     static                          
              __tmplbl_12   0x01679a    program     static                          
           ___if_lbl00030   0x0167a6    program     static                          
       ___return_lbl00019   0x0167ae    program     static                          
             MACPutHeader   0x0167b0    program     extern C:\Users\Tim\Desktop\PIC-WEB-5-42-UEXT-full\Microchip\TCPIP Stack\ETH97J60.c
                 MACFlush   0x01680e    program     extern C:\Users\Tim\Desktop\PIC-WEB-5-42-UEXT-full\Microchip\TCPIP Stack\ETH97J60.c
        MACSetReadPtrInRx   0x016832    program     extern C:\Users\Tim\Desktop\PIC-WEB-5-42-UEXT-full\Microchip\TCPIP Stack\ETH97J60.c
           MACSetWritePtr   0x016882    program     extern C:\Users\Tim\Desktop\PIC-WEB-5-42-UEXT-full\Microchip\TCPIP Stack\ETH97J60.c
            MACSetReadPtr   0x01689c    program     extern C:\Users\Tim\Desktop\PIC-WEB-5-42-UEXT-full\Microchip\TCPIP Stack\ETH97J60.c
        MACCalcRxChecksum   0x0168b6    program     extern C:\Users\Tim\Desktop\PIC-WEB-5-42-UEXT-full\Microchip\TCPIP Stack\ETH97J60.c
     CalcIPBufferChecksum   0x016924    program     extern C:\Users\Tim\Desktop\PIC-WEB-5-42-UEXT-full\Microchip\TCPIP Stack\ETH97J60.c
          MACMemCopyAsync   0x016a38    program     extern C:\Users\Tim\Desktop\PIC-WEB-5-42-UEXT-full\Microchip\TCPIP Stack\ETH97J60.c
         MACIsMemCopyDone   0x016be0    program     extern C:\Users\Tim\Desktop\PIC-WEB-5-42-UEXT-full\Microchip\TCPIP Stack\ETH97J60.c
                   MACGet   0x016bec    program     extern C:\Users\Tim\Desktop\PIC-WEB-5-42-UEXT-full\Microchip\TCPIP Stack\ETH97J60.c
              MACGetArray   0x016bf0    program     extern C:\Users\Tim\Desktop\PIC-WEB-5-42-UEXT-full\Microchip\TCPIP Stack\ETH97J60.c
                   MACPut   0x016c52    program     extern C:\Users\Tim\Desktop\PIC-WEB-5-42-UEXT-full\Microchip\TCPIP Stack\ETH97J60.c
       ___return_lbl00079   0x016c5a    program     static                          
        ___while_lbl00081   0x016c5c    program     static                          
              MACPutArray   0x016c5c    program     extern C:\Users\Tim\Desktop\PIC-WEB-5-42-UEXT-full\Microchip\TCPIP Stack\ETH97J60.c
        ___while_lbl00082   0x016c8c    program     static                          
       ___return_lbl00080   0x016c8c    program     static                          
        ___while_lbl00084   0x016c8e    program     static                          
           MACPutROMArray   0x016c8e    program     extern C:\Users\Tim\Desktop\PIC-WEB-5-42-UEXT-full\Microchip\TCPIP Stack\ETH97J60.c
       ___return_lbl00083   0x016cc8    program     static                          
        ___while_lbl00085   0x016cc8    program     static                          
               ReadPHYReg   0x016cca    program     extern C:\Users\Tim\Desktop\PIC-WEB-5-42-UEXT-full\Microchip\TCPIP Stack\ETH97J60.c
        ___while_lbl00087   0x016cd8    program     static                          
        ___while_lbl00088   0x016cde    program     static                          
       ___return_lbl00086   0x016cf8    program     static                          
              WritePHYReg   0x016cfa    program     extern C:\Users\Tim\Desktop\PIC-WEB-5-42-UEXT-full\Microchip\TCPIP Stack\ETH97J60.c
        ___while_lbl00090   0x016d22    program     static                          
       ___return_lbl00089   0x016d28    program     static                          
        ___while_lbl00091   0x016d28    program     static                          
             MACPowerDown   0x016d2a    program     extern C:\Users\Tim\Desktop\PIC-WEB-5-42-UEXT-full\Microchip\TCPIP Stack\ETH97J60.c
               MACPowerUp   0x016d3c    program     extern C:\Users\Tim\Desktop\PIC-WEB-5-42-UEXT-full\Microchip\TCPIP Stack\ETH97J60.c
                 FLO0832U   0x016d4a    program     extern E:\3.46\pic18-lt\cxx-framework\src\traditional\math\cast08FP.asm
                 FLO0832S   0x016d4e    program     extern E:\3.46\pic18-lt\cxx-framework\src\traditional\math\cast08FP.asm
                jI2F08Beg   0x016d58    program     static E:\3.46\pic18-lt\cxx-framework\src\traditional\math\cast08FP.asm
                 FLO1632U   0x016d6c    program     extern E:\3.46\pic18-lt\cxx-framework\src\traditional\math\cast16FP.asm
                 FLO1632S   0x016d70    program     extern E:\3.46\pic18-lt\cxx-framework\src\traditional\math\cast16FP.asm
                jI2F16Beg   0x016d80    program     static E:\3.46\pic18-lt\cxx-framework\src\traditional\math\cast16FP.asm
                    FPS32   0x016d96    program     extern E:\3.46\pic18-lt\cxx-framework\src\traditional\math\addFP.asm
                    FPA32   0x016d98    program     extern E:\3.46\pic18-lt\cxx-framework\src\traditional\math\addFP.asm
                jBANotInf   0x016db6    program     static E:\3.46\pic18-lt\cxx-framework\src\traditional\math\addFP.asm
                 jANotInf   0x016dc0    program     static E:\3.46\pic18-lt\cxx-framework\src\traditional\math\addFP.asm
                 jBNotInf   0x016dce    program     static E:\3.46\pic18-lt\cxx-framework\src\traditional\math\addFP.asm
            jDifOrPosSign   0x016de2    program     static E:\3.46\pic18-lt\cxx-framework\src\traditional\math\addFP.asm
             jNotBothZero   0x016de6    program     static E:\3.46\pic18-lt\cxx-framework\src\traditional\math\addFP.asm
                 jAltBexp   0x016e12    program     static E:\3.46\pic18-lt\cxx-framework\src\traditional\math\addFP.asm
              jAandWsetup   0x016e24    program     static E:\3.46\pic18-lt\cxx-framework\src\traditional\math\addFP.asm
                 jANotNeg   0x016e54    program     static E:\3.46\pic18-lt\cxx-framework\src\traditional\math\addFP.asm
                 jWNotNeg   0x016e68    program     static E:\3.46\pic18-lt\cxx-framework\src\traditional\math\addFP.asm
               jShiftLoop   0x016e6e    program     static E:\3.46\pic18-lt\cxx-framework\src\traditional\math\addFP.asm
               jShiftDone   0x016e7c    program     static E:\3.46\pic18-lt\cxx-framework\src\traditional\math\addFP.asm
                jSignDone   0x016eac    program     static E:\3.46\pic18-lt\cxx-framework\src\traditional\math\addFP.asm
               jFinalSign   0x016ebc    program     static E:\3.46\pic18-lt\cxx-framework\src\traditional\math\addFP.asm
                    FPD32   0x016ec4    program     extern E:\3.46\pic18-lt\cxx-framework\src\traditional\math\divFP.asm
                 jANotInf   0x016ee2    program     static E:\3.46\pic18-lt\cxx-framework\src\traditional\math\divFP.asm
              jSignedZero   0x016eec    program     static E:\3.46\pic18-lt\cxx-framework\src\traditional\math\divFP.asm
                jANotZero   0x016ef6    program     static E:\3.46\pic18-lt\cxx-framework\src\traditional\math\divFP.asm
                    jLoop   0x016f1e    program     static E:\3.46\pic18-lt\cxx-framework\src\traditional\math\divFP.asm
                jNoAdjust   0x016f42    program     static E:\3.46\pic18-lt\cxx-framework\src\traditional\math\divFP.asm
                    jNext   0x016f44    program     static E:\3.46\pic18-lt\cxx-framework\src\traditional\math\divFP.asm
                    FPM32   0x016f6a    program     extern E:\3.46\pic18-lt\cxx-framework\src\traditional\math\mulFP.asm
                 jANotInf   0x016f88    program     static E:\3.46\pic18-lt\cxx-framework\src\traditional\math\mulFP.asm
              jBothFinite   0x016f96    program     static E:\3.46\pic18-lt\cxx-framework\src\traditional\math\mulFP.asm
                jHaveZero   0x016f9e    program     static E:\3.46\pic18-lt\cxx-framework\src\traditional\math\mulFP.asm
             jBothNotZero   0x016fa2    program     static E:\3.46\pic18-lt\cxx-framework\src\traditional\math\mulFP.asm
                 FXD1616S   0x017044    program     extern E:\3.46\pic18-lt\cxx-framework\src\traditional\math\fxd1616s.asm
                  DA1616S   0x017056    program     static E:\3.46\pic18-lt\cxx-framework\src\traditional\math\fxd1616s.asm
                   D1616S   0x017066    program     static E:\3.46\pic18-lt\cxx-framework\src\traditional\math\fxd1616s.asm
                 D1616SOK   0x017070    program     static E:\3.46\pic18-lt\cxx-framework\src\traditional\math\fxd1616s.asm
                D1616SNEG   0x017074    program     static E:\3.46\pic18-lt\cxx-framework\src\traditional\math\fxd1616s.asm
                  D1616SX   0x017086    program     static E:\3.46\pic18-lt\cxx-framework\src\traditional\math\fxd1616s.asm
                 FXD3232S   0x017090    program     extern E:\3.46\pic18-lt\cxx-framework\src\traditional\math\fxd3232s.asm
                  DA3232S   0x0170aa    program     static E:\3.46\pic18-lt\cxx-framework\src\traditional\math\fxd3232s.asm
                   D3232S   0x0170c0    program     static E:\3.46\pic18-lt\cxx-framework\src\traditional\math\fxd3232s.asm
                 D3232SOK   0x0170ca    program     static E:\3.46\pic18-lt\cxx-framework\src\traditional\math\fxd3232s.asm
                D3232SNEG   0x0170ce    program     static E:\3.46\pic18-lt\cxx-framework\src\traditional\math\fxd3232s.asm
                  D3232SX   0x0170ee    program     static E:\3.46\pic18-lt\cxx-framework\src\traditional\math\fxd3232s.asm
                 FXM1616S   0x0170f8    program     extern E:\3.46\pic18-lt\cxx-framework\src\traditional\math\fxm1616s.asm
               TSIGN1616A   0x017144    program     static E:\3.46\pic18-lt\cxx-framework\src\traditional\math\fxm1616s.asm
                 FXM1616U   0x017152    program     extern E:\3.46\pic18-lt\cxx-framework\src\traditional\math\fxm1616u.asm
                 FXM2424U   0x01718e    program     extern E:\3.46\pic18-lt\cxx-framework\src\traditional\math\fxm2424u.asm
                  INT3216   0x017220    program     extern E:\3.46\pic18-lt\cxx-framework\src\traditional\math\castFP16.asm
                     jMax   0x017230    program     static E:\3.46\pic18-lt\cxx-framework\src\traditional\math\castFP16.asm
                  jMaxPos   0x017234    program     static E:\3.46\pic18-lt\cxx-framework\src\traditional\math\castFP16.asm
                  jMaxNeg   0x01723e    program     static E:\3.46\pic18-lt\cxx-framework\src\traditional\math\castFP16.asm
                    jZero   0x017246    program     static E:\3.46\pic18-lt\cxx-framework\src\traditional\math\castFP16.asm
                  jNotInf   0x01724c    program     static E:\3.46\pic18-lt\cxx-framework\src\traditional\math\castFP16.asm
                    jLoop   0x01725c    program     static E:\3.46\pic18-lt\cxx-framework\src\traditional\math\castFP16.asm
                jLoopExit   0x01726c    program     static E:\3.46\pic18-lt\cxx-framework\src\traditional\math\castFP16.asm
                    jExit   0x01727c    program     static E:\3.46\pic18-lt\cxx-framework\src\traditional\math\castFP16.asm
            __FpReturnNaN   0x01727e    program     extern E:\3.46\pic18-lt\cxx-framework\src\traditional\math\packFP.asm
                 __FpExit   0x01728a    program     extern E:\3.46\pic18-lt\cxx-framework\src\traditional\math\packFP.asm
        __FpReturnSignInf   0x01728c    program     extern E:\3.46\pic18-lt\cxx-framework\src\traditional\math\packFP.asm
         __FpReturnNegInf   0x017290    program     extern E:\3.46\pic18-lt\cxx-framework\src\traditional\math\packFP.asm
         __FpReturnPosInf   0x017296    program     extern E:\3.46\pic18-lt\cxx-framework\src\traditional\math\packFP.asm
           jReturnPosInf0   0x01729a    program     static E:\3.46\pic18-lt\cxx-framework\src\traditional\math\packFP.asm
               jZero1and2   0x01729e    program     static E:\3.46\pic18-lt\cxx-framework\src\traditional\math\packFP.asm
       __FpReturnSignZero   0x0172a4    program     extern E:\3.46\pic18-lt\cxx-framework\src\traditional\math\packFP.asm
        __FpReturnNegZero   0x0172a8    program     extern E:\3.46\pic18-lt\cxx-framework\src\traditional\math\packFP.asm
        __FpReturnPosZero   0x0172b0    program     extern E:\3.46\pic18-lt\cxx-framework\src\traditional\math\packFP.asm
                 __FpPack   0x0172b6    program     extern E:\3.46\pic18-lt\cxx-framework\src\traditional\math\packFP.asm
                  jPkLoop   0x0172c4    program     static E:\3.46\pic18-lt\cxx-framework\src\traditional\math\packFP.asm
             jPkShiftDone   0x0172e0    program     static E:\3.46\pic18-lt\cxx-framework\src\traditional\math\packFP.asm
               jPkRoundIt   0x0172f6    program     static E:\3.46\pic18-lt\cxx-framework\src\traditional\math\packFP.asm
              __FpReturnW   0x01730e    program     extern E:\3.46\pic18-lt\cxx-framework\src\traditional\math\packFP.asm
             jPkRoundDone   0x01730e    program     static E:\3.46\pic18-lt\cxx-framework\src\traditional\math\packFP.asm
              __FpUnPackA   0x01732e    program     extern E:\3.46\pic18-lt\cxx-framework\src\traditional\math\UnpackFP.asm
                  jUnpkA1   0x017338    program     static E:\3.46\pic18-lt\cxx-framework\src\traditional\math\UnpackFP.asm
                 jUnpkANZ   0x017346    program     static E:\3.46\pic18-lt\cxx-framework\src\traditional\math\UnpackFP.asm
                  jUnpkA2   0x017350    program     static E:\3.46\pic18-lt\cxx-framework\src\traditional\math\UnpackFP.asm
                 jUnpkNaN   0x01735a    program     static E:\3.46\pic18-lt\cxx-framework\src\traditional\math\UnpackFP.asm
              __FpUnPackB   0x01735e    program     extern E:\3.46\pic18-lt\cxx-framework\src\traditional\math\UnpackFP.asm
                  jUnpkB1   0x017368    program     static E:\3.46\pic18-lt\cxx-framework\src\traditional\math\UnpackFP.asm
                 jUnpkBNZ   0x017376    program     static E:\3.46\pic18-lt\cxx-framework\src\traditional\math\UnpackFP.asm
                  jUnpkB2   0x017380    program     static E:\3.46\pic18-lt\cxx-framework\src\traditional\math\UnpackFP.asm
                  TAGTB32   0x01738a    program     extern E:\3.46\pic18-lt\cxx-framework\src\traditional\math\gtFP.asm
              __FpCompare   0x01739c    program     extern E:\3.46\pic18-lt\cxx-framework\src\traditional\math\compFP.asm
             jBothNotZero   0x0173ba    program     static E:\3.46\pic18-lt\cxx-framework\src\traditional\math\compFP.asm
                 jSignsEQ   0x0173be    program     static E:\3.46\pic18-lt\cxx-framework\src\traditional\math\compFP.asm
                      jEQ   0x0173d6    program     static E:\3.46\pic18-lt\cxx-framework\src\traditional\math\compFP.asm
                      jNE   0x0173da    program     static E:\3.46\pic18-lt\cxx-framework\src\traditional\math\compFP.asm
                    jExch   0x0173e2    program     static E:\3.46\pic18-lt\cxx-framework\src\traditional\math\compFP.asm
                  jNoExch   0x017402    program     static E:\3.46\pic18-lt\cxx-framework\src\traditional\math\compFP.asm
                   jFinal   0x01740c    program     static E:\3.46\pic18-lt\cxx-framework\src\traditional\math\compFP.asm
                  jAisNeg   0x017418    program     static E:\3.46\pic18-lt\cxx-framework\src\traditional\math\compFP.asm
                   jShift   0x01741e    program     static E:\3.46\pic18-lt\cxx-framework\src\traditional\math\compFP.asm
                   jExpEQ   0x017428    program     static E:\3.46\pic18-lt\cxx-framework\src\traditional\math\compFP.asm
                  jRotate   0x017434    program     static E:\3.46\pic18-lt\cxx-framework\src\traditional\math\compFP.asm
                  INT3232   0x017446    program     extern E:\3.46\pic18-lt\cxx-framework\src\traditional\math\castFP32.asm
                     jMax   0x017456    program     static E:\3.46\pic18-lt\cxx-framework\src\traditional\math\castFP32.asm
                  jMaxPos   0x01745a    program     static E:\3.46\pic18-lt\cxx-framework\src\traditional\math\castFP32.asm
                   jWr123   0x017460    program     static E:\3.46\pic18-lt\cxx-framework\src\traditional\math\castFP32.asm
                  jMaxNeg   0x017468    program     static E:\3.46\pic18-lt\cxx-framework\src\traditional\math\castFP32.asm
                    jZero   0x01746e    program     static E:\3.46\pic18-lt\cxx-framework\src\traditional\math\castFP32.asm
                  jWrZ123   0x017470    program     static E:\3.46\pic18-lt\cxx-framework\src\traditional\math\castFP32.asm
                  jNotInf   0x017474    program     static E:\3.46\pic18-lt\cxx-framework\src\traditional\math\castFP32.asm
                    jLoop   0x017486    program     static E:\3.46\pic18-lt\cxx-framework\src\traditional\math\castFP32.asm
                jLoopExit   0x01749a    program     static E:\3.46\pic18-lt\cxx-framework\src\traditional\math\castFP32.asm
                    jExit   0x0174b2    program     static E:\3.46\pic18-lt\cxx-framework\src\traditional\math\castFP32.asm
                  TAEQB32   0x0174b4    program     extern E:\3.46\pic18-lt\cxx-framework\src\traditional\math\eqFP.asm
                  TALTB32   0x0174c2    program     extern E:\3.46\pic18-lt\cxx-framework\src\traditional\math\ltFP.asm
               AutoIPInit   0x0174d4    program     extern C:\Users\Tim\Desktop\PIC-WEB-5-42-UEXT-full\Microchip\TCPIP Stack\AutoIP.c
       AutoIPIsConfigured   0x0174ec    program     extern C:\Users\Tim\Desktop\PIC-WEB-5-42-UEXT-full\Microchip\TCPIP Stack\AutoIP.c
 AutoIPConfigIsInProgress   0x0174f8    program     extern C:\Users\Tim\Desktop\PIC-WEB-5-42-UEXT-full\Microchip\TCPIP Stack\AutoIP.c
              AutoIPTasks   0x017504    program     extern C:\Users\Tim\Desktop\PIC-WEB-5-42-UEXT-full\Microchip\TCPIP Stack\AutoIP.c
           AutoIPConflict   0x017b2a    program     extern C:\Users\Tim\Desktop\PIC-WEB-5-42-UEXT-full\Microchip\TCPIP Stack\AutoIP.c
            AutoIPDisable   0x017bca    program     extern C:\Users\Tim\Desktop\PIC-WEB-5-42-UEXT-full\Microchip\TCPIP Stack\AutoIP.c
             AutoIPEnable   0x017bfc    program     extern C:\Users\Tim\Desktop\PIC-WEB-5-42-UEXT-full\Microchip\TCPIP Stack\AutoIP.c
         AutoIPIsDisabled   0x017c06    program     extern C:\Users\Tim\Desktop\PIC-WEB-5-42-UEXT-full\Microchip\TCPIP Stack\AutoIP.c
           AutoIPRandSeed   0x017c10    program     extern C:\Users\Tim\Desktop\PIC-WEB-5-42-UEXT-full\Microchip\TCPIP Stack\AutoIP.c
               AutoIPRand   0x017c22    program     extern C:\Users\Tim\Desktop\PIC-WEB-5-42-UEXT-full\Microchip\TCPIP Stack\AutoIP.c
                      exp   0x017c5a    program     extern E:\3.46\pic18-lt\cxx-framework\src\traditional\stdclib\exp.c
                   __pa_0   0x0180ea    program     static E:\3.46\pic18-lt\cxx-framework\src\traditional\stdclib\exp.c
                   __pa_1   0x0180f2    program     static E:\3.46\pic18-lt\cxx-framework\src\traditional\stdclib\exp.c
                   __pa_2   0x018112    program     static E:\3.46\pic18-lt\cxx-framework\src\traditional\stdclib\exp.c
                   __pa_3   0x01812c    program     static E:\3.46\pic18-lt\cxx-framework\src\traditional\stdclib\exp.c
                   __pa_4   0x01813c    program     static E:\3.46\pic18-lt\cxx-framework\src\traditional\stdclib\exp.c
                   __pa_5   0x01814e    program     static E:\3.46\pic18-lt\cxx-framework\src\traditional\stdclib\exp.c
                   __pa_6   0x018164    program     static E:\3.46\pic18-lt\cxx-framework\src\traditional\stdclib\exp.c
                   __pa_7   0x018182    program     static E:\3.46\pic18-lt\cxx-framework\src\traditional\stdclib\exp.c
                   __pa_8   0x01819e    program     static E:\3.46\pic18-lt\cxx-framework\src\traditional\stdclib\exp.c
                   __pa_9   0x0181bc    program     static E:\3.46\pic18-lt\cxx-framework\src\traditional\stdclib\exp.c
                  __pa_10   0x0181d0    program     static E:\3.46\pic18-lt\cxx-framework\src\traditional\stdclib\exp.c
                  __pa_11   0x0181e2    program     static E:\3.46\pic18-lt\cxx-framework\src\traditional\stdclib\exp.c
                  __pa_12   0x0181f4    program     static E:\3.46\pic18-lt\cxx-framework\src\traditional\stdclib\exp.c
                  __pa_13   0x018200    program     static E:\3.46\pic18-lt\cxx-framework\src\traditional\stdclib\exp.c
                  __pa_14   0x01820e    program     static E:\3.46\pic18-lt\cxx-framework\src\traditional\stdclib\exp.c
                  __pa_15   0x018218    program     static E:\3.46\pic18-lt\cxx-framework\src\traditional\stdclib\exp.c
       TCPPerformanceTask   0x018220    program     extern C:\Users\Tim\Desktop\PIC-WEB-5-42-UEXT-full\Microchip\TCPIP Stack\TCPPerformanceTest.c
     TCPTXPerformanceTask   0x018226    program     extern C:\Users\Tim\Desktop\PIC-WEB-5-42-UEXT-full\Microchip\TCPIP Stack\TCPPerformanceTest.c
     TCPRXPerformanceTask   0x018534    program     extern C:\Users\Tim\Desktop\PIC-WEB-5-42-UEXT-full\Microchip\TCPIP Stack\TCPPerformanceTest.c
             DoUARTConfig   0x01876e    program     extern C:\Users\Tim\Desktop\PIC-WEB-5-42-UEXT-full\TCPIP\Demo App\UARTConfig.c
             DownloadMPFS   0x018b20    program     static C:\Users\Tim\Desktop\PIC-WEB-5-42-UEXT-full\TCPIP\Demo App\UARTConfig.c
     ConvertArrayToString   0x018ca6    program     extern C:\Users\Tim\Desktop\PIC-WEB-5-42-UEXT-full\TCPIP\Demo App\Olimex_Demo_Files\Misc_Functions.c
    Convert_String_to_Int   0x018d6a    program     extern C:\Users\Tim\Desktop\PIC-WEB-5-42-UEXT-full\TCPIP\Demo App\Olimex_Demo_Files\Misc_Functions.c
                      log   0x0191aa    program     extern E:\3.46\pic18-lt\cxx-framework\src\traditional\stdclib\log.c
                   __pa_0   0x019570    program     static E:\3.46\pic18-lt\cxx-framework\src\traditional\stdclib\log.c
                   __pa_1   0x01957c    program     static E:\3.46\pic18-lt\cxx-framework\src\traditional\stdclib\log.c
                   __pa_2   0x01958e    program     static E:\3.46\pic18-lt\cxx-framework\src\traditional\stdclib\log.c
                   __pa_3   0x0195aa    program     static E:\3.46\pic18-lt\cxx-framework\src\traditional\stdclib\log.c
                   __pa_4   0x0195b0    program     static E:\3.46\pic18-lt\cxx-framework\src\traditional\stdclib\log.c
                   __pa_5   0x0195ba    program     static E:\3.46\pic18-lt\cxx-framework\src\traditional\stdclib\log.c
                   __pa_6   0x0195d8    program     static E:\3.46\pic18-lt\cxx-framework\src\traditional\stdclib\log.c
                   __pa_7   0x0195f2    program     static E:\3.46\pic18-lt\cxx-framework\src\traditional\stdclib\log.c
                   __pa_8   0x01960c    program     static E:\3.46\pic18-lt\cxx-framework\src\traditional\stdclib\log.c
                   __pa_9   0x019622    program     static E:\3.46\pic18-lt\cxx-framework\src\traditional\stdclib\log.c
                  __pa_10   0x019632    program     static E:\3.46\pic18-lt\cxx-framework\src\traditional\stdclib\log.c
                  __pa_11   0x01963a    program     static E:\3.46\pic18-lt\cxx-framework\src\traditional\stdclib\log.c
                  __pa_12   0x01964c    program     static E:\3.46\pic18-lt\cxx-framework\src\traditional\stdclib\log.c
                  __pa_13   0x019666    program     static E:\3.46\pic18-lt\cxx-framework\src\traditional\stdclib\log.c
                  __pa_14   0x019678    program     static E:\3.46\pic18-lt\cxx-framework\src\traditional\stdclib\log.c
                  __pa_15   0x01968a    program     static E:\3.46\pic18-lt\cxx-framework\src\traditional\stdclib\log.c
                  __pa_16   0x019696    program     static E:\3.46\pic18-lt\cxx-framework\src\traditional\stdclib\log.c
                     atoi   0x0196a4    program     extern E:\3.46\pic18-lt\cxx-framework\src\traditional\stdclib\atoi.asm
                  jSkipWS   0x0196d2    program     static E:\3.46\pic18-lt\cxx-framework\src\traditional\stdclib\atoi.asm
                 jSkipWS1   0x0196e4    program     static E:\3.46\pic18-lt\cxx-framework\src\traditional\stdclib\atoi.asm
                 jTstSign   0x0196e8    program     static E:\3.46\pic18-lt\cxx-framework\src\traditional\stdclib\atoi.asm
                jTstSign1   0x0196f4    program     static E:\3.46\pic18-lt\cxx-framework\src\traditional\stdclib\atoi.asm
                jTstSign2   0x0196fa    program     static E:\3.46\pic18-lt\cxx-framework\src\traditional\stdclib\atoi.asm
                    jLoop   0x0196fc    program     static E:\3.46\pic18-lt\cxx-framework\src\traditional\stdclib\atoi.asm
                jTstSign3   0x0196fc    program     static E:\3.46\pic18-lt\cxx-framework\src\traditional\stdclib\atoi.asm
                 jEndLoop   0x01974a    program     static E:\3.46\pic18-lt\cxx-framework\src\traditional\stdclib\atoi.asm
                     jEnd   0x019762    program     static E:\3.46\pic18-lt\cxx-framework\src\traditional\stdclib\atoi.asm
                     atol   0x01978e    program     extern E:\3.46\pic18-lt\cxx-framework\src\traditional\stdclib\atol.asm
                  jSkipWS   0x0197c4    program     static E:\3.46\pic18-lt\cxx-framework\src\traditional\stdclib\atol.asm
                 jSkipWS1   0x0197d6    program     static E:\3.46\pic18-lt\cxx-framework\src\traditional\stdclib\atol.asm
                 jTstSign   0x0197da    program     static E:\3.46\pic18-lt\cxx-framework\src\traditional\stdclib\atol.asm
                jTstSign1   0x0197e6    program     static E:\3.46\pic18-lt\cxx-framework\src\traditional\stdclib\atol.asm
                jTstSign2   0x0197ec    program     static E:\3.46\pic18-lt\cxx-framework\src\traditional\stdclib\atol.asm
                jTstSign3   0x0197ee    program     static E:\3.46\pic18-lt\cxx-framework\src\traditional\stdclib\atol.asm
                    jLoop   0x0197ee    program     static E:\3.46\pic18-lt\cxx-framework\src\traditional\stdclib\atol.asm
                 jEndLoop   0x01987c    program     static E:\3.46\pic18-lt\cxx-framework\src\traditional\stdclib\atol.asm
                     jEnd   0x0198ac    program     static E:\3.46\pic18-lt\cxx-framework\src\traditional\stdclib\atol.asm
                  _14jEnd   0x0198ac    program     static E:\3.46\pic18-lt\cxx-framework\src\traditional\stdclib\atol.asm
                     itoa   0x0198e4    program     extern E:\3.46\pic18-lt\cxx-framework\src\traditional\stdclib\itoa.asm
                jTstSign1   0x019910    program     static E:\3.46\pic18-lt\cxx-framework\src\traditional\stdclib\itoa.asm
                     jDo5   0x01995a    program     static E:\3.46\pic18-lt\cxx-framework\src\traditional\stdclib\itoa.asm
                     jDo4   0x01995e    program     static E:\3.46\pic18-lt\cxx-framework\src\traditional\stdclib\itoa.asm
                     jDo3   0x019962    program     static E:\3.46\pic18-lt\cxx-framework\src\traditional\stdclib\itoa.asm
                     jDo2   0x019966    program     static E:\3.46\pic18-lt\cxx-framework\src\traditional\stdclib\itoa.asm
                     jDo1   0x01996a    program     static E:\3.46\pic18-lt\cxx-framework\src\traditional\stdclib\itoa.asm
                 TstUpper   0x01999e    program     static E:\3.46\pic18-lt\cxx-framework\src\traditional\stdclib\itoa.asm
                 TstLower   0x0199a4    program     static E:\3.46\pic18-lt\cxx-framework\src\traditional\stdclib\itoa.asm
                jTstLowZ1   0x0199ae    program     static E:\3.46\pic18-lt\cxx-framework\src\traditional\stdclib\itoa.asm
                ProcUpper   0x0199b0    program     static E:\3.46\pic18-lt\cxx-framework\src\traditional\stdclib\itoa.asm
                ProcLower   0x0199ba    program     static E:\3.46\pic18-lt\cxx-framework\src\traditional\stdclib\itoa.asm
                   itoBCD   0x0199c4    program     extern E:\3.46\pic18-lt\cxx-framework\src\traditional\stdclib\itobcd.asm
                    jLoop   0x0199dc    program     static E:\3.46\pic18-lt\cxx-framework\src\traditional\stdclib\itobcd.asm
                     jEnd   0x019a02    program     static E:\3.46\pic18-lt\cxx-framework\src\traditional\stdclib\itobcd.asm
                  OneByte   0x019a06    program     static E:\3.46\pic18-lt\cxx-framework\src\traditional\stdclib\itobcd.asm
                    ultoa   0x019a18    program     extern E:\3.46\pic18-lt\cxx-framework\src\traditional\stdclib\ultoa.asm
                    jDo10   0x019aa4    program     static E:\3.46\pic18-lt\cxx-framework\src\traditional\stdclib\ultoa.asm
                     jDo9   0x019aa8    program     static E:\3.46\pic18-lt\cxx-framework\src\traditional\stdclib\ultoa.asm
                     jDo8   0x019aac    program     static E:\3.46\pic18-lt\cxx-framework\src\traditional\stdclib\ultoa.asm
                     jDo7   0x019ab0    program     static E:\3.46\pic18-lt\cxx-framework\src\traditional\stdclib\ultoa.asm
                     jDo6   0x019ab4    program     static E:\3.46\pic18-lt\cxx-framework\src\traditional\stdclib\ultoa.asm
                     jDo5   0x019ab8    program     static E:\3.46\pic18-lt\cxx-framework\src\traditional\stdclib\ultoa.asm
                     jDo4   0x019abc    program     static E:\3.46\pic18-lt\cxx-framework\src\traditional\stdclib\ultoa.asm
                     jDo3   0x019ac0    program     static E:\3.46\pic18-lt\cxx-framework\src\traditional\stdclib\ultoa.asm
                     jDo2   0x019ac4    program     static E:\3.46\pic18-lt\cxx-framework\src\traditional\stdclib\ultoa.asm
                     jDo1   0x019ac8    program     static E:\3.46\pic18-lt\cxx-framework\src\traditional\stdclib\ultoa.asm
                 TstUpper   0x019afc    program     static E:\3.46\pic18-lt\cxx-framework\src\traditional\stdclib\ultoa.asm
                 TstLower   0x019b02    program     static E:\3.46\pic18-lt\cxx-framework\src\traditional\stdclib\ultoa.asm
                jTstLowZ1   0x019b0c    program     static E:\3.46\pic18-lt\cxx-framework\src\traditional\stdclib\ultoa.asm
                ProcUpper   0x019b0e    program     static E:\3.46\pic18-lt\cxx-framework\src\traditional\stdclib\ultoa.asm
                ProcLower   0x019b18    program     static E:\3.46\pic18-lt\cxx-framework\src\traditional\stdclib\ultoa.asm
                   ltoBCD   0x019b22    program     extern E:\3.46\pic18-lt\cxx-framework\src\traditional\stdclib\ltobcd.asm
                    jLoop   0x019b3e    program     static E:\3.46\pic18-lt\cxx-framework\src\traditional\stdclib\ltobcd.asm
                     jEnd   0x019b7c    program     static E:\3.46\pic18-lt\cxx-framework\src\traditional\stdclib\ltobcd.asm
                  OneByte   0x019b80    program     static E:\3.46\pic18-lt\cxx-framework\src\traditional\stdclib\ltobcd.asm
               ARPSendPkt   0x019b92    program     extern C:\Users\Tim\Desktop\PIC-WEB-5-42-UEXT-full\Microchip\TCPIP Stack\ARP.c
                   ARPPut   0x019bd6    program     static C:\Users\Tim\Desktop\PIC-WEB-5-42-UEXT-full\Microchip\TCPIP Stack\ARP.c
                  ARPInit   0x019cde    program     extern C:\Users\Tim\Desktop\PIC-WEB-5-42-UEXT-full\Microchip\TCPIP Stack\ARP.c
               ARPProcess   0x019cf6    program     extern C:\Users\Tim\Desktop\PIC-WEB-5-42-UEXT-full\Microchip\TCPIP Stack\ARP.c
               ARPResolve   0x019ea4    program     extern C:\Users\Tim\Desktop\PIC-WEB-5-42-UEXT-full\Microchip\TCPIP Stack\ARP.c
            ARPIsResolved   0x019f2c    program     extern C:\Users\Tim\Desktop\PIC-WEB-5-42-UEXT-full\Microchip\TCPIP Stack\ARP.c
            SwapARPPacket   0x019fd0    program     extern C:\Users\Tim\Desktop\PIC-WEB-5-42-UEXT-full\Microchip\TCPIP Stack\ARP.c
              SPITransfer   0x01a06e    program     extern C:\Users\Tim\Desktop\PIC-WEB-5-42-UEXT-full\Microchip\TCPIP Stack\SPIFlash.c
             SPIFlashInit   0x01a07c    program     extern C:\Users\Tim\Desktop\PIC-WEB-5-42-UEXT-full\Microchip\TCPIP Stack\SPIFlash.c
        SPIFlashBeginRead   0x01a098    program     extern C:\Users\Tim\Desktop\PIC-WEB-5-42-UEXT-full\Microchip\TCPIP Stack\SPIFlash.c
             SPIFlashRead   0x01a0b4    program     extern C:\Users\Tim\Desktop\PIC-WEB-5-42-UEXT-full\Microchip\TCPIP Stack\SPIFlash.c
        SPIFlashReadArray   0x01a10e    program     extern C:\Users\Tim\Desktop\PIC-WEB-5-42-UEXT-full\Microchip\TCPIP Stack\SPIFlash.c
       SPIFlashBeginWrite   0x01a1fa    program     extern C:\Users\Tim\Desktop\PIC-WEB-5-42-UEXT-full\Microchip\TCPIP Stack\SPIFlash.c
            SPIFlashWrite   0x01a21a    program     extern C:\Users\Tim\Desktop\PIC-WEB-5-42-UEXT-full\Microchip\TCPIP Stack\SPIFlash.c
       SPIFlashWriteArray   0x01a2c4    program     extern C:\Users\Tim\Desktop\PIC-WEB-5-42-UEXT-full\Microchip\TCPIP Stack\SPIFlash.c
         SPIFlashEndWrite   0x01a2f4    program     extern C:\Users\Tim\Desktop\PIC-WEB-5-42-UEXT-full\Microchip\TCPIP Stack\SPIFlash.c
           SPIFlashIsBusy   0x01a360    program     extern C:\Users\Tim\Desktop\PIC-WEB-5-42-UEXT-full\Microchip\TCPIP Stack\SPIFlash.c
  WriteBufferToMainMemory   0x01a38a    program     extern C:\Users\Tim\Desktop\PIC-WEB-5-42-UEXT-full\Microchip\TCPIP Stack\SPIFlash.c
 ReadBufferFromMainMemory   0x01a3fe    program     extern C:\Users\Tim\Desktop\PIC-WEB-5-42-UEXT-full\Microchip\TCPIP Stack\SPIFlash.c
             ByteToBuffer   0x01a46c    program     extern C:\Users\Tim\Desktop\PIC-WEB-5-42-UEXT-full\Microchip\TCPIP Stack\SPIFlash.c
                 NBNSTask   0x01a4d8    program     extern C:\Users\Tim\Desktop\PIC-WEB-5-42-UEXT-full\Microchip\TCPIP Stack\NBNS.c
              NBNSPutName   0x01a83e    program     static C:\Users\Tim\Desktop\PIC-WEB-5-42-UEXT-full\Microchip\TCPIP Stack\NBNS.c
              NBNSGetName   0x01a894    program     static C:\Users\Tim\Desktop\PIC-WEB-5-42-UEXT-full\Microchip\TCPIP Stack\NBNS.c
    BerkeleyUDPClientDemo   0x01a93a    program     extern C:\Users\Tim\Desktop\PIC-WEB-5-42-UEXT-full\TCPIP\Demo App\BerkeleyUDPClientDemo.c
BerkeleySNTPGetUTCSeconds   0x01acb2    program     extern C:\Users\Tim\Desktop\PIC-WEB-5-42-UEXT-full\TCPIP\Demo App\BerkeleyUDPClientDemo.c
              ICMPProcess   0x01ad5a    program     extern C:\Users\Tim\Desktop\PIC-WEB-5-42-UEXT-full\Microchip\TCPIP Stack\ICMP.c
             ICMPSendPing   0x01aeb4    program     extern C:\Users\Tim\Desktop\PIC-WEB-5-42-UEXT-full\Microchip\TCPIP Stack\ICMP.c
       ICMPSendPingToHost   0x01aee4    program     extern C:\Users\Tim\Desktop\PIC-WEB-5-42-UEXT-full\Microchip\TCPIP Stack\ICMP.c
    ICMPSendPingToHostROM   0x01af10    program     extern C:\Users\Tim\Desktop\PIC-WEB-5-42-UEXT-full\Microchip\TCPIP Stack\ICMP.c
             ICMPGetReply   0x01af40    program     extern C:\Users\Tim\Desktop\PIC-WEB-5-42-UEXT-full\Microchip\TCPIP Stack\ICMP.c
           ICMPBeginUsage   0x01b120    program     extern C:\Users\Tim\Desktop\PIC-WEB-5-42-UEXT-full\Microchip\TCPIP Stack\ICMP.c
             ICMPEndUsage   0x01b12a    program     extern C:\Users\Tim\Desktop\PIC-WEB-5-42-UEXT-full\Microchip\TCPIP Stack\ICMP.c
                   memcmp   0x01b130    program     extern E:\3.46\pic18-lt\cxx-framework\src\traditional\stdclib\memcmp.asm
                    jLoop   0x01b150    program     static E:\3.46\pic18-lt\cxx-framework\src\traditional\stdclib\memcmp.asm
              _4jContinue   0x01b15c    program     static E:\3.46\pic18-lt\cxx-framework\src\traditional\stdclib\memcmp.asm
                   _5jEnd   0x01b166    program     static E:\3.46\pic18-lt\cxx-framework\src\traditional\stdclib\memcmp.asm
                     jEnd   0x01b16c    program     static E:\3.46\pic18-lt\cxx-framework\src\traditional\stdclib\memcmp.asm
            memcmppgm2ram   0x01b182    program     extern E:\3.46\pic18-lt\cxx-framework\src\traditional\stdclib\mcmpp2r.asm
                    jLoop   0x01b1a0    program     static E:\3.46\pic18-lt\cxx-framework\src\traditional\stdclib\mcmpp2r.asm
              _3jContinue   0x01b1ac    program     static E:\3.46\pic18-lt\cxx-framework\src\traditional\stdclib\mcmpp2r.asm
                   _4jEnd   0x01b1b6    program     static E:\3.46\pic18-lt\cxx-framework\src\traditional\stdclib\mcmpp2r.asm
                     jEnd   0x01b1be    program     static E:\3.46\pic18-lt\cxx-framework\src\traditional\stdclib\mcmpp2r.asm
                   memcpy   0x01b1c0    program     extern E:\3.46\pic18-lt\cxx-framework\src\traditional\stdclib\memcpy.asm
                    jLoop   0x01b1e8    program     static E:\3.46\pic18-lt\cxx-framework\src\traditional\stdclib\memcpy.asm
              _4jContinue   0x01b1f4    program     static E:\3.46\pic18-lt\cxx-framework\src\traditional\stdclib\memcpy.asm
                   _5jEnd   0x01b1fe    program     static E:\3.46\pic18-lt\cxx-framework\src\traditional\stdclib\memcpy.asm
                     jEnd   0x01b204    program     static E:\3.46\pic18-lt\cxx-framework\src\traditional\stdclib\memcpy.asm
            memcpypgm2ram   0x01b216    program     extern E:\3.46\pic18-lt\cxx-framework\src\traditional\stdclib\mcpyp2r.asm
                    jLoop   0x01b23c    program     static E:\3.46\pic18-lt\cxx-framework\src\traditional\stdclib\mcpyp2r.asm
              _3jContinue   0x01b248    program     static E:\3.46\pic18-lt\cxx-framework\src\traditional\stdclib\mcpyp2r.asm
                   _4jEnd   0x01b252    program     static E:\3.46\pic18-lt\cxx-framework\src\traditional\stdclib\mcpyp2r.asm
                     jEnd   0x01b25a    program     static E:\3.46\pic18-lt\cxx-framework\src\traditional\stdclib\mcpyp2r.asm
                   memset   0x01b25c    program     extern E:\3.46\pic18-lt\cxx-framework\src\traditional\stdclib\memset.asm
                    jLoop   0x01b270    program     static E:\3.46\pic18-lt\cxx-framework\src\traditional\stdclib\memset.asm
              _2jContinue   0x01b27c    program     static E:\3.46\pic18-lt\cxx-framework\src\traditional\stdclib\memset.asm
                   _3jEnd   0x01b286    program     static E:\3.46\pic18-lt\cxx-framework\src\traditional\stdclib\memset.asm
                     jEnd   0x01b28e    program     static E:\3.46\pic18-lt\cxx-framework\src\traditional\stdclib\memset.asm
                   strchr   0x01b290    program     extern E:\3.46\pic18-lt\cxx-framework\src\traditional\stdclib\strchr.asm
                    jLoop   0x01b29c    program     static E:\3.46\pic18-lt\cxx-framework\src\traditional\stdclib\strchr.asm
                   jMatch   0x01b2ae    program     static E:\3.46\pic18-lt\cxx-framework\src\traditional\stdclib\strchr.asm
                     jEnd   0x01b2b6    program     static E:\3.46\pic18-lt\cxx-framework\src\traditional\stdclib\strchr.asm
                strchrpgm   0x01b2b8    program     extern E:\3.46\pic18-lt\cxx-framework\src\traditional\stdclib\schrpgm.asm
                    jLoop   0x01b2ca    program     static E:\3.46\pic18-lt\cxx-framework\src\traditional\stdclib\schrpgm.asm
                   jMatch   0x01b2e8    program     static E:\3.46\pic18-lt\cxx-framework\src\traditional\stdclib\schrpgm.asm
                     jEnd   0x01b2fa    program     static E:\3.46\pic18-lt\cxx-framework\src\traditional\stdclib\schrpgm.asm
                   strcmp   0x01b30e    program     extern E:\3.46\pic18-lt\cxx-framework\src\traditional\stdclib\strcmp.asm
                    jLoop   0x01b32e    program     static E:\3.46\pic18-lt\cxx-framework\src\traditional\stdclib\strcmp.asm
                     jEnd   0x01b338    program     static E:\3.46\pic18-lt\cxx-framework\src\traditional\stdclib\strcmp.asm
            strcmppgm2ram   0x01b34e    program     extern E:\3.46\pic18-lt\cxx-framework\src\traditional\stdclib\scmpp2r.asm
                    jLoop   0x01b36c    program     static E:\3.46\pic18-lt\cxx-framework\src\traditional\stdclib\scmpp2r.asm
                     jEnd   0x01b378    program     static E:\3.46\pic18-lt\cxx-framework\src\traditional\stdclib\scmpp2r.asm
            strcpypgm2ram   0x01b37a    program     extern E:\3.46\pic18-lt\cxx-framework\src\traditional\stdclib\scpyp2r.asm
                    jLoop   0x01b3a0    program     static E:\3.46\pic18-lt\cxx-framework\src\traditional\stdclib\scpyp2r.asm
                     jEnd   0x01b3aa    program     static E:\3.46\pic18-lt\cxx-framework\src\traditional\stdclib\scpyp2r.asm
                   strlen   0x01b3ac    program     extern E:\3.46\pic18-lt\cxx-framework\src\traditional\stdclib\strlen.asm
                    jLoop   0x01b3bc    program     static E:\3.46\pic18-lt\cxx-framework\src\traditional\stdclib\strlen.asm
                     jEnd   0x01b3c6    program     static E:\3.46\pic18-lt\cxx-framework\src\traditional\stdclib\strlen.asm
                strlenpgm   0x01b3c8    program     extern E:\3.46\pic18-lt\cxx-framework\src\traditional\stdclib\slenpgm.asm
                    jLoop   0x01b3e6    program     static E:\3.46\pic18-lt\cxx-framework\src\traditional\stdclib\slenpgm.asm
                   _2jEnd   0x01b3fc    program     static E:\3.46\pic18-lt\cxx-framework\src\traditional\stdclib\slenpgm.asm
                     jEnd   0x01b3fe    program     static E:\3.46\pic18-lt\cxx-framework\src\traditional\stdclib\slenpgm.asm
                  strncpy   0x01b412    program     extern E:\3.46\pic18-lt\cxx-framework\src\traditional\stdclib\strncpy.asm
                    jLoop   0x01b43a    program     static E:\3.46\pic18-lt\cxx-framework\src\traditional\stdclib\strncpy.asm
              _4jContinue   0x01b446    program     static E:\3.46\pic18-lt\cxx-framework\src\traditional\stdclib\strncpy.asm
                   _5jEnd   0x01b450    program     static E:\3.46\pic18-lt\cxx-framework\src\traditional\stdclib\strncpy.asm
                     jEnd   0x01b45c    program     static E:\3.46\pic18-lt\cxx-framework\src\traditional\stdclib\strncpy.asm
             strstrrampgm   0x01b46e    program     extern E:\3.46\pic18-lt\cxx-framework\src\traditional\stdclib\sstrrp.asm
               jOuterLoop   0x01b47a    program     static E:\3.46\pic18-lt\cxx-framework\src\traditional\stdclib\sstrrp.asm
               jInnerLoop   0x01b494    program     static E:\3.46\pic18-lt\cxx-framework\src\traditional\stdclib\sstrrp.asm
                 jNoMatch   0x01b4a4    program     static E:\3.46\pic18-lt\cxx-framework\src\traditional\stdclib\sstrrp.asm
                    jNull   0x01b4ae    program     static E:\3.46\pic18-lt\cxx-framework\src\traditional\stdclib\sstrrp.asm
                jStrMatch   0x01b4b2    program     static E:\3.46\pic18-lt\cxx-framework\src\traditional\stdclib\sstrrp.asm
                   strupr   0x01b4b4    program     extern E:\3.46\pic18-lt\cxx-framework\src\traditional\stdclib\strupr.asm
                    jLoop   0x01b4c8    program     static E:\3.46\pic18-lt\cxx-framework\src\traditional\stdclib\strupr.asm
                    jSkip   0x01b4d8    program     static E:\3.46\pic18-lt\cxx-framework\src\traditional\stdclib\strupr.asm
                     jEnd   0x01b4dc    program     static E:\3.46\pic18-lt\cxx-framework\src\traditional\stdclib\strupr.asm
               SNTPClient   0x01b4de    program     extern C:\Users\Tim\Desktop\PIC-WEB-5-42-UEXT-full\Microchip\TCPIP Stack\SNTP.c
        SNTPGetUTCSeconds   0x01b762    program     extern C:\Users\Tim\Desktop\PIC-WEB-5-42-UEXT-full\Microchip\TCPIP Stack\SNTP.c
       UART2TCPBridgeInit   0x01b80a    program     extern C:\Users\Tim\Desktop\PIC-WEB-5-42-UEXT-full\Microchip\TCPIP Stack\UART2TCPBridge.c
       UART2TCPBridgeTask   0x01b822    program     extern C:\Users\Tim\Desktop\PIC-WEB-5-42-UEXT-full\Microchip\TCPIP Stack\UART2TCPBridge.c
        UART2TCPBridgeISR   0x01ba5e    program     extern C:\Users\Tim\Desktop\PIC-WEB-5-42-UEXT-full\Microchip\TCPIP Stack\UART2TCPBridge.c
                   _fchop   0x01bafc    program     extern E:\3.46\pic18-lt\cxx-framework\src\traditional\stdclib\fchop.c
                   __pa_0   0x01bd76    program     static E:\3.46\pic18-lt\cxx-framework\src\traditional\stdclib\fchop.c
                   __pa_1   0x01bd80    program     static E:\3.46\pic18-lt\cxx-framework\src\traditional\stdclib\fchop.c
              IPGetHeader   0x01bd8e    program     extern C:\Users\Tim\Desktop\PIC-WEB-5-42-UEXT-full\Microchip\TCPIP Stack\IP.c
              IPPutHeader   0x01be78    program     extern C:\Users\Tim\Desktop\PIC-WEB-5-42-UEXT-full\Microchip\TCPIP Stack\IP.c
            IPSetRxBuffer   0x01bf5e    program     extern C:\Users\Tim\Desktop\PIC-WEB-5-42-UEXT-full\Microchip\TCPIP Stack\IP.c
             SwapIPHeader   0x01bf76    program     static C:\Users\Tim\Desktop\PIC-WEB-5-42-UEXT-full\Microchip\TCPIP Stack\IP.c
                StackInit   0x01c020    program     extern C:\Users\Tim\Desktop\PIC-WEB-5-42-UEXT-full\Microchip\TCPIP Stack\StackTsk.c
                StackTask   0x01c082    program     extern C:\Users\Tim\Desktop\PIC-WEB-5-42-UEXT-full\Microchip\TCPIP Stack\StackTsk.c
        StackApplications   0x01c272    program     extern C:\Users\Tim\Desktop\PIC-WEB-5-42-UEXT-full\Microchip\TCPIP Stack\StackTsk.c
               AnnounceIP   0x01c29a    program     extern C:\Users\Tim\Desktop\PIC-WEB-5-42-UEXT-full\Microchip\TCPIP Stack\Announce.c
            DiscoveryTask   0x01c38a    program     extern C:\Users\Tim\Desktop\PIC-WEB-5-42-UEXT-full\Microchip\TCPIP Stack\Announce.c
    BerkeleyTCPServerDemo   0x01c50e    program     extern C:\Users\Tim\Desktop\PIC-WEB-5-42-UEXT-full\TCPIP\Demo App\BerkeleyTCPServerDemo.c
         GenericTCPClient   0x01c73a    program     extern C:\Users\Tim\Desktop\PIC-WEB-5-42-UEXT-full\TCPIP\Demo App\GenericTCPClient.c
    BerkeleyTCPClientDemo   0x01c962    program     extern C:\Users\Tim\Desktop\PIC-WEB-5-42-UEXT-full\TCPIP\Demo App\BerkeleyTCPClientDemo.c
                 strTitle   0x01cb3c    program     static C:\Users\Tim\Desktop\PIC-WEB-5-42-UEXT-full\Microchip\TCPIP Stack\Telnet.c
              strPassword   0x01cbc1    program     static C:\Users\Tim\Desktop\PIC-WEB-5-42-UEXT-full\Microchip\TCPIP Stack\Telnet.c
          strAccessDenied   0x01cbcf    program     static C:\Users\Tim\Desktop\PIC-WEB-5-42-UEXT-full\Microchip\TCPIP Stack\Telnet.c
         strAuthenticated   0x01cbe3    program     static C:\Users\Tim\Desktop\PIC-WEB-5-42-UEXT-full\Microchip\TCPIP Stack\Telnet.c
               strDisplay   0x01cc15    program     static C:\Users\Tim\Desktop\PIC-WEB-5-42-UEXT-full\Microchip\TCPIP Stack\Telnet.c
                strSpaces   0x01cc7e    program     static C:\Users\Tim\Desktop\PIC-WEB-5-42-UEXT-full\Microchip\TCPIP Stack\Telnet.c
               strGoodBye   0x01cc89    program     static C:\Users\Tim\Desktop\PIC-WEB-5-42-UEXT-full\Microchip\TCPIP Stack\Telnet.c
              strWrongCMD   0x01cc98    program     static C:\Users\Tim\Desktop\PIC-WEB-5-42-UEXT-full\Microchip\TCPIP Stack\Telnet.c
         GenericTCPServer   0x01cca4    program     extern C:\Users\Tim\Desktop\PIC-WEB-5-42-UEXT-full\TCPIP\Demo App\GenericTCPServer.c
             I2C_Transmit   0x01ce0c    program     extern C:\Users\Tim\Desktop\PIC-WEB-5-42-UEXT-full\TCPIP\Demo App\Olimex_Demo_Files\Custom_I2C.c
              I2C_Receive   0x01ce96    program     extern C:\Users\Tim\Desktop\PIC-WEB-5-42-UEXT-full\TCPIP\Demo App\Olimex_Demo_Files\Custom_I2C.c
                   _MD5_r   0x01cf5a    program     static C:\Users\Tim\Desktop\PIC-WEB-5-42-UEXT-full\Microchip\TCPIP Stack\Hashes.c
                   _MD5_k   0x01cf9a    program     static C:\Users\Tim\Desktop\PIC-WEB-5-42-UEXT-full\Microchip\TCPIP Stack\Hashes.c
                    ldexp   0x01d09a    program     extern E:\3.46\pic18-lt\cxx-framework\src\traditional\stdclib\ldexp.c
                   __pa_0   0x01d1c8    program     static E:\3.46\pic18-lt\cxx-framework\src\traditional\stdclib\ldexp.c
        Custom_SWStartI2C   0x01d1d2    program     extern C:\Users\Tim\Desktop\PIC-WEB-5-42-UEXT-full\TCPIP\Demo App\Olimex_Demo_Files\Custom_I2C_Low.c
         Custom_SWStopI2C   0x01d1e2    program     extern C:\Users\Tim\Desktop\PIC-WEB-5-42-UEXT-full\TCPIP\Demo App\Olimex_Demo_Files\Custom_I2C_Low.c
        Custom_SWWriteI2C   0x01d218    program     extern C:\Users\Tim\Desktop\PIC-WEB-5-42-UEXT-full\TCPIP\Demo App\Olimex_Demo_Files\Custom_I2C_Low.c
           ___do_lbl00007   0x01d226    program     static                          
         ___else_lbl00006   0x01d248    program     static                          
           ___if_lbl00005   0x01d262    program     static                          
           ___do_lbl00003   0x01d266    program     static                          
           ___do_lbl00004   0x01d26c    program     static                          
       ___return_lbl00002   0x01d27e    program     static                          
         Custom_SWReadI2C   0x01d280    program     extern C:\Users\Tim\Desktop\PIC-WEB-5-42-UEXT-full\TCPIP\Demo App\Olimex_Demo_Files\Custom_I2C_Low.c
          Custom_SWAckI2C   0x01d2c4    program     extern C:\Users\Tim\Desktop\PIC-WEB-5-42-UEXT-full\TCPIP\Demo App\Olimex_Demo_Files\Custom_I2C_Low.c
       Custom_SWNotAckI2C   0x01d2e6    program     extern C:\Users\Tim\Desktop\PIC-WEB-5-42-UEXT-full\TCPIP\Demo App\Olimex_Demo_Files\Custom_I2C_Low.c
        UART_Write_String   0x01d308    program     extern C:\Users\Tim\Desktop\PIC-WEB-5-42-UEXT-full\TCPIP\Demo App\Olimex_Demo_Files\Custom_UART.c
         UART_Write_Array   0x01d356    program     extern C:\Users\Tim\Desktop\PIC-WEB-5-42-UEXT-full\TCPIP\Demo App\Olimex_Demo_Files\Custom_UART.c
         UART_Read_String   0x01d3aa    program     extern C:\Users\Tim\Desktop\PIC-WEB-5-42-UEXT-full\TCPIP\Demo App\Olimex_Demo_Files\Custom_UART.c
          UART_Read_Array   0x01d3e6    program     extern C:\Users\Tim\Desktop\PIC-WEB-5-42-UEXT-full\TCPIP\Demo App\Olimex_Demo_Files\Custom_UART.c
               RebootTask   0x01d43a    program     extern C:\Users\Tim\Desktop\PIC-WEB-5-42-UEXT-full\Microchip\TCPIP Stack\Reboot.c
           ___if_lbl00001   0x01d466    program     static                          
           ___if_lbl00002   0x01d470    program     static                          
           ___if_lbl00003   0x01d488    program     static                          
               __tmplbl_0   0x01d4f0    program     static                          
           ___if_lbl00004   0x01d4f8    program     static                          
       ___return_lbl00000   0x01d55e    program     static                          
                    frexp   0x01d560    program     extern E:\3.46\pic18-lt\cxx-framework\src\traditional\stdclib\frexp.c
                   __pa_0   0x01d668    program     static E:\3.46\pic18-lt\cxx-framework\src\traditional\stdclib\frexp.c
                   __pa_1   0x01d676    program     static E:\3.46\pic18-lt\cxx-framework\src\traditional\stdclib\frexp.c
                _UnpkMath   0x01d684    program     extern E:\3.46\pic18-lt\cxx-framework\src\traditional\stdclib\UnpkMath.c
                   __pa_0   0x01d792    program     static E:\3.46\pic18-lt\cxx-framework\src\traditional\stdclib\UnpkMath.c
                _PackMath   0x01d7a0    program     extern E:\3.46\pic18-lt\cxx-framework\src\traditional\stdclib\PackMath.c
                   __pa_0   0x01d868    program     static E:\3.46\pic18-lt\cxx-framework\src\traditional\stdclib\PackMath.c
                   __pa_1   0x01d878    program     static E:\3.46\pic18-lt\cxx-framework\src\traditional\stdclib\PackMath.c
                   __pa_2   0x01d886    program     static E:\3.46\pic18-lt\cxx-framework\src\traditional\stdclib\PackMath.c
                   __pa_3   0x01d890    program     static E:\3.46\pic18-lt\cxx-framework\src\traditional\stdclib\PackMath.c
                   __pa_4   0x01d89e    program     static E:\3.46\pic18-lt\cxx-framework\src\traditional\stdclib\PackMath.c
                   __pa_5   0x01d8a6    program     static E:\3.46\pic18-lt\cxx-framework\src\traditional\stdclib\PackMath.c
                   __pa_6   0x01d8ae    program     static E:\3.46\pic18-lt\cxx-framework\src\traditional\stdclib\PackMath.c
           ReadStringUART   0x01d8ba    program     extern C:\Users\Tim\Desktop\PIC-WEB-5-42-UEXT-full\Microchip\TCPIP Stack\UART.c
                BusyUSART   0x01d908    program     extern C:\Users\Tim\Desktop\PIC-WEB-5-42-UEXT-full\Microchip\TCPIP Stack\UART.c
               CloseUSART   0x01d914    program     extern C:\Users\Tim\Desktop\PIC-WEB-5-42-UEXT-full\Microchip\TCPIP Stack\UART.c
             DataRdyUSART   0x01d920    program     extern C:\Users\Tim\Desktop\PIC-WEB-5-42-UEXT-full\Microchip\TCPIP Stack\UART.c
                ReadUSART   0x01d932    program     extern C:\Users\Tim\Desktop\PIC-WEB-5-42-UEXT-full\Microchip\TCPIP Stack\UART.c
               WriteUSART   0x01d936    program     extern C:\Users\Tim\Desktop\PIC-WEB-5-42-UEXT-full\Microchip\TCPIP Stack\UART.c
                getsUSART   0x01d93c    program     extern C:\Users\Tim\Desktop\PIC-WEB-5-42-UEXT-full\Microchip\TCPIP Stack\UART.c
                putsUSART   0x01d970    program     extern C:\Users\Tim\Desktop\PIC-WEB-5-42-UEXT-full\Microchip\TCPIP Stack\UART.c
               putrsUSART   0x01d99a    program     extern C:\Users\Tim\Desktop\PIC-WEB-5-42-UEXT-full\Microchip\TCPIP Stack\UART.c
                UART_Init   0x01d9d2    program     extern C:\Users\Tim\Desktop\PIC-WEB-5-42-UEXT-full\TCPIP\Demo App\Olimex_Demo_Files\Custom_UART_Low.c
             UART_Receive   0x01dac8    program     extern C:\Users\Tim\Desktop\PIC-WEB-5-42-UEXT-full\TCPIP\Demo App\Olimex_Demo_Files\Custom_UART_Low.c
            UART_Transmit   0x01dad2    program     extern C:\Users\Tim\Desktop\PIC-WEB-5-42-UEXT-full\TCPIP\Demo App\Olimex_Demo_Files\Custom_UART_Low.c
                 SMTPDemo   0x01dadc    program     extern C:\Users\Tim\Desktop\PIC-WEB-5-42-UEXT-full\TCPIP\Demo App\SMTPDemo.c
                 PingDemo   0x01dbc2    program     extern C:\Users\Tim\Desktop\PIC-WEB-5-42-UEXT-full\TCPIP\Demo App\PingDemo.c
                 TickInit   0x01dca6    program     extern C:\Users\Tim\Desktop\PIC-WEB-5-42-UEXT-full\Microchip\TCPIP Stack\Tick.c
           ___do_lbl00004   0x01dcb6    program     static                          
              GetTickCopy   0x01dcb6    program     static C:\Users\Tim\Desktop\PIC-WEB-5-42-UEXT-full\Microchip\TCPIP Stack\Tick.c
           ___do_lbl00002   0x01dcd4    program     static                          
           ___do_lbl00003   0x01dcd8    program     static                          
       ___return_lbl00001   0x01dcda    program     static                          
                  TickGet   0x01dcdc    program     extern C:\Users\Tim\Desktop\PIC-WEB-5-42-UEXT-full\Microchip\TCPIP Stack\Tick.c
            TickGetDiv256   0x01dd00    program     extern C:\Users\Tim\Desktop\PIC-WEB-5-42-UEXT-full\Microchip\TCPIP Stack\Tick.c
            TickGetDiv64K   0x01dd24    program     extern C:\Users\Tim\Desktop\PIC-WEB-5-42-UEXT-full\Microchip\TCPIP Stack\Tick.c
TickConvertToMilliseconds   0x01dd48    program     extern C:\Users\Tim\Desktop\PIC-WEB-5-42-UEXT-full\Microchip\TCPIP Stack\Tick.c
               TickUpdate   0x01dd72    program     extern C:\Users\Tim\Desktop\PIC-WEB-5-42-UEXT-full\Microchip\TCPIP Stack\Tick.c
                WriteSPI1   0x01dd86    program     extern C:\Users\Tim\Desktop\PIC-WEB-5-42-UEXT-full\TCPIP\Demo App\Olimex_Demo_Files\Custom_SPI_Low.c
                 getsSPI1   0x01dd9c    program     extern C:\Users\Tim\Desktop\PIC-WEB-5-42-UEXT-full\TCPIP\Demo App\Olimex_Demo_Files\Custom_SPI_Low.c
                CloseSPI1   0x01ddc2    program     extern C:\Users\Tim\Desktop\PIC-WEB-5-42-UEXT-full\TCPIP\Demo App\Olimex_Demo_Files\Custom_SPI_Low.c
                 putsSPI1   0x01ddc6    program     extern C:\Users\Tim\Desktop\PIC-WEB-5-42-UEXT-full\TCPIP\Demo App\Olimex_Demo_Files\Custom_SPI_Low.c
                 OpenSPI1   0x01ddee    program     extern C:\Users\Tim\Desktop\PIC-WEB-5-42-UEXT-full\TCPIP\Demo App\Olimex_Demo_Files\Custom_SPI_Low.c
              DataRdySPI1   0x01de32    program     extern C:\Users\Tim\Desktop\PIC-WEB-5-42-UEXT-full\TCPIP\Demo App\Olimex_Demo_Files\Custom_SPI_Low.c
                 ReadSPI1   0x01de38    program     extern C:\Users\Tim\Desktop\PIC-WEB-5-42-UEXT-full\TCPIP\Demo App\Olimex_Demo_Files\Custom_SPI_Low.c
                  sprintf   0x01de48    program     extern E:\3.46\pic18-lt\cxx-framework\src\traditional\stdclib\sprintf.c
                _do_cinit   0x01def4    program     extern E:\3.46\pic18-lt\cxx-framework\src\traditional\startup\c018i.c
                     test   0x01df0e    program     static                          
                copy_loop   0x01df66    program     static                          
            copy_one_byte   0x01df6c    program     static                          
             done_copying   0x01df7a    program     static                          
       ___return_lbl00002   0x01df90    program     static                          
                     done   0x01df90    program     static                          
                     putc   0x01df92    program     extern E:\3.46\pic18-lt\cxx-framework\src\traditional\stdclib\putc.c
                HTTP_CRLF   0x01e016    program     static C:\Users\Tim\Desktop\PIC-WEB-5-42-UEXT-full\Microchip\TCPIP Stack\HTTP2.c
       httpFileExtensions   0x01e019    program     static C:\Users\Tim\Desktop\PIC-WEB-5-42-UEXT-full\Microchip\TCPIP Stack\HTTP2.c
         httpContentTypes   0x01e03d    program     static C:\Users\Tim\Desktop\PIC-WEB-5-42-UEXT-full\Microchip\TCPIP Stack\HTTP2.c
      HTTPResponseHeaders   0x01e061    program     static C:\Users\Tim\Desktop\PIC-WEB-5-42-UEXT-full\Microchip\TCPIP Stack\HTTP2.c
       HTTPRequestHeaders   0x01e08b    program     static C:\Users\Tim\Desktop\PIC-WEB-5-42-UEXT-full\Microchip\TCPIP Stack\HTTP2.c
                  FXM3232   0x01e094    program     extern E:\3.46\pic18-lt\cxx-framework\src\traditional\math\fxm3232.c
       ___return_lbl00000   0x01e102    program     static                          
                     fabs   0x01e104    program     extern E:\3.46\pic18-lt\cxx-framework\src\traditional\stdclib\fabs.c
                SWReadI2C   0x01e16a    program     extern E:\3.46\pic18-lt\cxx-framework\src\pmc_common\SW_I2C\swgtci2c.c
           ___do_lbl00006   0x01e172    program     static                          
           ___if_lbl00004   0x01e19a    program     static                          
           ___if_lbl00003   0x01e19a    program     static                          
           ___if_lbl00005   0x01e1ac    program     static                          
           ___do_lbl00001   0x01e1ac    program     static                          
           ___do_lbl00002   0x01e1b2    program     static                          
       ___return_lbl00000   0x01e1c4    program     static                          
                 FXD3232U   0x01e1c6    program     extern E:\3.46\pic18-lt\cxx-framework\src\traditional\math\fxd3232u.c
                     loop   0x01e1d4    program     static                          
                   _false   0x01e208    program     static                          
       ___return_lbl00000   0x01e20c    program     static                          
           SPI_Initialize   0x01e20e    program     extern C:\Users\Tim\Desktop\PIC-WEB-5-42-UEXT-full\TCPIP\Demo App\Olimex_Demo_Files\Custom_SPI.c
             SPI_Transmit   0x01e224    program     extern C:\Users\Tim\Desktop\PIC-WEB-5-42-UEXT-full\TCPIP\Demo App\Olimex_Demo_Files\Custom_SPI.c
              SPI_Receive   0x01e236    program     extern C:\Users\Tim\Desktop\PIC-WEB-5-42-UEXT-full\TCPIP\Demo App\Olimex_Demo_Files\Custom_SPI.c
     TCPSocketInitializer   0x01e250    program     extern C:\Users\Tim\Desktop\PIC-WEB-5-42-UEXT-full\TCPIP\Demo App\Configs\TCPIP OLIMEX_PIC_WEB.h
                RemoteURL   0x01e286    program     static C:\Users\Tim\Desktop\PIC-WEB-5-42-UEXT-full\TCPIP\Demo App\GenericTCPClient.c
                 FXD1616U   0x01e2ba    program     extern E:\3.46\pic18-lt\cxx-framework\src\traditional\math\fxd1616u.c
                     loop   0x01e2c4    program     static                          
                  endloop   0x01e2e0    program     static                          
       ___return_lbl00000   0x01e2e4    program     static                          
            __zero_memory   0x01e2e6    program     extern E:\3.46\pic18-lt\cxx-framework\src\traditional\proc\p18f67j60.asm
               zero_block   0x01e300    program     static E:\3.46\pic18-lt\cxx-framework\src\traditional\proc\p18f67j60.asm
                   loop_h   0x01e300    program     static E:\3.46\pic18-lt\cxx-framework\src\traditional\proc\p18f67j60.asm
                compare_l   0x01e308    program     static E:\3.46\pic18-lt\cxx-framework\src\traditional\proc\p18f67j60.asm
                   loop_l   0x01e30a    program     static E:\3.46\pic18-lt\cxx-framework\src\traditional\proc\p18f67j60.asm
                  isdigit   0x01e312    program     extern E:\3.46\pic18-lt\cxx-framework\src\traditional\stdclib\isdigit.asm
                   jMatch   0x01e332    program     static E:\3.46\pic18-lt\cxx-framework\src\traditional\stdclib\isdigit.asm
                 jNoMatch   0x01e334    program     static E:\3.46\pic18-lt\cxx-framework\src\traditional\stdclib\isdigit.asm
              Delay1KTCYx   0x01e336    program     extern E:\3.46\pic18-lt\cxx-framework\src\traditional\delays\d1ktcyx.asm
                     D1Kx   0x01e340    program     static E:\3.46\pic18-lt\cxx-framework\src\traditional\delays\d1ktcyx.asm
                    D1K_1   0x01e342    program     static E:\3.46\pic18-lt\cxx-framework\src\traditional\delays\d1ktcyx.asm
        _D1KTCYXCODE_0010   0x01e346    program     static E:\3.46\pic18-lt\cxx-framework\src\traditional\delays\d1ktcyx.asm
        _D1KTCYXCODE_0016   0x01e34c    program     static E:\3.46\pic18-lt\cxx-framework\src\traditional\delays\d1ktcyx.asm
                 _startup   0x01e356    program     extern E:\3.46\pic18-lt\cxx-framework\src\traditional\startup\c018i.c
                     loop   0x01e366    program     static                          
       ___return_lbl00001   0x01e370    program     static                          
              _usart_putc   0x01e372    program     extern E:\3.46\pic18-lt\cxx-framework\src\pmc_common\USART\_usartpc.asm
                     loop   0x01e382    program     static E:\3.46\pic18-lt\cxx-framework\src\pmc_common\USART\_usartpc.asm
              Delay10TCYx   0x01e38e    program     extern E:\3.46\pic18-lt\cxx-framework\src\traditional\delays\d10tcyx.asm
                     D10x   0x01e396    program     static E:\3.46\pic18-lt\cxx-framework\src\traditional\delays\d10tcyx.asm
        _D10TCYXCODE_000A   0x01e398    program     static E:\3.46\pic18-lt\cxx-framework\src\traditional\delays\d10tcyx.asm
        _D10TCYXCODE_000C   0x01e39a    program     static E:\3.46\pic18-lt\cxx-framework\src\traditional\delays\d10tcyx.asm
        _D10TCYXCODE_000E   0x01e39c    program     static E:\3.46\pic18-lt\cxx-framework\src\traditional\delays\d10tcyx.asm
                    D10_1   0x01e39e    program     static E:\3.46\pic18-lt\cxx-framework\src\traditional\delays\d10tcyx.asm
                 s_digits   0x01e3a4    program     static E:\3.46\pic18-lt\cxx-framework\src\traditional\stdclib\vfprintf.c
               Clock_test   0x01e3b6    program     extern E:\3.46\pic18-lt\cxx-framework\src\pmc_common\SW_I2C\swckti2c.c
               ServerName   0x01e3c6    program     static C:\Users\Tim\Desktop\PIC-WEB-5-42-UEXT-full\TCPIP\Demo App\BerkeleyTCPClientDemo.c
     SerializedMACAddress   0x01e3d5    program     static C:\Users\Tim\Desktop\PIC-WEB-5-42-UEXT-full\TCPIP\Demo App\MainDemo.c
            HTML_UP_ARROW   0x01e3db    program     extern C:\Users\Tim\Desktop\PIC-WEB-5-42-UEXT-full\TCPIP\Demo App\CustomHTTPApp.c
          HTML_DOWN_ARROW   0x01e3de    program     extern C:\Users\Tim\Desktop\PIC-WEB-5-42-UEXT-full\TCPIP\Demo App\CustomHTTPApp.c
               _user_putc   0x01e3e2    program     extern E:\3.46\pic18-lt\cxx-framework\src\traditional\stdclib\_user_putc.c
                   __init   0x01e3e4    program     extern E:\3.46\pic18-lt\cxx-framework\src\traditional\stdclib\__init.c
               __config_0   0x01fff8    program     static C:\Users\Tim\Desktop\PIC-WEB-5-42-UEXT-full\TCPIP\Demo App\MainDemo.c
               __config_1   0x01fffa    program     static C:\Users\Tim\Desktop\PIC-WEB-5-42-UEXT-full\TCPIP\Demo App\MainDemo.c
               __config_2   0x01fffd    program     static C:\Users\Tim\Desktop\PIC-WEB-5-42-UEXT-full\TCPIP\Demo App\MainDemo.c
                  __tmp_0   0x000000       data     static C:\Users\Tim\Desktop\PIC-WEB-5-42-UEXT-full\TCPIP\Demo App\Olimex_Demo_Files\Custom_I2C_Low.c
                  __tmp_0   0x000000       data     static C:\Users\Tim\Desktop\PIC-WEB-5-42-UEXT-full\TCPIP\Demo App\UARTConfig.c
                  __tmp_0   0x000000       data     static C:\Users\Tim\Desktop\PIC-WEB-5-42-UEXT-full\Microchip\TCPIP Stack\Helpers.c
                  __tmp_0   0x000000       data     static C:\Users\Tim\Desktop\PIC-WEB-5-42-UEXT-full\TCPIP\Demo App\Olimex_Demo_Files\Custom_UART.c
                  __tmp_0   0x000000       data     static C:\Users\Tim\Desktop\PIC-WEB-5-42-UEXT-full\TCPIP\Demo App\SMTPDemo.c
                  __tmp_0   0x000000       data     static C:\Users\Tim\Desktop\PIC-WEB-5-42-UEXT-full\TCPIP\Demo App\Olimex_Demo_Files\Custom_UART_Low.c
                  __tmp_0   0x000000       data     static E:\3.46\pic18-lt\cxx-framework\src\pmc_common\SW_I2C\swgtci2c.c
                  __tmp_0   0x000000       data     static C:\Users\Tim\Desktop\PIC-WEB-5-42-UEXT-full\TCPIP\Demo App\PingDemo.c
                  __tmp_0   0x000000       data     static C:\Users\Tim\Desktop\PIC-WEB-5-42-UEXT-full\TCPIP\Demo App\GenericTCPServer.c
                  __tmp_0   0x000000       data     static C:\Users\Tim\Desktop\PIC-WEB-5-42-UEXT-full\TCPIP\Demo App\Olimex_Demo_Files\Misc_Functions.c
                  __tmp_0   0x000000       data     static C:\Users\Tim\Desktop\PIC-WEB-5-42-UEXT-full\TCPIP\Demo App\GenericTCPClient.c
                  __tmp_0   0x000000       data     static E:\3.46\pic18-lt\cxx-framework\src\traditional\stdclib\log.c
                  __tmp_0   0x000000       data     static C:\Users\Tim\Desktop\PIC-WEB-5-42-UEXT-full\Microchip\TCPIP Stack\Announce.c
                  __tmp_0   0x000000       data     static E:\3.46\pic18-lt\cxx-framework\src\traditional\stdclib\UnpkMath.c
                  __tmp_0   0x000000       data     static C:\Users\Tim\Desktop\PIC-WEB-5-42-UEXT-full\TCPIP\Demo App\BerkeleyUDPClientDemo.c
                  __tmp_0   0x000000       data     static C:\Users\Tim\Desktop\PIC-WEB-5-42-UEXT-full\Microchip\TCPIP Stack\ARP.c
                  __tmp_0   0x000000       data     static E:\3.46\pic18-lt\cxx-framework\src\traditional\stdclib\frexp.c
                  __tmp_0   0x000000       data     static C:\Users\Tim\Desktop\PIC-WEB-5-42-UEXT-full\Microchip\TCPIP Stack\AutoIP.c
                  __tmp_0   0x000000       data     static E:\3.46\pic18-lt\cxx-framework\src\traditional\stdclib\PackMath.c
                  __tmp_0   0x000000       data     static E:\3.46\pic18-lt\cxx-framework\src\traditional\stdclib\pow.c
                  __tmp_0   0x000000       data     static E:\3.46\pic18-lt\cxx-framework\src\traditional\stdclib\fchop.c
                  __tmp_0   0x000000       data     static C:\Users\Tim\Desktop\PIC-WEB-5-42-UEXT-full\Microchip\TCPIP Stack\HTTP2.c
                  __tmp_0   0x000000       data     static C:\Users\Tim\Desktop\PIC-WEB-5-42-UEXT-full\TCPIP\Demo App\BerkeleyTCPServerDemo.c
                  __tmp_0   0x000000       data     static C:\Users\Tim\Desktop\PIC-WEB-5-42-UEXT-full\Microchip\TCPIP Stack\ICMP.c
                  __tmp_0   0x000000       data     static C:\Users\Tim\Desktop\PIC-WEB-5-42-UEXT-full\Microchip\TCPIP Stack\IP.c
                  __tmp_0   0x000000       data     static E:\3.46\pic18-lt\cxx-framework\src\traditional\stdclib\exp.c
                  __tmp_0   0x000000       data     static E:\3.46\pic18-lt\cxx-framework\src\traditional\stdclib\fabs.c
                  __tmp_0   0x000000       data     static C:\Users\Tim\Desktop\PIC-WEB-5-42-UEXT-full\Microchip\TCPIP Stack\Hashes.c
                  __tmp_0   0x000000       data     static C:\Users\Tim\Desktop\PIC-WEB-5-42-UEXT-full\Microchip\TCPIP Stack\MPFS2.c
                  __tmp_0   0x000000       data     static C:\Users\Tim\Desktop\PIC-WEB-5-42-UEXT-full\Microchip\TCPIP Stack\NBNS.c
                  __tmp_0   0x000000       data     static C:\Users\Tim\Desktop\PIC-WEB-5-42-UEXT-full\Microchip\TCPIP Stack\TCP.c
                  __tmp_0   0x000000       data     static C:\Users\Tim\Desktop\PIC-WEB-5-42-UEXT-full\Microchip\TCPIP Stack\UDP.c
                  __tmp_0   0x000000       data     static C:\Users\Tim\Desktop\PIC-WEB-5-42-UEXT-full\Microchip\TCPIP Stack\ETH97J60.c
                  __tmp_0   0x000000       data     static C:\Users\Tim\Desktop\PIC-WEB-5-42-UEXT-full\Microchip\TCPIP Stack\BerkeleyAPI.c
                  __tmp_0   0x000000       data     static C:\Users\Tim\Desktop\PIC-WEB-5-42-UEXT-full\Microchip\TCPIP Stack\Reboot.c
                  __tmp_0   0x000000       data     static C:\Users\Tim\Desktop\PIC-WEB-5-42-UEXT-full\Microchip\TCPIP Stack\SMTP.c
                  __tmp_0   0x000000       data     static C:\Users\Tim\Desktop\PIC-WEB-5-42-UEXT-full\TCPIP\Demo App\BerkeleyTCPClientDemo.c
                  __tmp_0   0x000000       data     static E:\3.46\pic18-lt\cxx-framework\src\traditional\stdclib\ldexp.c
                  __tmp_0   0x000000       data     static C:\Users\Tim\Desktop\PIC-WEB-5-42-UEXT-full\Microchip\TCPIP Stack\SNTP.c
                  __tmp_0   0x000000       data     static E:\3.46\pic18-lt\cxx-framework\src\traditional\stdclib\sprintf.c
                  __tmp_0   0x000000       data     static C:\Users\Tim\Desktop\PIC-WEB-5-42-UEXT-full\TCPIP\Demo App\CustomHTTPApp.c
                  __tmp_0   0x000000       data     static C:\Users\Tim\Desktop\PIC-WEB-5-42-UEXT-full\Microchip\TCPIP Stack\DNS.c
                  __tmp_0   0x000000       data     static C:\Users\Tim\Desktop\PIC-WEB-5-42-UEXT-full\Microchip\TCPIP Stack\DHCPs.c
                  __tmp_0   0x000000       data     static C:\Users\Tim\Desktop\PIC-WEB-5-42-UEXT-full\Microchip\TCPIP Stack\UART2TCPBridge.c
                  __tmp_0   0x000000       data     static C:\Users\Tim\Desktop\PIC-WEB-5-42-UEXT-full\Microchip\TCPIP Stack\Telnet.c
                  __tmp_0   0x000000       data     static C:\Users\Tim\Desktop\PIC-WEB-5-42-UEXT-full\Microchip\TCPIP Stack\TCPPerformanceTest.c
                  __tmp_0   0x000000       data     static C:\Users\Tim\Desktop\PIC-WEB-5-42-UEXT-full\TCPIP\Demo App\Olimex_Demo_Files\Custom_I2C.c
                  __tmp_0   0x000000       data     static C:\Users\Tim\Desktop\PIC-WEB-5-42-UEXT-full\TCPIP\Demo App\MainDemo.c
                  __tmp_0   0x000000       data     static C:\Users\Tim\Desktop\PIC-WEB-5-42-UEXT-full\Microchip\TCPIP Stack\StackTsk.c
                  __tmp_0   0x000000       data     static E:\3.46\pic18-lt\cxx-framework\src\traditional\stdclib\putc.c
                  __tmp_0   0x000000       data     static E:\3.46\pic18-lt\cxx-framework\src\traditional\stdclib\vfprintf.c
                  __tmp_0   0x000000       data     static C:\Users\Tim\Desktop\PIC-WEB-5-42-UEXT-full\Microchip\TCPIP Stack\DHCP.c
                  __tmp_0   0x000000       data     static C:\Users\Tim\Desktop\PIC-WEB-5-42-UEXT-full\Microchip\TCPIP Stack\SPIFlash.c
                     SIGN   0x000020       data     extern E:\3.46\pic18-lt\cxx-framework\src\traditional\math\cmath18.asm
            __FPFLAGSbits   0x000021       data     extern E:\3.46\pic18-lt\cxx-framework\src\traditional\math\cmath18.asm
                __FPFLAGS   0x000021       data     extern E:\3.46\pic18-lt\cxx-framework\src\traditional\math\cmath18.asm
                 __AARGB7   0x000022       data     extern E:\3.46\pic18-lt\cxx-framework\src\traditional\math\aarg.asm
                  __REMB3   0x000022       data     extern E:\3.46\pic18-lt\cxx-framework\src\traditional\math\aarg.asm
                 __AARGB6   0x000023       data     extern E:\3.46\pic18-lt\cxx-framework\src\traditional\math\aarg.asm
                  __REMB2   0x000023       data     extern E:\3.46\pic18-lt\cxx-framework\src\traditional\math\aarg.asm
                 __AARGB5   0x000024       data     extern E:\3.46\pic18-lt\cxx-framework\src\traditional\math\aarg.asm
                  __REMB1   0x000024       data     extern E:\3.46\pic18-lt\cxx-framework\src\traditional\math\aarg.asm
                  __REMB0   0x000025       data     extern E:\3.46\pic18-lt\cxx-framework\src\traditional\math\aarg.asm
                 __AARGB4   0x000025       data     extern E:\3.46\pic18-lt\cxx-framework\src\traditional\math\aarg.asm
                 __AARGB3   0x000026       data     extern E:\3.46\pic18-lt\cxx-framework\src\traditional\math\aarg.asm
                 __AARGB2   0x000027       data     extern E:\3.46\pic18-lt\cxx-framework\src\traditional\math\aarg.asm
                 __AARGB1   0x000028       data     extern E:\3.46\pic18-lt\cxx-framework\src\traditional\math\aarg.asm
                 __AARGB0   0x000029       data     extern E:\3.46\pic18-lt\cxx-framework\src\traditional\math\aarg.asm
                   __AEXP   0x00002a       data     extern E:\3.46\pic18-lt\cxx-framework\src\traditional\math\aarg.asm
                 __BARGB3   0x00002b       data     extern E:\3.46\pic18-lt\cxx-framework\src\traditional\math\barg.asm
                 __BARGB2   0x00002c       data     extern E:\3.46\pic18-lt\cxx-framework\src\traditional\math\barg.asm
                 __BARGB1   0x00002d       data     extern E:\3.46\pic18-lt\cxx-framework\src\traditional\math\barg.asm
                 __BARGB0   0x00002e       data     extern E:\3.46\pic18-lt\cxx-framework\src\traditional\math\barg.asm
                   __BEXP   0x00002f       data     extern E:\3.46\pic18-lt\cxx-framework\src\traditional\math\barg.asm
                 __TEMPB3   0x000030       data     extern E:\3.46\pic18-lt\cxx-framework\src\traditional\math\temparg.asm
                 __TEMPB2   0x000031       data     extern E:\3.46\pic18-lt\cxx-framework\src\traditional\math\temparg.asm
                 __TEMPB1   0x000032       data     extern E:\3.46\pic18-lt\cxx-framework\src\traditional\math\temparg.asm
                   __TEMP   0x000033       data     extern E:\3.46\pic18-lt\cxx-framework\src\traditional\math\temparg.asm
                 __TEMPB0   0x000033       data     extern E:\3.46\pic18-lt\cxx-framework\src\traditional\math\temparg.asm
            DelayCounter1   0x000034       data     extern E:\3.46\pic18-lt\cxx-framework\src\traditional\delays\delayd1.asm
                MPFSStubs   0x000060       data     static C:\Users\Tim\Desktop\PIC-WEB-5-42-UEXT-full\Microchip\TCPIP Stack\MPFS2.c
             isMPFSLocked   0x0000b0       data     static C:\Users\Tim\Desktop\PIC-WEB-5-42-UEXT-full\Microchip\TCPIP Stack\MPFS2.c
                 fatCache   0x0000b1       data     static C:\Users\Tim\Desktop\PIC-WEB-5-42-UEXT-full\Microchip\TCPIP Stack\MPFS2.c
               fatCacheID   0x0000c7       data     static C:\Users\Tim\Desktop\PIC-WEB-5-42-UEXT-full\Microchip\TCPIP Stack\MPFS2.c
                 numFiles   0x0000c9       data     static C:\Users\Tim\Desktop\PIC-WEB-5-42-UEXT-full\Microchip\TCPIP Stack\MPFS2.c
                    cFile   0x0000cb       data     static C:\Users\Tim\Desktop\PIC-WEB-5-42-UEXT-full\Microchip\TCPIP Stack\MPFS2.c
             __MPFSOpen:0   0x0000cb       data     extern C:\Users\Tim\Desktop\PIC-WEB-5-42-UEXT-full\Microchip\TCPIP Stack\MPFS2.c
          __MPFSOpenROM:0   0x0000cd       data     extern C:\Users\Tim\Desktop\PIC-WEB-5-42-UEXT-full\Microchip\TCPIP Stack\MPFS2.c
                    cFile   0x0000cd       data     static C:\Users\Tim\Desktop\PIC-WEB-5-42-UEXT-full\Microchip\TCPIP Stack\MPFS2.c
           __MPFSOpenID:0   0x0000d0       data     extern C:\Users\Tim\Desktop\PIC-WEB-5-42-UEXT-full\Microchip\TCPIP Stack\MPFS2.c
                   hFatID   0x0000d0       data     static C:\Users\Tim\Desktop\PIC-WEB-5-42-UEXT-full\Microchip\TCPIP Stack\MPFS2.c
            __MPFSClose:0   0x0000d2       data     extern C:\Users\Tim\Desktop\PIC-WEB-5-42-UEXT-full\Microchip\TCPIP Stack\MPFS2.c
                    hMPFS   0x0000d2       data     static C:\Users\Tim\Desktop\PIC-WEB-5-42-UEXT-full\Microchip\TCPIP Stack\MPFS2.c
              __MPFSGet:0   0x0000d3       data     extern C:\Users\Tim\Desktop\PIC-WEB-5-42-UEXT-full\Microchip\TCPIP Stack\MPFS2.c
                    hMPFS   0x0000d3       data     static C:\Users\Tim\Desktop\PIC-WEB-5-42-UEXT-full\Microchip\TCPIP Stack\MPFS2.c
              __MPFSGet:1   0x0000d4       data     extern C:\Users\Tim\Desktop\PIC-WEB-5-42-UEXT-full\Microchip\TCPIP Stack\MPFS2.c
                        c   0x0000d4       data     static C:\Users\Tim\Desktop\PIC-WEB-5-42-UEXT-full\Microchip\TCPIP Stack\MPFS2.c
         __MPFSGetArray:0   0x0000d6       data     extern C:\Users\Tim\Desktop\PIC-WEB-5-42-UEXT-full\Microchip\TCPIP Stack\MPFS2.c
                    hMPFS   0x0000d6       data     static C:\Users\Tim\Desktop\PIC-WEB-5-42-UEXT-full\Microchip\TCPIP Stack\MPFS2.c
         __MPFSGetArray:1   0x0000d7       data     extern C:\Users\Tim\Desktop\PIC-WEB-5-42-UEXT-full\Microchip\TCPIP Stack\MPFS2.c
                    cData   0x0000d7       data     static C:\Users\Tim\Desktop\PIC-WEB-5-42-UEXT-full\Microchip\TCPIP Stack\MPFS2.c
                     wLen   0x0000d9       data     static C:\Users\Tim\Desktop\PIC-WEB-5-42-UEXT-full\Microchip\TCPIP Stack\MPFS2.c
         __MPFSGetArray:2   0x0000d9       data     extern C:\Users\Tim\Desktop\PIC-WEB-5-42-UEXT-full\Microchip\TCPIP Stack\MPFS2.c
                    hMPFS   0x0000db       data     static C:\Users\Tim\Desktop\PIC-WEB-5-42-UEXT-full\Microchip\TCPIP Stack\MPFS2.c
          __MPFSGetLong:0   0x0000db       data     extern C:\Users\Tim\Desktop\PIC-WEB-5-42-UEXT-full\Microchip\TCPIP Stack\MPFS2.c
          __MPFSGetLong:1   0x0000dc       data     extern C:\Users\Tim\Desktop\PIC-WEB-5-42-UEXT-full\Microchip\TCPIP Stack\MPFS2.c
                       ul   0x0000dc       data     static C:\Users\Tim\Desktop\PIC-WEB-5-42-UEXT-full\Microchip\TCPIP Stack\MPFS2.c
                    hMPFS   0x0000de       data     static C:\Users\Tim\Desktop\PIC-WEB-5-42-UEXT-full\Microchip\TCPIP Stack\MPFS2.c
             __MPFSSeek:0   0x0000de       data     extern C:\Users\Tim\Desktop\PIC-WEB-5-42-UEXT-full\Microchip\TCPIP Stack\MPFS2.c
                 dwOffset   0x0000df       data     static C:\Users\Tim\Desktop\PIC-WEB-5-42-UEXT-full\Microchip\TCPIP Stack\MPFS2.c
             __MPFSSeek:1   0x0000df       data     extern C:\Users\Tim\Desktop\PIC-WEB-5-42-UEXT-full\Microchip\TCPIP Stack\MPFS2.c
             __MPFSSeek:2   0x0000e3       data     extern C:\Users\Tim\Desktop\PIC-WEB-5-42-UEXT-full\Microchip\TCPIP Stack\MPFS2.c
                    tMode   0x0000e3       data     static C:\Users\Tim\Desktop\PIC-WEB-5-42-UEXT-full\Microchip\TCPIP Stack\MPFS2.c
         __MPFSPutArray:0   0x0000e4       data     extern C:\Users\Tim\Desktop\PIC-WEB-5-42-UEXT-full\Microchip\TCPIP Stack\MPFS2.c
                    hMPFS   0x0000e4       data     static C:\Users\Tim\Desktop\PIC-WEB-5-42-UEXT-full\Microchip\TCPIP Stack\MPFS2.c
         __MPFSPutArray:1   0x0000e5       data     extern C:\Users\Tim\Desktop\PIC-WEB-5-42-UEXT-full\Microchip\TCPIP Stack\MPFS2.c
                    cData   0x0000e5       data     static C:\Users\Tim\Desktop\PIC-WEB-5-42-UEXT-full\Microchip\TCPIP Stack\MPFS2.c
         __MPFSPutArray:2   0x0000e7       data     extern C:\Users\Tim\Desktop\PIC-WEB-5-42-UEXT-full\Microchip\TCPIP Stack\MPFS2.c
                     wLen   0x0000e7       data     static C:\Users\Tim\Desktop\PIC-WEB-5-42-UEXT-full\Microchip\TCPIP Stack\MPFS2.c
           __MPFSPutEnd:0   0x0000e9       data     extern C:\Users\Tim\Desktop\PIC-WEB-5-42-UEXT-full\Microchip\TCPIP Stack\MPFS2.c
                    final   0x0000e9       data     static C:\Users\Tim\Desktop\PIC-WEB-5-42-UEXT-full\Microchip\TCPIP Stack\MPFS2.c
       ___LoadFATRecord:0   0x0000ea       data     static C:\Users\Tim\Desktop\PIC-WEB-5-42-UEXT-full\Microchip\TCPIP Stack\MPFS2.c
                    fatID   0x0000ea       data     static C:\Users\Tim\Desktop\PIC-WEB-5-42-UEXT-full\Microchip\TCPIP Stack\MPFS2.c
                    hMPFS   0x0000ec       data     static C:\Users\Tim\Desktop\PIC-WEB-5-42-UEXT-full\Microchip\TCPIP Stack\MPFS2.c
     __MPFSGetTimestamp:0   0x0000ec       data     extern C:\Users\Tim\Desktop\PIC-WEB-5-42-UEXT-full\Microchip\TCPIP Stack\MPFS2.c
                    hMPFS   0x0000ed       data     static C:\Users\Tim\Desktop\PIC-WEB-5-42-UEXT-full\Microchip\TCPIP Stack\MPFS2.c
     __MPFSGetMicrotime:0   0x0000ed       data     extern C:\Users\Tim\Desktop\PIC-WEB-5-42-UEXT-full\Microchip\TCPIP Stack\MPFS2.c
         __MPFSGetFlags:0   0x0000ee       data     extern C:\Users\Tim\Desktop\PIC-WEB-5-42-UEXT-full\Microchip\TCPIP Stack\MPFS2.c
                    hMPFS   0x0000ee       data     static C:\Users\Tim\Desktop\PIC-WEB-5-42-UEXT-full\Microchip\TCPIP Stack\MPFS2.c
          __MPFSGetSize:0   0x0000ef       data     extern C:\Users\Tim\Desktop\PIC-WEB-5-42-UEXT-full\Microchip\TCPIP Stack\MPFS2.c
                    hMPFS   0x0000ef       data     static C:\Users\Tim\Desktop\PIC-WEB-5-42-UEXT-full\Microchip\TCPIP Stack\MPFS2.c
                    hMPFS   0x0000f0       data     static C:\Users\Tim\Desktop\PIC-WEB-5-42-UEXT-full\Microchip\TCPIP Stack\MPFS2.c
      __MPFSGetBytesRem:0   0x0000f0       data     extern C:\Users\Tim\Desktop\PIC-WEB-5-42-UEXT-full\Microchip\TCPIP Stack\MPFS2.c
     __MPFSGetStartAddr:0   0x0000f1       data     extern C:\Users\Tim\Desktop\PIC-WEB-5-42-UEXT-full\Microchip\TCPIP Stack\MPFS2.c
                    hMPFS   0x0000f1       data     static C:\Users\Tim\Desktop\PIC-WEB-5-42-UEXT-full\Microchip\TCPIP Stack\MPFS2.c
       __MPFSGetEndAddr:0   0x0000f2       data     extern C:\Users\Tim\Desktop\PIC-WEB-5-42-UEXT-full\Microchip\TCPIP Stack\MPFS2.c
                    hMPFS   0x0000f2       data     static C:\Users\Tim\Desktop\PIC-WEB-5-42-UEXT-full\Microchip\TCPIP Stack\MPFS2.c
      __MPFSGetFilename:0   0x0000f3       data     extern C:\Users\Tim\Desktop\PIC-WEB-5-42-UEXT-full\Microchip\TCPIP Stack\MPFS2.c
                    hMPFS   0x0000f3       data     static C:\Users\Tim\Desktop\PIC-WEB-5-42-UEXT-full\Microchip\TCPIP Stack\MPFS2.c
      __MPFSGetFilename:1   0x0000f4       data     extern C:\Users\Tim\Desktop\PIC-WEB-5-42-UEXT-full\Microchip\TCPIP Stack\MPFS2.c
                    cName   0x0000f4       data     static C:\Users\Tim\Desktop\PIC-WEB-5-42-UEXT-full\Microchip\TCPIP Stack\MPFS2.c
      __MPFSGetFilename:2   0x0000f6       data     extern C:\Users\Tim\Desktop\PIC-WEB-5-42-UEXT-full\Microchip\TCPIP Stack\MPFS2.c
                     wLen   0x0000f6       data     static C:\Users\Tim\Desktop\PIC-WEB-5-42-UEXT-full\Microchip\TCPIP Stack\MPFS2.c
      __MPFSGetPosition:0   0x0000f8       data     extern C:\Users\Tim\Desktop\PIC-WEB-5-42-UEXT-full\Microchip\TCPIP Stack\MPFS2.c
                    hMPFS   0x0000f8       data     static C:\Users\Tim\Desktop\PIC-WEB-5-42-UEXT-full\Microchip\TCPIP Stack\MPFS2.c
                    hMPFS   0x0000f9       data     static C:\Users\Tim\Desktop\PIC-WEB-5-42-UEXT-full\Microchip\TCPIP Stack\MPFS2.c
            __MPFSGetID:0   0x0000f9       data     extern C:\Users\Tim\Desktop\PIC-WEB-5-42-UEXT-full\Microchip\TCPIP Stack\MPFS2.c
           hTelnetSockets   0x0000fa       data     static C:\Users\Tim\Desktop\PIC-WEB-5-42-UEXT-full\Microchip\TCPIP Stack\Telnet.c
            vTelnetStates   0x0000fb       data     static C:\Users\Tim\Desktop\PIC-WEB-5-42-UEXT-full\Microchip\TCPIP Stack\Telnet.c
                   dwTime   0x0000fc       data     static C:\Users\Tim\Desktop\PIC-WEB-5-42-UEXT-full\Microchip\TCPIP Stack\Telnet.c
                 TCBStubs   0x000100       data     static C:\Users\Tim\Desktop\PIC-WEB-5-42-UEXT-full\Microchip\TCPIP Stack\TCP.c
                  dwTimer   0x0001fc       data     static C:\Users\Tim\Desktop\PIC-WEB-5-42-UEXT-full\Microchip\TCPIP Stack\SNTP.c
            UDPSocketInfo   0x000200       data     extern C:\Users\Tim\Desktop\PIC-WEB-5-42-UEXT-full\Microchip\TCPIP Stack\UDP.c
          activeUDPSocket   0x0002b8       data     extern C:\Users\Tim\Desktop\PIC-WEB-5-42-UEXT-full\Microchip\TCPIP Stack\UDP.c
               UDPTxCount   0x0002b9       data     extern C:\Users\Tim\Desktop\PIC-WEB-5-42-UEXT-full\Microchip\TCPIP Stack\UDP.c
               UDPRxCount   0x0002bb       data     extern C:\Users\Tim\Desktop\PIC-WEB-5-42-UEXT-full\Microchip\TCPIP Stack\UDP.c
               wPutOffset   0x0002bd       data     static C:\Users\Tim\Desktop\PIC-WEB-5-42-UEXT-full\Microchip\TCPIP Stack\UDP.c
               wGetOffset   0x0002bf       data     static C:\Users\Tim\Desktop\PIC-WEB-5-42-UEXT-full\Microchip\TCPIP Stack\UDP.c
                    Flags   0x0002c1       data     static C:\Users\Tim\Desktop\PIC-WEB-5-42-UEXT-full\Microchip\TCPIP Stack\UDP.c
               remoteHost   0x0002c2       data     static C:\Users\Tim\Desktop\PIC-WEB-5-42-UEXT-full\Microchip\TCPIP Stack\UDP.c
            __UDPOpenEx:0   0x0002c2       data     extern C:\Users\Tim\Desktop\PIC-WEB-5-42-UEXT-full\Microchip\TCPIP Stack\UDP.c
            __UDPOpenEx:1   0x0002c6       data     extern C:\Users\Tim\Desktop\PIC-WEB-5-42-UEXT-full\Microchip\TCPIP Stack\UDP.c
           remoteHostType   0x0002c6       data     static C:\Users\Tim\Desktop\PIC-WEB-5-42-UEXT-full\Microchip\TCPIP Stack\UDP.c
            __UDPOpenEx:2   0x0002c7       data     extern C:\Users\Tim\Desktop\PIC-WEB-5-42-UEXT-full\Microchip\TCPIP Stack\UDP.c
                localPort   0x0002c7       data     static C:\Users\Tim\Desktop\PIC-WEB-5-42-UEXT-full\Microchip\TCPIP Stack\UDP.c
               remotePort   0x0002c9       data     static C:\Users\Tim\Desktop\PIC-WEB-5-42-UEXT-full\Microchip\TCPIP Stack\UDP.c
            __UDPOpenEx:3   0x0002c9       data     extern C:\Users\Tim\Desktop\PIC-WEB-5-42-UEXT-full\Microchip\TCPIP Stack\UDP.c
                 NextPort   0x0002cb       data     static C:\Users\Tim\Desktop\PIC-WEB-5-42-UEXT-full\Microchip\TCPIP Stack\UDP.c
          __UDPIsOpened:0   0x0002cd       data     extern C:\Users\Tim\Desktop\PIC-WEB-5-42-UEXT-full\Microchip\TCPIP Stack\UDP.c
                   socket   0x0002cd       data     static C:\Users\Tim\Desktop\PIC-WEB-5-42-UEXT-full\Microchip\TCPIP Stack\UDP.c
                        s   0x0002ce       data     static C:\Users\Tim\Desktop\PIC-WEB-5-42-UEXT-full\Microchip\TCPIP Stack\UDP.c
             __UDPClose:0   0x0002ce       data     extern C:\Users\Tim\Desktop\PIC-WEB-5-42-UEXT-full\Microchip\TCPIP Stack\UDP.c
                  wOffset   0x0002cf       data     static C:\Users\Tim\Desktop\PIC-WEB-5-42-UEXT-full\Microchip\TCPIP Stack\UDP.c
       __UDPSetTxBuffer:0   0x0002cf       data     extern C:\Users\Tim\Desktop\PIC-WEB-5-42-UEXT-full\Microchip\TCPIP Stack\UDP.c
                  wOffset   0x0002d1       data     static C:\Users\Tim\Desktop\PIC-WEB-5-42-UEXT-full\Microchip\TCPIP Stack\UDP.c
       __UDPSetRxBuffer:0   0x0002d1       data     extern C:\Users\Tim\Desktop\PIC-WEB-5-42-UEXT-full\Microchip\TCPIP Stack\UDP.c
                        s   0x0002d3       data     static C:\Users\Tim\Desktop\PIC-WEB-5-42-UEXT-full\Microchip\TCPIP Stack\UDP.c
        __UDPIsPutReady:0   0x0002d3       data     extern C:\Users\Tim\Desktop\PIC-WEB-5-42-UEXT-full\Microchip\TCPIP Stack\UDP.c
               __UDPPut:0   0x0002d4       data     extern C:\Users\Tim\Desktop\PIC-WEB-5-42-UEXT-full\Microchip\TCPIP Stack\UDP.c
                        v   0x0002d4       data     static C:\Users\Tim\Desktop\PIC-WEB-5-42-UEXT-full\Microchip\TCPIP Stack\UDP.c
                    cData   0x0002d5       data     static C:\Users\Tim\Desktop\PIC-WEB-5-42-UEXT-full\Microchip\TCPIP Stack\UDP.c
          __UDPPutArray:0   0x0002d5       data     extern C:\Users\Tim\Desktop\PIC-WEB-5-42-UEXT-full\Microchip\TCPIP Stack\UDP.c
                 wDataLen   0x0002d7       data     static C:\Users\Tim\Desktop\PIC-WEB-5-42-UEXT-full\Microchip\TCPIP Stack\UDP.c
          __UDPPutArray:1   0x0002d7       data     extern C:\Users\Tim\Desktop\PIC-WEB-5-42-UEXT-full\Microchip\TCPIP Stack\UDP.c
                    cData   0x0002d9       data     static C:\Users\Tim\Desktop\PIC-WEB-5-42-UEXT-full\Microchip\TCPIP Stack\UDP.c
       __UDPPutROMArray:0   0x0002d9       data     extern C:\Users\Tim\Desktop\PIC-WEB-5-42-UEXT-full\Microchip\TCPIP Stack\UDP.c
       __UDPPutROMArray:1   0x0002dc       data     extern C:\Users\Tim\Desktop\PIC-WEB-5-42-UEXT-full\Microchip\TCPIP Stack\UDP.c
                 wDataLen   0x0002dc       data     static C:\Users\Tim\Desktop\PIC-WEB-5-42-UEXT-full\Microchip\TCPIP Stack\UDP.c
         __UDPPutString:0   0x0002de       data     extern C:\Users\Tim\Desktop\PIC-WEB-5-42-UEXT-full\Microchip\TCPIP Stack\UDP.c
                  strData   0x0002de       data     static C:\Users\Tim\Desktop\PIC-WEB-5-42-UEXT-full\Microchip\TCPIP Stack\UDP.c
      __UDPPutROMString:0   0x0002e0       data     extern C:\Users\Tim\Desktop\PIC-WEB-5-42-UEXT-full\Microchip\TCPIP Stack\UDP.c
                  strData   0x0002e0       data     static C:\Users\Tim\Desktop\PIC-WEB-5-42-UEXT-full\Microchip\TCPIP Stack\UDP.c
                        s   0x0002e3       data     static C:\Users\Tim\Desktop\PIC-WEB-5-42-UEXT-full\Microchip\TCPIP Stack\UDP.c
        __UDPIsGetReady:0   0x0002e3       data     extern C:\Users\Tim\Desktop\PIC-WEB-5-42-UEXT-full\Microchip\TCPIP Stack\UDP.c
                        v   0x0002e4       data     static C:\Users\Tim\Desktop\PIC-WEB-5-42-UEXT-full\Microchip\TCPIP Stack\UDP.c
               __UDPGet:0   0x0002e4       data     extern C:\Users\Tim\Desktop\PIC-WEB-5-42-UEXT-full\Microchip\TCPIP Stack\UDP.c
          __UDPGetArray:0   0x0002e6       data     extern C:\Users\Tim\Desktop\PIC-WEB-5-42-UEXT-full\Microchip\TCPIP Stack\UDP.c
                    cData   0x0002e6       data     static C:\Users\Tim\Desktop\PIC-WEB-5-42-UEXT-full\Microchip\TCPIP Stack\UDP.c
                 wDataLen   0x0002e8       data     static C:\Users\Tim\Desktop\PIC-WEB-5-42-UEXT-full\Microchip\TCPIP Stack\UDP.c
          __UDPGetArray:1   0x0002e8       data     extern C:\Users\Tim\Desktop\PIC-WEB-5-42-UEXT-full\Microchip\TCPIP Stack\UDP.c
           __UDPProcess:0   0x0002ea       data     extern C:\Users\Tim\Desktop\PIC-WEB-5-42-UEXT-full\Microchip\TCPIP Stack\UDP.c
               remoteNode   0x0002ea       data     static C:\Users\Tim\Desktop\PIC-WEB-5-42-UEXT-full\Microchip\TCPIP Stack\UDP.c
                  localIP   0x0002ec       data     static C:\Users\Tim\Desktop\PIC-WEB-5-42-UEXT-full\Microchip\TCPIP Stack\UDP.c
           __UDPProcess:1   0x0002ec       data     extern C:\Users\Tim\Desktop\PIC-WEB-5-42-UEXT-full\Microchip\TCPIP Stack\UDP.c
                      len   0x0002ee       data     static C:\Users\Tim\Desktop\PIC-WEB-5-42-UEXT-full\Microchip\TCPIP Stack\UDP.c
           __UDPProcess:2   0x0002ee       data     extern C:\Users\Tim\Desktop\PIC-WEB-5-42-UEXT-full\Microchip\TCPIP Stack\UDP.c
                        h   0x0002f0       data     static C:\Users\Tim\Desktop\PIC-WEB-5-42-UEXT-full\Microchip\TCPIP Stack\UDP.c
   __FindMatchingSocket:0   0x0002f0       data     static C:\Users\Tim\Desktop\PIC-WEB-5-42-UEXT-full\Microchip\TCPIP Stack\UDP.c
   __FindMatchingSocket:1   0x0002f2       data     static C:\Users\Tim\Desktop\PIC-WEB-5-42-UEXT-full\Microchip\TCPIP Stack\UDP.c
               remoteNode   0x0002f2       data     static C:\Users\Tim\Desktop\PIC-WEB-5-42-UEXT-full\Microchip\TCPIP Stack\UDP.c
   __FindMatchingSocket:2   0x0002f4       data     static C:\Users\Tim\Desktop\PIC-WEB-5-42-UEXT-full\Microchip\TCPIP Stack\UDP.c
                  localIP   0x0002f4       data     static C:\Users\Tim\Desktop\PIC-WEB-5-42-UEXT-full\Microchip\TCPIP Stack\UDP.c
                     prom   0x0002f6       data     static E:\3.46\pic18-lt\cxx-framework\src\traditional\startup\c018i.c
                curr_byte   0x0002f9       data     static E:\3.46\pic18-lt\cxx-framework\src\traditional\startup\c018i.c
               curr_entry   0x0002fb       data     static E:\3.46\pic18-lt\cxx-framework\src\traditional\startup\c018i.c
                 data_ptr   0x0002fd       data     static E:\3.46\pic18-lt\cxx-framework\src\traditional\startup\c018i.c
                 NextPort   0x000300       data     static C:\Users\Tim\Desktop\PIC-WEB-5-42-UEXT-full\Microchip\TCPIP Stack\TCP.c
                    MyTCB   0x000302       data     static C:\Users\Tim\Desktop\PIC-WEB-5-42-UEXT-full\Microchip\TCPIP Stack\TCP.c
                MyTCBStub   0x000329       data     static C:\Users\Tim\Desktop\PIC-WEB-5-42-UEXT-full\Microchip\TCPIP Stack\TCP.c
                     hTCP   0x000345       data     static C:\Users\Tim\Desktop\PIC-WEB-5-42-UEXT-full\Microchip\TCPIP Stack\TCP.c
          __SyncTCBStub:0   0x000345       data     static C:\Users\Tim\Desktop\PIC-WEB-5-42-UEXT-full\Microchip\TCPIP Stack\TCP.c
             dwRemoteHost   0x000346       data     static C:\Users\Tim\Desktop\PIC-WEB-5-42-UEXT-full\Microchip\TCPIP Stack\TCP.c
              __TCPOpen:0   0x000346       data     extern C:\Users\Tim\Desktop\PIC-WEB-5-42-UEXT-full\Microchip\TCPIP Stack\TCP.c
              __TCPOpen:1   0x00034a       data     extern C:\Users\Tim\Desktop\PIC-WEB-5-42-UEXT-full\Microchip\TCPIP Stack\TCP.c
          vRemoteHostType   0x00034a       data     static C:\Users\Tim\Desktop\PIC-WEB-5-42-UEXT-full\Microchip\TCPIP Stack\TCP.c
              __TCPOpen:2   0x00034b       data     extern C:\Users\Tim\Desktop\PIC-WEB-5-42-UEXT-full\Microchip\TCPIP Stack\TCP.c
                    wPort   0x00034b       data     static C:\Users\Tim\Desktop\PIC-WEB-5-42-UEXT-full\Microchip\TCPIP Stack\TCP.c
           vSocketPurpose   0x00034d       data     static C:\Users\Tim\Desktop\PIC-WEB-5-42-UEXT-full\Microchip\TCPIP Stack\TCP.c
              __TCPOpen:3   0x00034d       data     extern C:\Users\Tim\Desktop\PIC-WEB-5-42-UEXT-full\Microchip\TCPIP Stack\TCP.c
          __TCPWasReset:0   0x00034e       data     extern C:\Users\Tim\Desktop\PIC-WEB-5-42-UEXT-full\Microchip\TCPIP Stack\TCP.c
                     hTCP   0x00034e       data     static C:\Users\Tim\Desktop\PIC-WEB-5-42-UEXT-full\Microchip\TCPIP Stack\TCP.c
                     hTCP   0x00034f       data     static C:\Users\Tim\Desktop\PIC-WEB-5-42-UEXT-full\Microchip\TCPIP Stack\TCP.c
       __TCPIsConnected:0   0x00034f       data     extern C:\Users\Tim\Desktop\PIC-WEB-5-42-UEXT-full\Microchip\TCPIP Stack\TCP.c
        __TCPDisconnect:0   0x000350       data     extern C:\Users\Tim\Desktop\PIC-WEB-5-42-UEXT-full\Microchip\TCPIP Stack\TCP.c
                     hTCP   0x000350       data     static C:\Users\Tim\Desktop\PIC-WEB-5-42-UEXT-full\Microchip\TCPIP Stack\TCP.c
             __TCPClose:0   0x000351       data     extern C:\Users\Tim\Desktop\PIC-WEB-5-42-UEXT-full\Microchip\TCPIP Stack\TCP.c
                     hTCP   0x000351       data     static C:\Users\Tim\Desktop\PIC-WEB-5-42-UEXT-full\Microchip\TCPIP Stack\TCP.c
     __TCPGetRemoteInfo:0   0x000352       data     extern C:\Users\Tim\Desktop\PIC-WEB-5-42-UEXT-full\Microchip\TCPIP Stack\TCP.c
                     hTCP   0x000352       data     static C:\Users\Tim\Desktop\PIC-WEB-5-42-UEXT-full\Microchip\TCPIP Stack\TCP.c
               RemoteInfo   0x000353       data     static C:\Users\Tim\Desktop\PIC-WEB-5-42-UEXT-full\Microchip\TCPIP Stack\TCP.c
             __TCPFlush:0   0x00035f       data     extern C:\Users\Tim\Desktop\PIC-WEB-5-42-UEXT-full\Microchip\TCPIP Stack\TCP.c
                     hTCP   0x00035f       data     static C:\Users\Tim\Desktop\PIC-WEB-5-42-UEXT-full\Microchip\TCPIP Stack\TCP.c
        __TCPIsPutReady:0   0x000360       data     extern C:\Users\Tim\Desktop\PIC-WEB-5-42-UEXT-full\Microchip\TCPIP Stack\TCP.c
                     hTCP   0x000360       data     static C:\Users\Tim\Desktop\PIC-WEB-5-42-UEXT-full\Microchip\TCPIP Stack\TCP.c
               __TCPPut:0   0x000361       data     extern C:\Users\Tim\Desktop\PIC-WEB-5-42-UEXT-full\Microchip\TCPIP Stack\TCP.c
                     hTCP   0x000361       data     static C:\Users\Tim\Desktop\PIC-WEB-5-42-UEXT-full\Microchip\TCPIP Stack\TCP.c
               __TCPPut:1   0x000362       data     extern C:\Users\Tim\Desktop\PIC-WEB-5-42-UEXT-full\Microchip\TCPIP Stack\TCP.c
                     byte   0x000362       data     static C:\Users\Tim\Desktop\PIC-WEB-5-42-UEXT-full\Microchip\TCPIP Stack\TCP.c
                     hTCP   0x000363       data     static C:\Users\Tim\Desktop\PIC-WEB-5-42-UEXT-full\Microchip\TCPIP Stack\TCP.c
          __TCPPutArray:0   0x000363       data     extern C:\Users\Tim\Desktop\PIC-WEB-5-42-UEXT-full\Microchip\TCPIP Stack\TCP.c
          __TCPPutArray:1   0x000364       data     extern C:\Users\Tim\Desktop\PIC-WEB-5-42-UEXT-full\Microchip\TCPIP Stack\TCP.c
                     data   0x000364       data     static C:\Users\Tim\Desktop\PIC-WEB-5-42-UEXT-full\Microchip\TCPIP Stack\TCP.c
                      len   0x000366       data     static C:\Users\Tim\Desktop\PIC-WEB-5-42-UEXT-full\Microchip\TCPIP Stack\TCP.c
          __TCPPutArray:2   0x000366       data     extern C:\Users\Tim\Desktop\PIC-WEB-5-42-UEXT-full\Microchip\TCPIP Stack\TCP.c
                     hTCP   0x000368       data     static C:\Users\Tim\Desktop\PIC-WEB-5-42-UEXT-full\Microchip\TCPIP Stack\TCP.c
       __TCPPutROMArray:0   0x000368       data     extern C:\Users\Tim\Desktop\PIC-WEB-5-42-UEXT-full\Microchip\TCPIP Stack\TCP.c
       __TCPPutROMArray:1   0x000369       data     extern C:\Users\Tim\Desktop\PIC-WEB-5-42-UEXT-full\Microchip\TCPIP Stack\TCP.c
                     data   0x000369       data     static C:\Users\Tim\Desktop\PIC-WEB-5-42-UEXT-full\Microchip\TCPIP Stack\TCP.c
       __TCPPutROMArray:2   0x00036c       data     extern C:\Users\Tim\Desktop\PIC-WEB-5-42-UEXT-full\Microchip\TCPIP Stack\TCP.c
                      len   0x00036c       data     static C:\Users\Tim\Desktop\PIC-WEB-5-42-UEXT-full\Microchip\TCPIP Stack\TCP.c
         __TCPPutString:0   0x00036e       data     extern C:\Users\Tim\Desktop\PIC-WEB-5-42-UEXT-full\Microchip\TCPIP Stack\TCP.c
                     hTCP   0x00036e       data     static C:\Users\Tim\Desktop\PIC-WEB-5-42-UEXT-full\Microchip\TCPIP Stack\TCP.c
                     data   0x00036f       data     static C:\Users\Tim\Desktop\PIC-WEB-5-42-UEXT-full\Microchip\TCPIP Stack\TCP.c
         __TCPPutString:1   0x00036f       data     extern C:\Users\Tim\Desktop\PIC-WEB-5-42-UEXT-full\Microchip\TCPIP Stack\TCP.c
      __TCPPutROMString:0   0x000371       data     extern C:\Users\Tim\Desktop\PIC-WEB-5-42-UEXT-full\Microchip\TCPIP Stack\TCP.c
                     hTCP   0x000371       data     static C:\Users\Tim\Desktop\PIC-WEB-5-42-UEXT-full\Microchip\TCPIP Stack\TCP.c
      __TCPPutROMString:1   0x000372       data     extern C:\Users\Tim\Desktop\PIC-WEB-5-42-UEXT-full\Microchip\TCPIP Stack\TCP.c
                     data   0x000372       data     static C:\Users\Tim\Desktop\PIC-WEB-5-42-UEXT-full\Microchip\TCPIP Stack\TCP.c
     __TCPGetTxFIFOFull:0   0x000375       data     extern C:\Users\Tim\Desktop\PIC-WEB-5-42-UEXT-full\Microchip\TCPIP Stack\TCP.c
                     hTCP   0x000375       data     static C:\Users\Tim\Desktop\PIC-WEB-5-42-UEXT-full\Microchip\TCPIP Stack\TCP.c
           __TCPDiscard:0   0x000376       data     extern C:\Users\Tim\Desktop\PIC-WEB-5-42-UEXT-full\Microchip\TCPIP Stack\TCP.c
                     hTCP   0x000376       data     static C:\Users\Tim\Desktop\PIC-WEB-5-42-UEXT-full\Microchip\TCPIP Stack\TCP.c
                     hTCP   0x000377       data     static C:\Users\Tim\Desktop\PIC-WEB-5-42-UEXT-full\Microchip\TCPIP Stack\TCP.c
        __TCPIsGetReady:0   0x000377       data     extern C:\Users\Tim\Desktop\PIC-WEB-5-42-UEXT-full\Microchip\TCPIP Stack\TCP.c
               __TCPGet:0   0x000378       data     extern C:\Users\Tim\Desktop\PIC-WEB-5-42-UEXT-full\Microchip\TCPIP Stack\TCP.c
                     hTCP   0x000378       data     static C:\Users\Tim\Desktop\PIC-WEB-5-42-UEXT-full\Microchip\TCPIP Stack\TCP.c
                     byte   0x000379       data     static C:\Users\Tim\Desktop\PIC-WEB-5-42-UEXT-full\Microchip\TCPIP Stack\TCP.c
               __TCPGet:1   0x000379       data     extern C:\Users\Tim\Desktop\PIC-WEB-5-42-UEXT-full\Microchip\TCPIP Stack\TCP.c
                     hTCP   0x00037b       data     static C:\Users\Tim\Desktop\PIC-WEB-5-42-UEXT-full\Microchip\TCPIP Stack\TCP.c
          __TCPGetArray:0   0x00037b       data     extern C:\Users\Tim\Desktop\PIC-WEB-5-42-UEXT-full\Microchip\TCPIP Stack\TCP.c
                   buffer   0x00037c       data     static C:\Users\Tim\Desktop\PIC-WEB-5-42-UEXT-full\Microchip\TCPIP Stack\TCP.c
          __TCPGetArray:1   0x00037c       data     extern C:\Users\Tim\Desktop\PIC-WEB-5-42-UEXT-full\Microchip\TCPIP Stack\TCP.c
                      len   0x00037e       data     static C:\Users\Tim\Desktop\PIC-WEB-5-42-UEXT-full\Microchip\TCPIP Stack\TCP.c
          __TCPGetArray:2   0x00037e       data     extern C:\Users\Tim\Desktop\PIC-WEB-5-42-UEXT-full\Microchip\TCPIP Stack\TCP.c
                     hTCP   0x000380       data     static C:\Users\Tim\Desktop\PIC-WEB-5-42-UEXT-full\Microchip\TCPIP Stack\TCP.c
     __TCPGetRxFIFOFree:0   0x000380       data     extern C:\Users\Tim\Desktop\PIC-WEB-5-42-UEXT-full\Microchip\TCPIP Stack\TCP.c
         __TCPPeekArray:0   0x000381       data     extern C:\Users\Tim\Desktop\PIC-WEB-5-42-UEXT-full\Microchip\TCPIP Stack\TCP.c
                     hTCP   0x000381       data     static C:\Users\Tim\Desktop\PIC-WEB-5-42-UEXT-full\Microchip\TCPIP Stack\TCP.c
                  vBuffer   0x000382       data     static C:\Users\Tim\Desktop\PIC-WEB-5-42-UEXT-full\Microchip\TCPIP Stack\TCP.c
         __TCPPeekArray:1   0x000382       data     extern C:\Users\Tim\Desktop\PIC-WEB-5-42-UEXT-full\Microchip\TCPIP Stack\TCP.c
         __TCPPeekArray:2   0x000384       data     extern C:\Users\Tim\Desktop\PIC-WEB-5-42-UEXT-full\Microchip\TCPIP Stack\TCP.c
                     wLen   0x000384       data     static C:\Users\Tim\Desktop\PIC-WEB-5-42-UEXT-full\Microchip\TCPIP Stack\TCP.c
                   wStart   0x000386       data     static C:\Users\Tim\Desktop\PIC-WEB-5-42-UEXT-full\Microchip\TCPIP Stack\TCP.c
         __TCPPeekArray:3   0x000386       data     extern C:\Users\Tim\Desktop\PIC-WEB-5-42-UEXT-full\Microchip\TCPIP Stack\TCP.c
                     hTCP   0x000388       data     static C:\Users\Tim\Desktop\PIC-WEB-5-42-UEXT-full\Microchip\TCPIP Stack\TCP.c
              __TCPPeek:0   0x000388       data     extern C:\Users\Tim\Desktop\PIC-WEB-5-42-UEXT-full\Microchip\TCPIP Stack\TCP.c
                   wStart   0x000389       data     static C:\Users\Tim\Desktop\PIC-WEB-5-42-UEXT-full\Microchip\TCPIP Stack\TCP.c
              __TCPPeek:1   0x000389       data     extern C:\Users\Tim\Desktop\PIC-WEB-5-42-UEXT-full\Microchip\TCPIP Stack\TCP.c
                     hTCP   0x00038b       data     static C:\Users\Tim\Desktop\PIC-WEB-5-42-UEXT-full\Microchip\TCPIP Stack\TCP.c
       __TCPFindArrayEx:0   0x00038b       data     extern C:\Users\Tim\Desktop\PIC-WEB-5-42-UEXT-full\Microchip\TCPIP Stack\TCP.c
       __TCPFindArrayEx:1   0x00038c       data     extern C:\Users\Tim\Desktop\PIC-WEB-5-42-UEXT-full\Microchip\TCPIP Stack\TCP.c
               cFindArray   0x00038c       data     static C:\Users\Tim\Desktop\PIC-WEB-5-42-UEXT-full\Microchip\TCPIP Stack\TCP.c
       __TCPFindArrayEx:2   0x00038e       data     extern C:\Users\Tim\Desktop\PIC-WEB-5-42-UEXT-full\Microchip\TCPIP Stack\TCP.c
                     wLen   0x00038e       data     static C:\Users\Tim\Desktop\PIC-WEB-5-42-UEXT-full\Microchip\TCPIP Stack\TCP.c
                   wStart   0x000390       data     static C:\Users\Tim\Desktop\PIC-WEB-5-42-UEXT-full\Microchip\TCPIP Stack\TCP.c
       __TCPFindArrayEx:3   0x000390       data     extern C:\Users\Tim\Desktop\PIC-WEB-5-42-UEXT-full\Microchip\TCPIP Stack\TCP.c
               wSearchLen   0x000392       data     static C:\Users\Tim\Desktop\PIC-WEB-5-42-UEXT-full\Microchip\TCPIP Stack\TCP.c
       __TCPFindArrayEx:4   0x000392       data     extern C:\Users\Tim\Desktop\PIC-WEB-5-42-UEXT-full\Microchip\TCPIP Stack\TCP.c
       __TCPFindArrayEx:5   0x000394       data     extern C:\Users\Tim\Desktop\PIC-WEB-5-42-UEXT-full\Microchip\TCPIP Stack\TCP.c
             bTextCompare   0x000394       data     static C:\Users\Tim\Desktop\PIC-WEB-5-42-UEXT-full\Microchip\TCPIP Stack\TCP.c
    __TCPFindROMArrayEx:0   0x000395       data     extern C:\Users\Tim\Desktop\PIC-WEB-5-42-UEXT-full\Microchip\TCPIP Stack\TCP.c
                     hTCP   0x000395       data     static C:\Users\Tim\Desktop\PIC-WEB-5-42-UEXT-full\Microchip\TCPIP Stack\TCP.c
               cFindArray   0x000396       data     static C:\Users\Tim\Desktop\PIC-WEB-5-42-UEXT-full\Microchip\TCPIP Stack\TCP.c
    __TCPFindROMArrayEx:1   0x000396       data     extern C:\Users\Tim\Desktop\PIC-WEB-5-42-UEXT-full\Microchip\TCPIP Stack\TCP.c
                     wLen   0x000399       data     static C:\Users\Tim\Desktop\PIC-WEB-5-42-UEXT-full\Microchip\TCPIP Stack\TCP.c
    __TCPFindROMArrayEx:2   0x000399       data     extern C:\Users\Tim\Desktop\PIC-WEB-5-42-UEXT-full\Microchip\TCPIP Stack\TCP.c
    __TCPFindROMArrayEx:3   0x00039b       data     extern C:\Users\Tim\Desktop\PIC-WEB-5-42-UEXT-full\Microchip\TCPIP Stack\TCP.c
                   wStart   0x00039b       data     static C:\Users\Tim\Desktop\PIC-WEB-5-42-UEXT-full\Microchip\TCPIP Stack\TCP.c
    __TCPFindROMArrayEx:4   0x00039d       data     extern C:\Users\Tim\Desktop\PIC-WEB-5-42-UEXT-full\Microchip\TCPIP Stack\TCP.c
               wSearchLen   0x00039d       data     static C:\Users\Tim\Desktop\PIC-WEB-5-42-UEXT-full\Microchip\TCPIP Stack\TCP.c
             bTextCompare   0x00039f       data     static C:\Users\Tim\Desktop\PIC-WEB-5-42-UEXT-full\Microchip\TCPIP Stack\TCP.c
    __TCPFindROMArrayEx:5   0x00039f       data     extern C:\Users\Tim\Desktop\PIC-WEB-5-42-UEXT-full\Microchip\TCPIP Stack\TCP.c
            __TCPFindEx:0   0x0003a0       data     extern C:\Users\Tim\Desktop\PIC-WEB-5-42-UEXT-full\Microchip\TCPIP Stack\TCP.c
                     hTCP   0x0003a0       data     static C:\Users\Tim\Desktop\PIC-WEB-5-42-UEXT-full\Microchip\TCPIP Stack\TCP.c
            __TCPFindEx:1   0x0003a1       data     extern C:\Users\Tim\Desktop\PIC-WEB-5-42-UEXT-full\Microchip\TCPIP Stack\TCP.c
                    cFind   0x0003a1       data     static C:\Users\Tim\Desktop\PIC-WEB-5-42-UEXT-full\Microchip\TCPIP Stack\TCP.c
            __TCPFindEx:2   0x0003a2       data     extern C:\Users\Tim\Desktop\PIC-WEB-5-42-UEXT-full\Microchip\TCPIP Stack\TCP.c
                   wStart   0x0003a2       data     static C:\Users\Tim\Desktop\PIC-WEB-5-42-UEXT-full\Microchip\TCPIP Stack\TCP.c
            __TCPFindEx:3   0x0003a4       data     extern C:\Users\Tim\Desktop\PIC-WEB-5-42-UEXT-full\Microchip\TCPIP Stack\TCP.c
               wSearchLen   0x0003a4       data     static C:\Users\Tim\Desktop\PIC-WEB-5-42-UEXT-full\Microchip\TCPIP Stack\TCP.c
             bTextCompare   0x0003a6       data     static C:\Users\Tim\Desktop\PIC-WEB-5-42-UEXT-full\Microchip\TCPIP Stack\TCP.c
            __TCPFindEx:4   0x0003a6       data     extern C:\Users\Tim\Desktop\PIC-WEB-5-42-UEXT-full\Microchip\TCPIP Stack\TCP.c
           __TCPProcess:0   0x0003a7       data     extern C:\Users\Tim\Desktop\PIC-WEB-5-42-UEXT-full\Microchip\TCPIP Stack\TCP.c
                   remote   0x0003a7       data     static C:\Users\Tim\Desktop\PIC-WEB-5-42-UEXT-full\Microchip\TCPIP Stack\TCP.c
           __TCPProcess:1   0x0003a9       data     extern C:\Users\Tim\Desktop\PIC-WEB-5-42-UEXT-full\Microchip\TCPIP Stack\TCP.c
                  localIP   0x0003a9       data     static C:\Users\Tim\Desktop\PIC-WEB-5-42-UEXT-full\Microchip\TCPIP Stack\TCP.c
           __TCPProcess:2   0x0003ab       data     extern C:\Users\Tim\Desktop\PIC-WEB-5-42-UEXT-full\Microchip\TCPIP Stack\TCP.c
                      len   0x0003ab       data     static C:\Users\Tim\Desktop\PIC-WEB-5-42-UEXT-full\Microchip\TCPIP Stack\TCP.c
                vTCPFlags   0x0003ad       data     static C:\Users\Tim\Desktop\PIC-WEB-5-42-UEXT-full\Microchip\TCPIP Stack\TCP.c
              __SendTCP:0   0x0003ad       data     static C:\Users\Tim\Desktop\PIC-WEB-5-42-UEXT-full\Microchip\TCPIP Stack\TCP.c
               vSendFlags   0x0003ae       data     static C:\Users\Tim\Desktop\PIC-WEB-5-42-UEXT-full\Microchip\TCPIP Stack\TCP.c
              __SendTCP:1   0x0003ae       data     static C:\Users\Tim\Desktop\PIC-WEB-5-42-UEXT-full\Microchip\TCPIP Stack\TCP.c
   __FindMatchingSocket:0   0x0003af       data     static C:\Users\Tim\Desktop\PIC-WEB-5-42-UEXT-full\Microchip\TCPIP Stack\TCP.c
                        h   0x0003af       data     static C:\Users\Tim\Desktop\PIC-WEB-5-42-UEXT-full\Microchip\TCPIP Stack\TCP.c
   __FindMatchingSocket:1   0x0003b1       data     static C:\Users\Tim\Desktop\PIC-WEB-5-42-UEXT-full\Microchip\TCPIP Stack\TCP.c
                   remote   0x0003b1       data     static C:\Users\Tim\Desktop\PIC-WEB-5-42-UEXT-full\Microchip\TCPIP Stack\TCP.c
        __SwapTCPHeader:0   0x0003b3       data     static C:\Users\Tim\Desktop\PIC-WEB-5-42-UEXT-full\Microchip\TCPIP Stack\TCP.c
                   header   0x0003b3       data     static C:\Users\Tim\Desktop\PIC-WEB-5-42-UEXT-full\Microchip\TCPIP Stack\TCP.c
                        h   0x0003b5       data     static C:\Users\Tim\Desktop\PIC-WEB-5-42-UEXT-full\Microchip\TCPIP Stack\TCP.c
         __HandleTCPSeg:0   0x0003b5       data     static C:\Users\Tim\Desktop\PIC-WEB-5-42-UEXT-full\Microchip\TCPIP Stack\TCP.c
                      len   0x0003b7       data     static C:\Users\Tim\Desktop\PIC-WEB-5-42-UEXT-full\Microchip\TCPIP Stack\TCP.c
         __HandleTCPSeg:1   0x0003b7       data     static C:\Users\Tim\Desktop\PIC-WEB-5-42-UEXT-full\Microchip\TCPIP Stack\TCP.c
                     hTCP   0x0003b9       data     static C:\Users\Tim\Desktop\PIC-WEB-5-42-UEXT-full\Microchip\TCPIP Stack\TCP.c
    __TCPAdjustFIFOSize:0   0x0003b9       data     extern C:\Users\Tim\Desktop\PIC-WEB-5-42-UEXT-full\Microchip\TCPIP Stack\TCP.c
               wMinRXSize   0x0003ba       data     static C:\Users\Tim\Desktop\PIC-WEB-5-42-UEXT-full\Microchip\TCPIP Stack\TCP.c
    __TCPAdjustFIFOSize:1   0x0003ba       data     extern C:\Users\Tim\Desktop\PIC-WEB-5-42-UEXT-full\Microchip\TCPIP Stack\TCP.c
               wMinTXSize   0x0003bc       data     static C:\Users\Tim\Desktop\PIC-WEB-5-42-UEXT-full\Microchip\TCPIP Stack\TCP.c
    __TCPAdjustFIFOSize:2   0x0003bc       data     extern C:\Users\Tim\Desktop\PIC-WEB-5-42-UEXT-full\Microchip\TCPIP Stack\TCP.c
                   vFlags   0x0003be       data     static C:\Users\Tim\Desktop\PIC-WEB-5-42-UEXT-full\Microchip\TCPIP Stack\TCP.c
    __TCPAdjustFIFOSize:3   0x0003be       data     extern C:\Users\Tim\Desktop\PIC-WEB-5-42-UEXT-full\Microchip\TCPIP Stack\TCP.c
           __TCPRAMCopy:0   0x0003bf       data     static C:\Users\Tim\Desktop\PIC-WEB-5-42-UEXT-full\Microchip\TCPIP Stack\TCP.c
                  ptrDest   0x0003bf       data     static C:\Users\Tim\Desktop\PIC-WEB-5-42-UEXT-full\Microchip\TCPIP Stack\TCP.c
           __TCPRAMCopy:1   0x0003c1       data     static C:\Users\Tim\Desktop\PIC-WEB-5-42-UEXT-full\Microchip\TCPIP Stack\TCP.c
                vDestType   0x0003c1       data     static C:\Users\Tim\Desktop\PIC-WEB-5-42-UEXT-full\Microchip\TCPIP Stack\TCP.c
           __TCPRAMCopy:2   0x0003c2       data     static C:\Users\Tim\Desktop\PIC-WEB-5-42-UEXT-full\Microchip\TCPIP Stack\TCP.c
                ptrSource   0x0003c2       data     static C:\Users\Tim\Desktop\PIC-WEB-5-42-UEXT-full\Microchip\TCPIP Stack\TCP.c
              vSourceType   0x0003c4       data     static C:\Users\Tim\Desktop\PIC-WEB-5-42-UEXT-full\Microchip\TCPIP Stack\TCP.c
           __TCPRAMCopy:3   0x0003c4       data     static C:\Users\Tim\Desktop\PIC-WEB-5-42-UEXT-full\Microchip\TCPIP Stack\TCP.c
                  wLength   0x0003c5       data     static C:\Users\Tim\Desktop\PIC-WEB-5-42-UEXT-full\Microchip\TCPIP Stack\TCP.c
           __TCPRAMCopy:4   0x0003c5       data     static C:\Users\Tim\Desktop\PIC-WEB-5-42-UEXT-full\Microchip\TCPIP Stack\TCP.c
                    wDest   0x0003c7       data     static C:\Users\Tim\Desktop\PIC-WEB-5-42-UEXT-full\Microchip\TCPIP Stack\TCP.c
        __TCPRAMCopyROM:0   0x0003c7       data     static C:\Users\Tim\Desktop\PIC-WEB-5-42-UEXT-full\Microchip\TCPIP Stack\TCP.c
        __TCPRAMCopyROM:1   0x0003c9       data     static C:\Users\Tim\Desktop\PIC-WEB-5-42-UEXT-full\Microchip\TCPIP Stack\TCP.c
                wDestType   0x0003c9       data     static C:\Users\Tim\Desktop\PIC-WEB-5-42-UEXT-full\Microchip\TCPIP Stack\TCP.c
                  wSource   0x0003ca       data     static C:\Users\Tim\Desktop\PIC-WEB-5-42-UEXT-full\Microchip\TCPIP Stack\TCP.c
        __TCPRAMCopyROM:2   0x0003ca       data     static C:\Users\Tim\Desktop\PIC-WEB-5-42-UEXT-full\Microchip\TCPIP Stack\TCP.c
        __TCPRAMCopyROM:3   0x0003cd       data     static C:\Users\Tim\Desktop\PIC-WEB-5-42-UEXT-full\Microchip\TCPIP Stack\TCP.c
                  wLength   0x0003cd       data     static C:\Users\Tim\Desktop\PIC-WEB-5-42-UEXT-full\Microchip\TCPIP Stack\TCP.c
               DHCPClient   0x0003cf       data     static C:\Users\Tim\Desktop\PIC-WEB-5-42-UEXT-full\Microchip\TCPIP Stack\DHCP.c
             __DHCPInit:0   0x0003f7       data     extern C:\Users\Tim\Desktop\PIC-WEB-5-42-UEXT-full\Microchip\TCPIP Stack\DHCP.c
               vInterface   0x0003f7       data     static C:\Users\Tim\Desktop\PIC-WEB-5-42-UEXT-full\Microchip\TCPIP Stack\DHCP.c
          __DHCPDisable:0   0x0003f8       data     extern C:\Users\Tim\Desktop\PIC-WEB-5-42-UEXT-full\Microchip\TCPIP Stack\DHCP.c
               vInterface   0x0003f8       data     static C:\Users\Tim\Desktop\PIC-WEB-5-42-UEXT-full\Microchip\TCPIP Stack\DHCP.c
               vInterface   0x0003f9       data     static C:\Users\Tim\Desktop\PIC-WEB-5-42-UEXT-full\Microchip\TCPIP Stack\DHCP.c
           __DHCPEnable:0   0x0003f9       data     extern C:\Users\Tim\Desktop\PIC-WEB-5-42-UEXT-full\Microchip\TCPIP Stack\DHCP.c
        __DHCPIsEnabled:0   0x0003fa       data     extern C:\Users\Tim\Desktop\PIC-WEB-5-42-UEXT-full\Microchip\TCPIP Stack\DHCP.c
               vInterface   0x0003fa       data     static C:\Users\Tim\Desktop\PIC-WEB-5-42-UEXT-full\Microchip\TCPIP Stack\DHCP.c
               vInterface   0x0003fb       data     static C:\Users\Tim\Desktop\PIC-WEB-5-42-UEXT-full\Microchip\TCPIP Stack\DHCP.c
          __DHCPIsBound:0   0x0003fb       data     extern C:\Users\Tim\Desktop\PIC-WEB-5-42-UEXT-full\Microchip\TCPIP Stack\DHCP.c
               vInterface   0x0003fc       data     static C:\Users\Tim\Desktop\PIC-WEB-5-42-UEXT-full\Microchip\TCPIP Stack\DHCP.c
     __DHCPStateChanged:0   0x0003fc       data     extern C:\Users\Tim\Desktop\PIC-WEB-5-42-UEXT-full\Microchip\TCPIP Stack\DHCP.c
 __DHCPIsServerDetected:0   0x0003fd       data     extern C:\Users\Tim\Desktop\PIC-WEB-5-42-UEXT-full\Microchip\TCPIP Stack\DHCP.c
               vInterface   0x0003fd       data     static C:\Users\Tim\Desktop\PIC-WEB-5-42-UEXT-full\Microchip\TCPIP Stack\DHCP.c
              messageType   0x0003fe       data     static C:\Users\Tim\Desktop\PIC-WEB-5-42-UEXT-full\Microchip\TCPIP Stack\DHCP.c
            ___DHCPSend:0   0x0003fe       data     static C:\Users\Tim\Desktop\PIC-WEB-5-42-UEXT-full\Microchip\TCPIP Stack\DHCP.c
            ___DHCPSend:1   0x0003ff       data     static C:\Users\Tim\Desktop\PIC-WEB-5-42-UEXT-full\Microchip\TCPIP Stack\DHCP.c
                bRenewing   0x0003ff       data     static C:\Users\Tim\Desktop\PIC-WEB-5-42-UEXT-full\Microchip\TCPIP Stack\DHCP.c
                  curHTTP   0x000400       data     extern C:\Users\Tim\Desktop\PIC-WEB-5-42-UEXT-full\Microchip\TCPIP Stack\HTTP2.c
                httpStubs   0x00047f       data     extern C:\Users\Tim\Desktop\PIC-WEB-5-42-UEXT-full\Microchip\TCPIP Stack\HTTP2.c
                curHTTPID   0x000483       data     extern C:\Users\Tim\Desktop\PIC-WEB-5-42-UEXT-full\Microchip\TCPIP Stack\HTTP2.c
               DhcpIpPool   0x000484       data     extern C:\Users\Tim\Desktop\PIC-WEB-5-42-UEXT-full\Microchip\TCPIP Stack\DHCPs.c
            DHCPNextLease   0x0004de       data     static C:\Users\Tim\Desktop\PIC-WEB-5-42-UEXT-full\Microchip\TCPIP Stack\DHCPs.c
 __DHCPReplyToDiscovery:0   0x0004e2       data     static C:\Users\Tim\Desktop\PIC-WEB-5-42-UEXT-full\Microchip\TCPIP Stack\DHCPs.c
                   Header   0x0004e2       data     static C:\Users\Tim\Desktop\PIC-WEB-5-42-UEXT-full\Microchip\TCPIP Stack\DHCPs.c
   __DHCPReplyToRequest:0   0x0004e4       data     static C:\Users\Tim\Desktop\PIC-WEB-5-42-UEXT-full\Microchip\TCPIP Stack\DHCPs.c
                   Header   0x0004e4       data     static C:\Users\Tim\Desktop\PIC-WEB-5-42-UEXT-full\Microchip\TCPIP Stack\DHCPs.c
                  bAccept   0x0004e6       data     static C:\Users\Tim\Desktop\PIC-WEB-5-42-UEXT-full\Microchip\TCPIP Stack\DHCPs.c
   __DHCPReplyToRequest:1   0x0004e6       data     static C:\Users\Tim\Desktop\PIC-WEB-5-42-UEXT-full\Microchip\TCPIP Stack\DHCPs.c
                   bRenew   0x0004e7       data     static C:\Users\Tim\Desktop\PIC-WEB-5-42-UEXT-full\Microchip\TCPIP Stack\DHCPs.c
   __DHCPReplyToRequest:2   0x0004e7       data     static C:\Users\Tim\Desktop\PIC-WEB-5-42-UEXT-full\Microchip\TCPIP Stack\DHCPs.c
                  MacAddr   0x0004e8       data     static C:\Users\Tim\Desktop\PIC-WEB-5-42-UEXT-full\Microchip\TCPIP Stack\DHCPs.c
__getIndexByMacaddr_DhcpPool:0   0x0004e8       data     static C:\Users\Tim\Desktop\PIC-WEB-5-42-UEXT-full\Microchip\TCPIP Stack\DHCPs.c
                   ipaddr   0x0004ea       data     static C:\Users\Tim\Desktop\PIC-WEB-5-42-UEXT-full\Microchip\TCPIP Stack\DHCPs.c
       __isIpAddrInPool:0   0x0004ea       data     static C:\Users\Tim\Desktop\PIC-WEB-5-42-UEXT-full\Microchip\TCPIP Stack\DHCPs.c
__GetIPAddrFromIndex_DhcpPool:0   0x0004ee       data     static C:\Users\Tim\Desktop\PIC-WEB-5-42-UEXT-full\Microchip\TCPIP Stack\DHCPs.c
                    index   0x0004ee       data     static C:\Users\Tim\Desktop\PIC-WEB-5-42-UEXT-full\Microchip\TCPIP Stack\DHCPs.c
                 macAddr1   0x0004ef       data     static C:\Users\Tim\Desktop\PIC-WEB-5-42-UEXT-full\Microchip\TCPIP Stack\DHCPs.c
     __Compare_MAC_addr:0   0x0004ef       data     static C:\Users\Tim\Desktop\PIC-WEB-5-42-UEXT-full\Microchip\TCPIP Stack\DHCPs.c
                 macAddr2   0x0004f1       data     static C:\Users\Tim\Desktop\PIC-WEB-5-42-UEXT-full\Microchip\TCPIP Stack\DHCPs.c
     __Compare_MAC_addr:1   0x0004f1       data     static C:\Users\Tim\Desktop\PIC-WEB-5-42-UEXT-full\Microchip\TCPIP Stack\DHCPs.c
                  macAddr   0x0004f3       data     static C:\Users\Tim\Desktop\PIC-WEB-5-42-UEXT-full\Microchip\TCPIP Stack\DHCPs.c
  __isMacAddr_Effective:0   0x0004f3       data     static C:\Users\Tim\Desktop\PIC-WEB-5-42-UEXT-full\Microchip\TCPIP Stack\DHCPs.c
                   Header   0x0004f5       data     static C:\Users\Tim\Desktop\PIC-WEB-5-42-UEXT-full\Microchip\TCPIP Stack\DHCPs.c
__preAssign_ToDHCPClient_FromPool:0   0x0004f5       data     static C:\Users\Tim\Desktop\PIC-WEB-5-42-UEXT-full\Microchip\TCPIP Stack\DHCPs.c
                  macAddr   0x0004f7       data     static C:\Users\Tim\Desktop\PIC-WEB-5-42-UEXT-full\Microchip\TCPIP Stack\DHCPs.c
__postAssign_ToDHCPClient_FromPool:0   0x0004f7       data     static C:\Users\Tim\Desktop\PIC-WEB-5-42-UEXT-full\Microchip\TCPIP Stack\DHCPs.c
__postAssign_ToDHCPClient_FromPool:1   0x0004f9       data     static C:\Users\Tim\Desktop\PIC-WEB-5-42-UEXT-full\Microchip\TCPIP Stack\DHCPs.c
                 ipv4Addr   0x0004f9       data     static C:\Users\Tim\Desktop\PIC-WEB-5-42-UEXT-full\Microchip\TCPIP Stack\DHCPs.c
                 MySocket   0x0004fb       data     static C:\Users\Tim\Desktop\PIC-WEB-5-42-UEXT-full\Microchip\TCPIP Stack\NBNS.c
                   String   0x0004fc       data     static C:\Users\Tim\Desktop\PIC-WEB-5-42-UEXT-full\Microchip\TCPIP Stack\NBNS.c
          __NBNSPutName:0   0x0004fc       data     static C:\Users\Tim\Desktop\PIC-WEB-5-42-UEXT-full\Microchip\TCPIP Stack\NBNS.c
                   String   0x0004fe       data     static C:\Users\Tim\Desktop\PIC-WEB-5-42-UEXT-full\Microchip\TCPIP Stack\NBNS.c
          __NBNSGetName:0   0x0004fe       data     static C:\Users\Tim\Desktop\PIC-WEB-5-42-UEXT-full\Microchip\TCPIP Stack\NBNS.c
              sendRequest   0x000500       data     static C:\Users\Tim\Desktop\PIC-WEB-5-42-UEXT-full\TCPIP\Demo App\BerkeleyTCPClientDemo.c
           BSDClientState   0x00056d       data     static C:\Users\Tim\Desktop\PIC-WEB-5-42-UEXT-full\TCPIP\Demo App\BerkeleyTCPClientDemo.c
                lastBlock   0x00056e       data     extern C:\Users\Tim\Desktop\PIC-WEB-5-42-UEXT-full\Microchip\TCPIP Stack\Hashes.c
                   theSum   0x0005ae       data     static C:\Users\Tim\Desktop\PIC-WEB-5-42-UEXT-full\Microchip\TCPIP Stack\Hashes.c
          __HashAddData:0   0x0005ae       data     extern C:\Users\Tim\Desktop\PIC-WEB-5-42-UEXT-full\Microchip\TCPIP Stack\Hashes.c
                     data   0x0005b0       data     static C:\Users\Tim\Desktop\PIC-WEB-5-42-UEXT-full\Microchip\TCPIP Stack\Hashes.c
          __HashAddData:1   0x0005b0       data     extern C:\Users\Tim\Desktop\PIC-WEB-5-42-UEXT-full\Microchip\TCPIP Stack\Hashes.c
                      len   0x0005b2       data     static C:\Users\Tim\Desktop\PIC-WEB-5-42-UEXT-full\Microchip\TCPIP Stack\Hashes.c
          __HashAddData:2   0x0005b2       data     extern C:\Users\Tim\Desktop\PIC-WEB-5-42-UEXT-full\Microchip\TCPIP Stack\Hashes.c
                   theSum   0x0005b4       data     static C:\Users\Tim\Desktop\PIC-WEB-5-42-UEXT-full\Microchip\TCPIP Stack\Hashes.c
       __HashAddROMData:0   0x0005b4       data     extern C:\Users\Tim\Desktop\PIC-WEB-5-42-UEXT-full\Microchip\TCPIP Stack\Hashes.c
                     data   0x0005b6       data     static C:\Users\Tim\Desktop\PIC-WEB-5-42-UEXT-full\Microchip\TCPIP Stack\Hashes.c
       __HashAddROMData:1   0x0005b6       data     extern C:\Users\Tim\Desktop\PIC-WEB-5-42-UEXT-full\Microchip\TCPIP Stack\Hashes.c
                      len   0x0005b9       data     static C:\Users\Tim\Desktop\PIC-WEB-5-42-UEXT-full\Microchip\TCPIP Stack\Hashes.c
       __HashAddROMData:2   0x0005b9       data     extern C:\Users\Tim\Desktop\PIC-WEB-5-42-UEXT-full\Microchip\TCPIP Stack\Hashes.c
                   theSum   0x0005bb       data     static C:\Users\Tim\Desktop\PIC-WEB-5-42-UEXT-full\Microchip\TCPIP Stack\Hashes.c
        __MD5Initialize:0   0x0005bb       data     extern C:\Users\Tim\Desktop\PIC-WEB-5-42-UEXT-full\Microchip\TCPIP Stack\Hashes.c
                   theSum   0x0005bd       data     static C:\Users\Tim\Desktop\PIC-WEB-5-42-UEXT-full\Microchip\TCPIP Stack\Hashes.c
           __MD5AddData:0   0x0005bd       data     extern C:\Users\Tim\Desktop\PIC-WEB-5-42-UEXT-full\Microchip\TCPIP Stack\Hashes.c
           __MD5AddData:1   0x0005bf       data     extern C:\Users\Tim\Desktop\PIC-WEB-5-42-UEXT-full\Microchip\TCPIP Stack\Hashes.c
                     data   0x0005bf       data     static C:\Users\Tim\Desktop\PIC-WEB-5-42-UEXT-full\Microchip\TCPIP Stack\Hashes.c
                      len   0x0005c1       data     static C:\Users\Tim\Desktop\PIC-WEB-5-42-UEXT-full\Microchip\TCPIP Stack\Hashes.c
           __MD5AddData:2   0x0005c1       data     extern C:\Users\Tim\Desktop\PIC-WEB-5-42-UEXT-full\Microchip\TCPIP Stack\Hashes.c
        __MD5AddROMData:0   0x0005c3       data     extern C:\Users\Tim\Desktop\PIC-WEB-5-42-UEXT-full\Microchip\TCPIP Stack\Hashes.c
                   theSum   0x0005c3       data     static C:\Users\Tim\Desktop\PIC-WEB-5-42-UEXT-full\Microchip\TCPIP Stack\Hashes.c
                     data   0x0005c5       data     static C:\Users\Tim\Desktop\PIC-WEB-5-42-UEXT-full\Microchip\TCPIP Stack\Hashes.c
        __MD5AddROMData:1   0x0005c5       data     extern C:\Users\Tim\Desktop\PIC-WEB-5-42-UEXT-full\Microchip\TCPIP Stack\Hashes.c
        __MD5AddROMData:2   0x0005c8       data     extern C:\Users\Tim\Desktop\PIC-WEB-5-42-UEXT-full\Microchip\TCPIP Stack\Hashes.c
                      len   0x0005c8       data     static C:\Users\Tim\Desktop\PIC-WEB-5-42-UEXT-full\Microchip\TCPIP Stack\Hashes.c
         __MD5HashBlock:0   0x0005ca       data     static C:\Users\Tim\Desktop\PIC-WEB-5-42-UEXT-full\Microchip\TCPIP Stack\Hashes.c
                     data   0x0005ca       data     static C:\Users\Tim\Desktop\PIC-WEB-5-42-UEXT-full\Microchip\TCPIP Stack\Hashes.c
         __MD5HashBlock:1   0x0005cc       data     static C:\Users\Tim\Desktop\PIC-WEB-5-42-UEXT-full\Microchip\TCPIP Stack\Hashes.c
                       h0   0x0005cc       data     static C:\Users\Tim\Desktop\PIC-WEB-5-42-UEXT-full\Microchip\TCPIP Stack\Hashes.c
         __MD5HashBlock:2   0x0005ce       data     static C:\Users\Tim\Desktop\PIC-WEB-5-42-UEXT-full\Microchip\TCPIP Stack\Hashes.c
                       h1   0x0005ce       data     static C:\Users\Tim\Desktop\PIC-WEB-5-42-UEXT-full\Microchip\TCPIP Stack\Hashes.c
         __MD5HashBlock:3   0x0005d0       data     static C:\Users\Tim\Desktop\PIC-WEB-5-42-UEXT-full\Microchip\TCPIP Stack\Hashes.c
                       h2   0x0005d0       data     static C:\Users\Tim\Desktop\PIC-WEB-5-42-UEXT-full\Microchip\TCPIP Stack\Hashes.c
                       h3   0x0005d2       data     static C:\Users\Tim\Desktop\PIC-WEB-5-42-UEXT-full\Microchip\TCPIP Stack\Hashes.c
         __MD5HashBlock:4   0x0005d2       data     static C:\Users\Tim\Desktop\PIC-WEB-5-42-UEXT-full\Microchip\TCPIP Stack\Hashes.c
         __MD5Calculate:0   0x0005d4       data     extern C:\Users\Tim\Desktop\PIC-WEB-5-42-UEXT-full\Microchip\TCPIP Stack\Hashes.c
                   theSum   0x0005d4       data     static C:\Users\Tim\Desktop\PIC-WEB-5-42-UEXT-full\Microchip\TCPIP Stack\Hashes.c
                   result   0x0005d6       data     static C:\Users\Tim\Desktop\PIC-WEB-5-42-UEXT-full\Microchip\TCPIP Stack\Hashes.c
         __MD5Calculate:1   0x0005d6       data     extern C:\Users\Tim\Desktop\PIC-WEB-5-42-UEXT-full\Microchip\TCPIP Stack\Hashes.c
                    Cache   0x0005d8       data     static C:\Users\Tim\Desktop\PIC-WEB-5-42-UEXT-full\Microchip\TCPIP Stack\ARP.c
                SrcIPAddr   0x0005e2       data     static C:\Users\Tim\Desktop\PIC-WEB-5-42-UEXT-full\Microchip\TCPIP Stack\ARP.c
           __ARPSendPkt:0   0x0005e2       data     extern C:\Users\Tim\Desktop\PIC-WEB-5-42-UEXT-full\Microchip\TCPIP Stack\ARP.c
           __ARPSendPkt:1   0x0005e6       data     extern C:\Users\Tim\Desktop\PIC-WEB-5-42-UEXT-full\Microchip\TCPIP Stack\ARP.c
               DestIPAddr   0x0005e6       data     static C:\Users\Tim\Desktop\PIC-WEB-5-42-UEXT-full\Microchip\TCPIP Stack\ARP.c
           __ARPSendPkt:2   0x0005ea       data     extern C:\Users\Tim\Desktop\PIC-WEB-5-42-UEXT-full\Microchip\TCPIP Stack\ARP.c
                   op_req   0x0005ea       data     static C:\Users\Tim\Desktop\PIC-WEB-5-42-UEXT-full\Microchip\TCPIP Stack\ARP.c
                   packet   0x0005eb       data     static C:\Users\Tim\Desktop\PIC-WEB-5-42-UEXT-full\Microchip\TCPIP Stack\ARP.c
               __ARPPut:0   0x0005eb       data     static C:\Users\Tim\Desktop\PIC-WEB-5-42-UEXT-full\Microchip\TCPIP Stack\ARP.c
                   Target   0x0005ed       data     static C:\Users\Tim\Desktop\PIC-WEB-5-42-UEXT-full\Microchip\TCPIP Stack\ARP.c
           __ARPResolve:0   0x0005f7       data     extern C:\Users\Tim\Desktop\PIC-WEB-5-42-UEXT-full\Microchip\TCPIP Stack\ARP.c
                   IPAddr   0x0005f7       data     static C:\Users\Tim\Desktop\PIC-WEB-5-42-UEXT-full\Microchip\TCPIP Stack\ARP.c
        __ARPIsResolved:0   0x0005f9       data     extern C:\Users\Tim\Desktop\PIC-WEB-5-42-UEXT-full\Microchip\TCPIP Stack\ARP.c
                   IPAddr   0x0005f9       data     static C:\Users\Tim\Desktop\PIC-WEB-5-42-UEXT-full\Microchip\TCPIP Stack\ARP.c
                  MACAddr   0x0005fb       data     static C:\Users\Tim\Desktop\PIC-WEB-5-42-UEXT-full\Microchip\TCPIP Stack\ARP.c
        __ARPIsResolved:1   0x0005fb       data     extern C:\Users\Tim\Desktop\PIC-WEB-5-42-UEXT-full\Microchip\TCPIP Stack\ARP.c
        __SwapARPPacket:0   0x0005fd       data     extern C:\Users\Tim\Desktop\PIC-WEB-5-42-UEXT-full\Microchip\TCPIP Stack\ARP.c
                        p   0x0005fd       data     static C:\Users\Tim\Desktop\PIC-WEB-5-42-UEXT-full\Microchip\TCPIP Stack\ARP.c
                 MySocket   0x0005ff       data     static C:\Users\Tim\Desktop\PIC-WEB-5-42-UEXT-full\TCPIP\Demo App\GenericTCPServer.c
              vUARTRXFIFO   0x000600       data     static C:\Users\Tim\Desktop\PIC-WEB-5-42-UEXT-full\Microchip\TCPIP Stack\UART2TCPBridge.c
              vUARTTXFIFO   0x000641       data     static C:\Users\Tim\Desktop\PIC-WEB-5-42-UEXT-full\Microchip\TCPIP Stack\UART2TCPBridge.c
                        i   0x000652       data     static C:\Users\Tim\Desktop\PIC-WEB-5-42-UEXT-full\Microchip\TCPIP Stack\UART2TCPBridge.c
                AppConfig   0x000653       data     extern C:\Users\Tim\Desktop\PIC-WEB-5-42-UEXT-full\TCPIP\Demo App\MainDemo.c
wOriginalAppConfigChecksum   0x000686       data     static C:\Users\Tim\Desktop\PIC-WEB-5-42-UEXT-full\TCPIP\Demo App\MainDemo.c
                AN0String   0x000688       data     extern C:\Users\Tim\Desktop\PIC-WEB-5-42-UEXT-full\TCPIP\Demo App\MainDemo.c
                AN1String   0x000690       data     extern C:\Users\Tim\Desktop\PIC-WEB-5-42-UEXT-full\TCPIP\Demo App\MainDemo.c
       __DisplayIPValue:0   0x000698       data     extern C:\Users\Tim\Desktop\PIC-WEB-5-42-UEXT-full\TCPIP\Demo App\MainDemo.c
                    IPVal   0x000698       data     static C:\Users\Tim\Desktop\PIC-WEB-5-42-UEXT-full\TCPIP\Demo App\MainDemo.c
        __SaveAppConfig:0   0x00069c       data     extern C:\Users\Tim\Desktop\PIC-WEB-5-42-UEXT-full\TCPIP\Demo App\MainDemo.c
             ptrAppConfig   0x00069c       data     static C:\Users\Tim\Desktop\PIC-WEB-5-42-UEXT-full\TCPIP\Demo App\MainDemo.c
                    adres   0x00069e       data     static C:\Users\Tim\Desktop\PIC-WEB-5-42-UEXT-full\TCPIP\Demo App\MainDemo.c
     __convertToDegrees:0   0x00069e       data     extern C:\Users\Tim\Desktop\PIC-WEB-5-42-UEXT-full\TCPIP\Demo App\MainDemo.c
           BSDSocketArray   0x0006a0       data     static C:\Users\Tim\Desktop\PIC-WEB-5-42-UEXT-full\Microchip\TCPIP Stack\BerkeleyAPI.c
               ServerName   0x0006eb       data     static C:\Users\Tim\Desktop\PIC-WEB-5-42-UEXT-full\TCPIP\Demo App\GenericTCPClient.c
               ServerPort   0x0006fa       data     static C:\Users\Tim\Desktop\PIC-WEB-5-42-UEXT-full\TCPIP\Demo App\GenericTCPClient.c
                 MySocket   0x0006fc       data     static C:\Users\Tim\Desktop\PIC-WEB-5-42-UEXT-full\TCPIP\Demo App\GenericTCPClient.c
   GenericTCPExampleState   0x0006fd       data     static C:\Users\Tim\Desktop\PIC-WEB-5-42-UEXT-full\TCPIP\Demo App\GenericTCPClient.c
              tblptru_sav   0x0006fe       data     static E:\3.46\pic18-lt\cxx-framework\src\traditional\stdclib\mcmpp2r.asm
              tblptru_sav   0x0006ff       data     static E:\3.46\pic18-lt\cxx-framework\src\traditional\stdclib\mcpyp2r.asm
         __LFSRSeedRand:0   0x000700       data     extern C:\Users\Tim\Desktop\PIC-WEB-5-42-UEXT-full\Microchip\TCPIP Stack\Helpers.c
                   dwSeed   0x000700       data     static C:\Users\Tim\Desktop\PIC-WEB-5-42-UEXT-full\Microchip\TCPIP Stack\Helpers.c
                      str   0x000704       data     static C:\Users\Tim\Desktop\PIC-WEB-5-42-UEXT-full\Microchip\TCPIP Stack\Helpers.c
    __StringToIPAddress:0   0x000704       data     extern C:\Users\Tim\Desktop\PIC-WEB-5-42-UEXT-full\Microchip\TCPIP Stack\Helpers.c
                IPAddress   0x000706       data     static C:\Users\Tim\Desktop\PIC-WEB-5-42-UEXT-full\Microchip\TCPIP Stack\Helpers.c
    __StringToIPAddress:1   0x000706       data     extern C:\Users\Tim\Desktop\PIC-WEB-5-42-UEXT-full\Microchip\TCPIP Stack\Helpers.c
 __ROMStringToIPAddress:0   0x000708       data     extern C:\Users\Tim\Desktop\PIC-WEB-5-42-UEXT-full\Microchip\TCPIP Stack\Helpers.c
                      str   0x000708       data     static C:\Users\Tim\Desktop\PIC-WEB-5-42-UEXT-full\Microchip\TCPIP Stack\Helpers.c
 __ROMStringToIPAddress:1   0x00070b       data     extern C:\Users\Tim\Desktop\PIC-WEB-5-42-UEXT-full\Microchip\TCPIP Stack\Helpers.c
                IPAddress   0x00070b       data     static C:\Users\Tim\Desktop\PIC-WEB-5-42-UEXT-full\Microchip\TCPIP Stack\Helpers.c
              cSourceData   0x00070d       data     static C:\Users\Tim\Desktop\PIC-WEB-5-42-UEXT-full\Microchip\TCPIP Stack\Helpers.c
         __Base64Decode:0   0x00070d       data     extern C:\Users\Tim\Desktop\PIC-WEB-5-42-UEXT-full\Microchip\TCPIP Stack\Helpers.c
               wSourceLen   0x00070f       data     static C:\Users\Tim\Desktop\PIC-WEB-5-42-UEXT-full\Microchip\TCPIP Stack\Helpers.c
         __Base64Decode:1   0x00070f       data     extern C:\Users\Tim\Desktop\PIC-WEB-5-42-UEXT-full\Microchip\TCPIP Stack\Helpers.c
                cDestData   0x000711       data     static C:\Users\Tim\Desktop\PIC-WEB-5-42-UEXT-full\Microchip\TCPIP Stack\Helpers.c
         __Base64Decode:2   0x000711       data     extern C:\Users\Tim\Desktop\PIC-WEB-5-42-UEXT-full\Microchip\TCPIP Stack\Helpers.c
                 wDestLen   0x000713       data     static C:\Users\Tim\Desktop\PIC-WEB-5-42-UEXT-full\Microchip\TCPIP Stack\Helpers.c
         __Base64Decode:3   0x000713       data     extern C:\Users\Tim\Desktop\PIC-WEB-5-42-UEXT-full\Microchip\TCPIP Stack\Helpers.c
              cSourceData   0x000715       data     static C:\Users\Tim\Desktop\PIC-WEB-5-42-UEXT-full\Microchip\TCPIP Stack\Helpers.c
         __Base64Encode:0   0x000715       data     extern C:\Users\Tim\Desktop\PIC-WEB-5-42-UEXT-full\Microchip\TCPIP Stack\Helpers.c
               wSourceLen   0x000717       data     static C:\Users\Tim\Desktop\PIC-WEB-5-42-UEXT-full\Microchip\TCPIP Stack\Helpers.c
         __Base64Encode:1   0x000717       data     extern C:\Users\Tim\Desktop\PIC-WEB-5-42-UEXT-full\Microchip\TCPIP Stack\Helpers.c
         __Base64Encode:2   0x000719       data     extern C:\Users\Tim\Desktop\PIC-WEB-5-42-UEXT-full\Microchip\TCPIP Stack\Helpers.c
                cDestData   0x000719       data     static C:\Users\Tim\Desktop\PIC-WEB-5-42-UEXT-full\Microchip\TCPIP Stack\Helpers.c
         __Base64Encode:3   0x00071b       data     extern C:\Users\Tim\Desktop\PIC-WEB-5-42-UEXT-full\Microchip\TCPIP Stack\Helpers.c
                 wDestLen   0x00071b       data     static C:\Users\Tim\Desktop\PIC-WEB-5-42-UEXT-full\Microchip\TCPIP Stack\Helpers.c
                    Value   0x00071d       data     static C:\Users\Tim\Desktop\PIC-WEB-5-42-UEXT-full\Microchip\TCPIP Stack\Helpers.c
                __uitoa:0   0x00071d       data     extern C:\Users\Tim\Desktop\PIC-WEB-5-42-UEXT-full\Microchip\TCPIP Stack\Helpers.c
                   Buffer   0x00071f       data     static C:\Users\Tim\Desktop\PIC-WEB-5-42-UEXT-full\Microchip\TCPIP Stack\Helpers.c
                __uitoa:1   0x00071f       data     extern C:\Users\Tim\Desktop\PIC-WEB-5-42-UEXT-full\Microchip\TCPIP Stack\Helpers.c
               AsciiChars   0x000721       data     static C:\Users\Tim\Desktop\PIC-WEB-5-42-UEXT-full\Microchip\TCPIP Stack\Helpers.c
              __hexatob:0   0x000721       data     extern C:\Users\Tim\Desktop\PIC-WEB-5-42-UEXT-full\Microchip\TCPIP Stack\Helpers.c
         __btohexa_high:0   0x000723       data     extern C:\Users\Tim\Desktop\PIC-WEB-5-42-UEXT-full\Microchip\TCPIP Stack\Helpers.c
                        b   0x000723       data     static C:\Users\Tim\Desktop\PIC-WEB-5-42-UEXT-full\Microchip\TCPIP Stack\Helpers.c
          __btohexa_low:0   0x000724       data     extern C:\Users\Tim\Desktop\PIC-WEB-5-42-UEXT-full\Microchip\TCPIP Stack\Helpers.c
                        b   0x000724       data     static C:\Users\Tim\Desktop\PIC-WEB-5-42-UEXT-full\Microchip\TCPIP Stack\Helpers.c
                        a   0x000725       data     static C:\Users\Tim\Desktop\PIC-WEB-5-42-UEXT-full\Microchip\TCPIP Stack\Helpers.c
       __stricmppgm2ram:0   0x000725       data     extern C:\Users\Tim\Desktop\PIC-WEB-5-42-UEXT-full\Microchip\TCPIP Stack\Helpers.c
       __stricmppgm2ram:1   0x000727       data     extern C:\Users\Tim\Desktop\PIC-WEB-5-42-UEXT-full\Microchip\TCPIP Stack\Helpers.c
                        b   0x000727       data     static C:\Users\Tim\Desktop\PIC-WEB-5-42-UEXT-full\Microchip\TCPIP Stack\Helpers.c
                        v   0x00072a       data     static C:\Users\Tim\Desktop\PIC-WEB-5-42-UEXT-full\Microchip\TCPIP Stack\Helpers.c
                __swaps:0   0x00072a       data     extern C:\Users\Tim\Desktop\PIC-WEB-5-42-UEXT-full\Microchip\TCPIP Stack\Helpers.c
                        v   0x00072c       data     static C:\Users\Tim\Desktop\PIC-WEB-5-42-UEXT-full\Microchip\TCPIP Stack\Helpers.c
                __swapl:0   0x00072c       data     extern C:\Users\Tim\Desktop\PIC-WEB-5-42-UEXT-full\Microchip\TCPIP Stack\Helpers.c
       __CalcIPChecksum:0   0x000730       data     extern C:\Users\Tim\Desktop\PIC-WEB-5-42-UEXT-full\Microchip\TCPIP Stack\Helpers.c
                   buffer   0x000730       data     static C:\Users\Tim\Desktop\PIC-WEB-5-42-UEXT-full\Microchip\TCPIP Stack\Helpers.c
       __CalcIPChecksum:1   0x000732       data     extern C:\Users\Tim\Desktop\PIC-WEB-5-42-UEXT-full\Microchip\TCPIP Stack\Helpers.c
                    count   0x000732       data     static C:\Users\Tim\Desktop\PIC-WEB-5-42-UEXT-full\Microchip\TCPIP Stack\Helpers.c
                 toRotate   0x000734       data     extern C:\Users\Tim\Desktop\PIC-WEB-5-42-UEXT-full\Microchip\TCPIP Stack\Helpers.c
                      val   0x000738       data     static C:\Users\Tim\Desktop\PIC-WEB-5-42-UEXT-full\Microchip\TCPIP Stack\Helpers.c
      __leftRotateDWORD:0   0x000738       data     extern C:\Users\Tim\Desktop\PIC-WEB-5-42-UEXT-full\Microchip\TCPIP Stack\Helpers.c
                     bits   0x00073c       data     static C:\Users\Tim\Desktop\PIC-WEB-5-42-UEXT-full\Microchip\TCPIP Stack\Helpers.c
      __leftRotateDWORD:1   0x00073c       data     extern C:\Users\Tim\Desktop\PIC-WEB-5-42-UEXT-full\Microchip\TCPIP Stack\Helpers.c
    __FormatNetBIOSName:0   0x00073d       data     extern C:\Users\Tim\Desktop\PIC-WEB-5-42-UEXT-full\Microchip\TCPIP Stack\Helpers.c
                     Name   0x00073d       data     static C:\Users\Tim\Desktop\PIC-WEB-5-42-UEXT-full\Microchip\TCPIP Stack\Helpers.c
              __strnchr:0   0x00073f       data     extern C:\Users\Tim\Desktop\PIC-WEB-5-42-UEXT-full\Microchip\TCPIP Stack\Helpers.c
             searchString   0x00073f       data     static C:\Users\Tim\Desktop\PIC-WEB-5-42-UEXT-full\Microchip\TCPIP Stack\Helpers.c
              __strnchr:1   0x000741       data     extern C:\Users\Tim\Desktop\PIC-WEB-5-42-UEXT-full\Microchip\TCPIP Stack\Helpers.c
                    count   0x000741       data     static C:\Users\Tim\Desktop\PIC-WEB-5-42-UEXT-full\Microchip\TCPIP Stack\Helpers.c
              __strnchr:2   0x000743       data     extern C:\Users\Tim\Desktop\PIC-WEB-5-42-UEXT-full\Microchip\TCPIP Stack\Helpers.c
                        c   0x000743       data     static C:\Users\Tim\Desktop\PIC-WEB-5-42-UEXT-full\Microchip\TCPIP Stack\Helpers.c
                  destStr   0x000744       data     static C:\Users\Tim\Desktop\PIC-WEB-5-42-UEXT-full\Microchip\TCPIP Stack\Helpers.c
            __strncpy_m:0   0x000744       data     extern C:\Users\Tim\Desktop\PIC-WEB-5-42-UEXT-full\Microchip\TCPIP Stack\Helpers.c
            __strncpy_m:1   0x000746       data     extern C:\Users\Tim\Desktop\PIC-WEB-5-42-UEXT-full\Microchip\TCPIP Stack\Helpers.c
                 destSize   0x000746       data     static C:\Users\Tim\Desktop\PIC-WEB-5-42-UEXT-full\Microchip\TCPIP Stack\Helpers.c
            __strncpy_m:2   0x000748       data     extern C:\Users\Tim\Desktop\PIC-WEB-5-42-UEXT-full\Microchip\TCPIP Stack\Helpers.c
                 nStrings   0x000748       data     static C:\Users\Tim\Desktop\PIC-WEB-5-42-UEXT-full\Microchip\TCPIP Stack\Helpers.c
                MailState   0x00074a       data     static C:\Users\Tim\Desktop\PIC-WEB-5-42-UEXT-full\TCPIP\Demo App\SMTPDemo.c
              RAMStringTo   0x00074b       data     static C:\Users\Tim\Desktop\PIC-WEB-5-42-UEXT-full\TCPIP\Demo App\SMTPDemo.c
            RAMStringBody   0x00075f       data     static C:\Users\Tim\Desktop\PIC-WEB-5-42-UEXT-full\TCPIP\Demo App\SMTPDemo.c
               __socket:0   0x000792       data     extern C:\Users\Tim\Desktop\PIC-WEB-5-42-UEXT-full\Microchip\TCPIP Stack\BerkeleyAPI.c
                       af   0x000792       data     static C:\Users\Tim\Desktop\PIC-WEB-5-42-UEXT-full\Microchip\TCPIP Stack\BerkeleyAPI.c
               __socket:1   0x000794       data     extern C:\Users\Tim\Desktop\PIC-WEB-5-42-UEXT-full\Microchip\TCPIP Stack\BerkeleyAPI.c
                     type   0x000794       data     static C:\Users\Tim\Desktop\PIC-WEB-5-42-UEXT-full\Microchip\TCPIP Stack\BerkeleyAPI.c
               __socket:2   0x000796       data     extern C:\Users\Tim\Desktop\PIC-WEB-5-42-UEXT-full\Microchip\TCPIP Stack\BerkeleyAPI.c
                 protocol   0x000796       data     static C:\Users\Tim\Desktop\PIC-WEB-5-42-UEXT-full\Microchip\TCPIP Stack\BerkeleyAPI.c
                        s   0x000798       data     static C:\Users\Tim\Desktop\PIC-WEB-5-42-UEXT-full\Microchip\TCPIP Stack\BerkeleyAPI.c
                 __bind:0   0x000798       data     extern C:\Users\Tim\Desktop\PIC-WEB-5-42-UEXT-full\Microchip\TCPIP Stack\BerkeleyAPI.c
                     name   0x000799       data     static C:\Users\Tim\Desktop\PIC-WEB-5-42-UEXT-full\Microchip\TCPIP Stack\BerkeleyAPI.c
                 __bind:1   0x000799       data     extern C:\Users\Tim\Desktop\PIC-WEB-5-42-UEXT-full\Microchip\TCPIP Stack\BerkeleyAPI.c
                  namelen   0x00079b       data     static C:\Users\Tim\Desktop\PIC-WEB-5-42-UEXT-full\Microchip\TCPIP Stack\BerkeleyAPI.c
                 __bind:2   0x00079b       data     extern C:\Users\Tim\Desktop\PIC-WEB-5-42-UEXT-full\Microchip\TCPIP Stack\BerkeleyAPI.c
               __listen:0   0x00079d       data     extern C:\Users\Tim\Desktop\PIC-WEB-5-42-UEXT-full\Microchip\TCPIP Stack\BerkeleyAPI.c
                        s   0x00079d       data     static C:\Users\Tim\Desktop\PIC-WEB-5-42-UEXT-full\Microchip\TCPIP Stack\BerkeleyAPI.c
                  backlog   0x00079e       data     static C:\Users\Tim\Desktop\PIC-WEB-5-42-UEXT-full\Microchip\TCPIP Stack\BerkeleyAPI.c
               __listen:1   0x00079e       data     extern C:\Users\Tim\Desktop\PIC-WEB-5-42-UEXT-full\Microchip\TCPIP Stack\BerkeleyAPI.c
                        s   0x0007a0       data     static C:\Users\Tim\Desktop\PIC-WEB-5-42-UEXT-full\Microchip\TCPIP Stack\BerkeleyAPI.c
               __accept:0   0x0007a0       data     extern C:\Users\Tim\Desktop\PIC-WEB-5-42-UEXT-full\Microchip\TCPIP Stack\BerkeleyAPI.c
                     addr   0x0007a1       data     static C:\Users\Tim\Desktop\PIC-WEB-5-42-UEXT-full\Microchip\TCPIP Stack\BerkeleyAPI.c
               __accept:1   0x0007a1       data     extern C:\Users\Tim\Desktop\PIC-WEB-5-42-UEXT-full\Microchip\TCPIP Stack\BerkeleyAPI.c
               __accept:2   0x0007a3       data     extern C:\Users\Tim\Desktop\PIC-WEB-5-42-UEXT-full\Microchip\TCPIP Stack\BerkeleyAPI.c
                  addrlen   0x0007a3       data     static C:\Users\Tim\Desktop\PIC-WEB-5-42-UEXT-full\Microchip\TCPIP Stack\BerkeleyAPI.c
                        s   0x0007a5       data     static C:\Users\Tim\Desktop\PIC-WEB-5-42-UEXT-full\Microchip\TCPIP Stack\BerkeleyAPI.c
              __connect:0   0x0007a5       data     extern C:\Users\Tim\Desktop\PIC-WEB-5-42-UEXT-full\Microchip\TCPIP Stack\BerkeleyAPI.c
              __connect:1   0x0007a6       data     extern C:\Users\Tim\Desktop\PIC-WEB-5-42-UEXT-full\Microchip\TCPIP Stack\BerkeleyAPI.c
                     name   0x0007a6       data     static C:\Users\Tim\Desktop\PIC-WEB-5-42-UEXT-full\Microchip\TCPIP Stack\BerkeleyAPI.c
              __connect:2   0x0007a8       data     extern C:\Users\Tim\Desktop\PIC-WEB-5-42-UEXT-full\Microchip\TCPIP Stack\BerkeleyAPI.c
                  namelen   0x0007a8       data     static C:\Users\Tim\Desktop\PIC-WEB-5-42-UEXT-full\Microchip\TCPIP Stack\BerkeleyAPI.c
                 __send:0   0x0007aa       data     extern C:\Users\Tim\Desktop\PIC-WEB-5-42-UEXT-full\Microchip\TCPIP Stack\BerkeleyAPI.c
                        s   0x0007aa       data     static C:\Users\Tim\Desktop\PIC-WEB-5-42-UEXT-full\Microchip\TCPIP Stack\BerkeleyAPI.c
                 __send:1   0x0007ab       data     extern C:\Users\Tim\Desktop\PIC-WEB-5-42-UEXT-full\Microchip\TCPIP Stack\BerkeleyAPI.c
                      buf   0x0007ab       data     static C:\Users\Tim\Desktop\PIC-WEB-5-42-UEXT-full\Microchip\TCPIP Stack\BerkeleyAPI.c
                      len   0x0007ad       data     static C:\Users\Tim\Desktop\PIC-WEB-5-42-UEXT-full\Microchip\TCPIP Stack\BerkeleyAPI.c
                 __send:2   0x0007ad       data     extern C:\Users\Tim\Desktop\PIC-WEB-5-42-UEXT-full\Microchip\TCPIP Stack\BerkeleyAPI.c
                 __send:3   0x0007af       data     extern C:\Users\Tim\Desktop\PIC-WEB-5-42-UEXT-full\Microchip\TCPIP Stack\BerkeleyAPI.c
                    flags   0x0007af       data     static C:\Users\Tim\Desktop\PIC-WEB-5-42-UEXT-full\Microchip\TCPIP Stack\BerkeleyAPI.c
                        s   0x0007b1       data     static C:\Users\Tim\Desktop\PIC-WEB-5-42-UEXT-full\Microchip\TCPIP Stack\BerkeleyAPI.c
               __sendto:0   0x0007b1       data     extern C:\Users\Tim\Desktop\PIC-WEB-5-42-UEXT-full\Microchip\TCPIP Stack\BerkeleyAPI.c
               __sendto:1   0x0007b2       data     extern C:\Users\Tim\Desktop\PIC-WEB-5-42-UEXT-full\Microchip\TCPIP Stack\BerkeleyAPI.c
                      buf   0x0007b2       data     static C:\Users\Tim\Desktop\PIC-WEB-5-42-UEXT-full\Microchip\TCPIP Stack\BerkeleyAPI.c
                      len   0x0007b4       data     static C:\Users\Tim\Desktop\PIC-WEB-5-42-UEXT-full\Microchip\TCPIP Stack\BerkeleyAPI.c
               __sendto:2   0x0007b4       data     extern C:\Users\Tim\Desktop\PIC-WEB-5-42-UEXT-full\Microchip\TCPIP Stack\BerkeleyAPI.c
                    flags   0x0007b6       data     static C:\Users\Tim\Desktop\PIC-WEB-5-42-UEXT-full\Microchip\TCPIP Stack\BerkeleyAPI.c
               __sendto:3   0x0007b6       data     extern C:\Users\Tim\Desktop\PIC-WEB-5-42-UEXT-full\Microchip\TCPIP Stack\BerkeleyAPI.c
                       to   0x0007b8       data     static C:\Users\Tim\Desktop\PIC-WEB-5-42-UEXT-full\Microchip\TCPIP Stack\BerkeleyAPI.c
               __sendto:4   0x0007b8       data     extern C:\Users\Tim\Desktop\PIC-WEB-5-42-UEXT-full\Microchip\TCPIP Stack\BerkeleyAPI.c
               __sendto:5   0x0007ba       data     extern C:\Users\Tim\Desktop\PIC-WEB-5-42-UEXT-full\Microchip\TCPIP Stack\BerkeleyAPI.c
                    tolen   0x0007ba       data     static C:\Users\Tim\Desktop\PIC-WEB-5-42-UEXT-full\Microchip\TCPIP Stack\BerkeleyAPI.c
                startTick   0x0007bc       data     static C:\Users\Tim\Desktop\PIC-WEB-5-42-UEXT-full\Microchip\TCPIP Stack\BerkeleyAPI.c
                 __recv:0   0x0007c0       data     extern C:\Users\Tim\Desktop\PIC-WEB-5-42-UEXT-full\Microchip\TCPIP Stack\BerkeleyAPI.c
                        s   0x0007c0       data     static C:\Users\Tim\Desktop\PIC-WEB-5-42-UEXT-full\Microchip\TCPIP Stack\BerkeleyAPI.c
                      buf   0x0007c1       data     static C:\Users\Tim\Desktop\PIC-WEB-5-42-UEXT-full\Microchip\TCPIP Stack\BerkeleyAPI.c
                 __recv:1   0x0007c1       data     extern C:\Users\Tim\Desktop\PIC-WEB-5-42-UEXT-full\Microchip\TCPIP Stack\BerkeleyAPI.c
                      len   0x0007c3       data     static C:\Users\Tim\Desktop\PIC-WEB-5-42-UEXT-full\Microchip\TCPIP Stack\BerkeleyAPI.c
                 __recv:2   0x0007c3       data     extern C:\Users\Tim\Desktop\PIC-WEB-5-42-UEXT-full\Microchip\TCPIP Stack\BerkeleyAPI.c
                    flags   0x0007c5       data     static C:\Users\Tim\Desktop\PIC-WEB-5-42-UEXT-full\Microchip\TCPIP Stack\BerkeleyAPI.c
                 __recv:3   0x0007c5       data     extern C:\Users\Tim\Desktop\PIC-WEB-5-42-UEXT-full\Microchip\TCPIP Stack\BerkeleyAPI.c
             __recvfrom:0   0x0007c7       data     extern C:\Users\Tim\Desktop\PIC-WEB-5-42-UEXT-full\Microchip\TCPIP Stack\BerkeleyAPI.c
                        s   0x0007c7       data     static C:\Users\Tim\Desktop\PIC-WEB-5-42-UEXT-full\Microchip\TCPIP Stack\BerkeleyAPI.c
             __recvfrom:1   0x0007c8       data     extern C:\Users\Tim\Desktop\PIC-WEB-5-42-UEXT-full\Microchip\TCPIP Stack\BerkeleyAPI.c
                      buf   0x0007c8       data     static C:\Users\Tim\Desktop\PIC-WEB-5-42-UEXT-full\Microchip\TCPIP Stack\BerkeleyAPI.c
             __recvfrom:2   0x0007ca       data     extern C:\Users\Tim\Desktop\PIC-WEB-5-42-UEXT-full\Microchip\TCPIP Stack\BerkeleyAPI.c
                      len   0x0007ca       data     static C:\Users\Tim\Desktop\PIC-WEB-5-42-UEXT-full\Microchip\TCPIP Stack\BerkeleyAPI.c
                    flags   0x0007cc       data     static C:\Users\Tim\Desktop\PIC-WEB-5-42-UEXT-full\Microchip\TCPIP Stack\BerkeleyAPI.c
             __recvfrom:3   0x0007cc       data     extern C:\Users\Tim\Desktop\PIC-WEB-5-42-UEXT-full\Microchip\TCPIP Stack\BerkeleyAPI.c
             __recvfrom:4   0x0007ce       data     extern C:\Users\Tim\Desktop\PIC-WEB-5-42-UEXT-full\Microchip\TCPIP Stack\BerkeleyAPI.c
                     from   0x0007ce       data     static C:\Users\Tim\Desktop\PIC-WEB-5-42-UEXT-full\Microchip\TCPIP Stack\BerkeleyAPI.c
             __recvfrom:5   0x0007d0       data     extern C:\Users\Tim\Desktop\PIC-WEB-5-42-UEXT-full\Microchip\TCPIP Stack\BerkeleyAPI.c
                  fromlen   0x0007d0       data     static C:\Users\Tim\Desktop\PIC-WEB-5-42-UEXT-full\Microchip\TCPIP Stack\BerkeleyAPI.c
                     name   0x0007d2       data     static C:\Users\Tim\Desktop\PIC-WEB-5-42-UEXT-full\Microchip\TCPIP Stack\BerkeleyAPI.c
          __gethostname:0   0x0007d2       data     extern C:\Users\Tim\Desktop\PIC-WEB-5-42-UEXT-full\Microchip\TCPIP Stack\BerkeleyAPI.c
                  namelen   0x0007d4       data     static C:\Users\Tim\Desktop\PIC-WEB-5-42-UEXT-full\Microchip\TCPIP Stack\BerkeleyAPI.c
          __gethostname:1   0x0007d4       data     extern C:\Users\Tim\Desktop\PIC-WEB-5-42-UEXT-full\Microchip\TCPIP Stack\BerkeleyAPI.c
          __closesocket:0   0x0007d6       data     extern C:\Users\Tim\Desktop\PIC-WEB-5-42-UEXT-full\Microchip\TCPIP Stack\BerkeleyAPI.c
                        s   0x0007d6       data     static C:\Users\Tim\Desktop\PIC-WEB-5-42-UEXT-full\Microchip\TCPIP Stack\BerkeleyAPI.c
                        s   0x0007d7       data     static C:\Users\Tim\Desktop\PIC-WEB-5-42-UEXT-full\Microchip\TCPIP Stack\BerkeleyAPI.c
__HandlePossibleTCPDisconnection:0   0x0007d7       data     static C:\Users\Tim\Desktop\PIC-WEB-5-42-UEXT-full\Microchip\TCPIP Stack\BerkeleyAPI.c
              DNSHostName   0x0007d8       data     static C:\Users\Tim\Desktop\PIC-WEB-5-42-UEXT-full\Microchip\TCPIP Stack\DNS.c
           DNSHostNameROM   0x0007da       data     static C:\Users\Tim\Desktop\PIC-WEB-5-42-UEXT-full\Microchip\TCPIP Stack\DNS.c
               RecordType   0x0007dd       data     static C:\Users\Tim\Desktop\PIC-WEB-5-42-UEXT-full\Microchip\TCPIP Stack\DNS.c
             ResolvedInfo   0x0007de       data     static C:\Users\Tim\Desktop\PIC-WEB-5-42-UEXT-full\Microchip\TCPIP Stack\DNS.c
           __DNSResolve:0   0x0007e8       data     extern C:\Users\Tim\Desktop\PIC-WEB-5-42-UEXT-full\Microchip\TCPIP Stack\DNS.c
                 Hostname   0x0007e8       data     static C:\Users\Tim\Desktop\PIC-WEB-5-42-UEXT-full\Microchip\TCPIP Stack\DNS.c
           __DNSResolve:1   0x0007ea       data     extern C:\Users\Tim\Desktop\PIC-WEB-5-42-UEXT-full\Microchip\TCPIP Stack\DNS.c
                     Type   0x0007ea       data     static C:\Users\Tim\Desktop\PIC-WEB-5-42-UEXT-full\Microchip\TCPIP Stack\DNS.c
        __DNSResolveROM:0   0x0007eb       data     extern C:\Users\Tim\Desktop\PIC-WEB-5-42-UEXT-full\Microchip\TCPIP Stack\DNS.c
                 Hostname   0x0007eb       data     static C:\Users\Tim\Desktop\PIC-WEB-5-42-UEXT-full\Microchip\TCPIP Stack\DNS.c
        __DNSResolveROM:1   0x0007ee       data     extern C:\Users\Tim\Desktop\PIC-WEB-5-42-UEXT-full\Microchip\TCPIP Stack\DNS.c
                     Type   0x0007ee       data     static C:\Users\Tim\Desktop\PIC-WEB-5-42-UEXT-full\Microchip\TCPIP Stack\DNS.c
                   HostIP   0x0007ef       data     static C:\Users\Tim\Desktop\PIC-WEB-5-42-UEXT-full\Microchip\TCPIP Stack\DNS.c
        __DNSIsResolved:0   0x0007ef       data     extern C:\Users\Tim\Desktop\PIC-WEB-5-42-UEXT-full\Microchip\TCPIP Stack\DNS.c
                StartTime   0x0007f1       data     static C:\Users\Tim\Desktop\PIC-WEB-5-42-UEXT-full\Microchip\TCPIP Stack\DNS.c
        SentTransactionID   0x0007f5       data     static C:\Users\Tim\Desktop\PIC-WEB-5-42-UEXT-full\Microchip\TCPIP Stack\DNS.c
         vARPAttemptCount   0x0007f7       data     static C:\Users\Tim\Desktop\PIC-WEB-5-42-UEXT-full\Microchip\TCPIP Stack\DNS.c
         vDNSAttemptCount   0x0007f8       data     static C:\Users\Tim\Desktop\PIC-WEB-5-42-UEXT-full\Microchip\TCPIP Stack\DNS.c
                   String   0x0007f9       data     static C:\Users\Tim\Desktop\PIC-WEB-5-42-UEXT-full\Microchip\TCPIP Stack\DNS.c
         __DNSPutString:0   0x0007f9       data     static C:\Users\Tim\Desktop\PIC-WEB-5-42-UEXT-full\Microchip\TCPIP Stack\DNS.c
                   String   0x0007fb       data     static C:\Users\Tim\Desktop\PIC-WEB-5-42-UEXT-full\Microchip\TCPIP Stack\DNS.c
      __DNSPutROMString:0   0x0007fb       data     static C:\Users\Tim\Desktop\PIC-WEB-5-42-UEXT-full\Microchip\TCPIP Stack\DNS.c
               I2C_BUFFER   0x0007fe       data     extern E:\3.46\pic18-lt\cxx-framework\src\pmc_common\SW_I2C\swgtci2c.c
              BIT_COUNTER   0x0007ff       data     extern E:\3.46\pic18-lt\cxx-framework\src\pmc_common\SW_I2C\swgtci2c.c
                 SYNQueue   0x000800       data     static C:\Users\Tim\Desktop\PIC-WEB-5-42-UEXT-full\Microchip\TCPIP Stack\TCP.c
             AutoIPClient   0x00083c       data     static C:\Users\Tim\Desktop\PIC-WEB-5-42-UEXT-full\Microchip\TCPIP Stack\AutoIP.c
           __AutoIPInit:0   0x00086b       data     extern C:\Users\Tim\Desktop\PIC-WEB-5-42-UEXT-full\Microchip\TCPIP Stack\AutoIP.c
               vInterface   0x00086b       data     static C:\Users\Tim\Desktop\PIC-WEB-5-42-UEXT-full\Microchip\TCPIP Stack\AutoIP.c
   __AutoIPIsConfigured:0   0x00086c       data     extern C:\Users\Tim\Desktop\PIC-WEB-5-42-UEXT-full\Microchip\TCPIP Stack\AutoIP.c
               vInterface   0x00086c       data     static C:\Users\Tim\Desktop\PIC-WEB-5-42-UEXT-full\Microchip\TCPIP Stack\AutoIP.c
               vInterface   0x00086d       data     static C:\Users\Tim\Desktop\PIC-WEB-5-42-UEXT-full\Microchip\TCPIP Stack\AutoIP.c
__AutoIPConfigIsInProgress:0   0x00086d       data     extern C:\Users\Tim\Desktop\PIC-WEB-5-42-UEXT-full\Microchip\TCPIP Stack\AutoIP.c
               vInterface   0x00086e       data     static C:\Users\Tim\Desktop\PIC-WEB-5-42-UEXT-full\Microchip\TCPIP Stack\AutoIP.c
       __AutoIPConflict:0   0x00086e       data     extern C:\Users\Tim\Desktop\PIC-WEB-5-42-UEXT-full\Microchip\TCPIP Stack\AutoIP.c
        __AutoIPDisable:0   0x00086f       data     extern C:\Users\Tim\Desktop\PIC-WEB-5-42-UEXT-full\Microchip\TCPIP Stack\AutoIP.c
               vInterface   0x00086f       data     static C:\Users\Tim\Desktop\PIC-WEB-5-42-UEXT-full\Microchip\TCPIP Stack\AutoIP.c
         __AutoIPEnable:0   0x000870       data     extern C:\Users\Tim\Desktop\PIC-WEB-5-42-UEXT-full\Microchip\TCPIP Stack\AutoIP.c
               vInterface   0x000870       data     static C:\Users\Tim\Desktop\PIC-WEB-5-42-UEXT-full\Microchip\TCPIP Stack\AutoIP.c
               vInterface   0x000871       data     static C:\Users\Tim\Desktop\PIC-WEB-5-42-UEXT-full\Microchip\TCPIP Stack\AutoIP.c
     __AutoIPIsDisabled:0   0x000871       data     extern C:\Users\Tim\Desktop\PIC-WEB-5-42-UEXT-full\Microchip\TCPIP Stack\AutoIP.c
                     seed   0x000872       data     static C:\Users\Tim\Desktop\PIC-WEB-5-42-UEXT-full\Microchip\TCPIP Stack\AutoIP.c
       __AutoIPRandSeed:0   0x000872       data     extern C:\Users\Tim\Desktop\PIC-WEB-5-42-UEXT-full\Microchip\TCPIP Stack\AutoIP.c
               vInterface   0x000876       data     static C:\Users\Tim\Desktop\PIC-WEB-5-42-UEXT-full\Microchip\TCPIP Stack\AutoIP.c
       __AutoIPRandSeed:1   0x000876       data     extern C:\Users\Tim\Desktop\PIC-WEB-5-42-UEXT-full\Microchip\TCPIP Stack\AutoIP.c
               vInterface   0x000877       data     static C:\Users\Tim\Desktop\PIC-WEB-5-42-UEXT-full\Microchip\TCPIP Stack\AutoIP.c
           __AutoIPRand:0   0x000877       data     extern C:\Users\Tim\Desktop\PIC-WEB-5-42-UEXT-full\Microchip\TCPIP Stack\AutoIP.c
           FLASHReadyFlag   0x000878       data     extern C:\Users\Tim\Desktop\PIC-WEB-5-42-UEXT-full\Microchip\TCPIP Stack\SPIFlash.c
           FLASHBufferPtr   0x000879       data     extern C:\Users\Tim\Desktop\PIC-WEB-5-42-UEXT-full\Microchip\TCPIP Stack\SPIFlash.c
              FLASHBuffer   0x00087b       data     extern C:\Users\Tim\Desktop\PIC-WEB-5-42-UEXT-full\Microchip\TCPIP Stack\SPIFlash.c
             FLASHAddress   0x000887       data     extern C:\Users\Tim\Desktop\PIC-WEB-5-42-UEXT-full\Microchip\TCPIP Stack\SPIFlash.c
                   inbyte   0x00088b       data     static C:\Users\Tim\Desktop\PIC-WEB-5-42-UEXT-full\Microchip\TCPIP Stack\SPIFlash.c
          __SPITransfer:0   0x00088b       data     extern C:\Users\Tim\Desktop\PIC-WEB-5-42-UEXT-full\Microchip\TCPIP Stack\SPIFlash.c
                  address   0x00088c       data     static C:\Users\Tim\Desktop\PIC-WEB-5-42-UEXT-full\Microchip\TCPIP Stack\SPIFlash.c
    __SPIFlashBeginRead:0   0x00088c       data     extern C:\Users\Tim\Desktop\PIC-WEB-5-42-UEXT-full\Microchip\TCPIP Stack\SPIFlash.c
                  address   0x000890       data     static C:\Users\Tim\Desktop\PIC-WEB-5-42-UEXT-full\Microchip\TCPIP Stack\SPIFlash.c
    __SPIFlashReadArray:0   0x000890       data     extern C:\Users\Tim\Desktop\PIC-WEB-5-42-UEXT-full\Microchip\TCPIP Stack\SPIFlash.c
                   buffer   0x000894       data     static C:\Users\Tim\Desktop\PIC-WEB-5-42-UEXT-full\Microchip\TCPIP Stack\SPIFlash.c
    __SPIFlashReadArray:1   0x000894       data     extern C:\Users\Tim\Desktop\PIC-WEB-5-42-UEXT-full\Microchip\TCPIP Stack\SPIFlash.c
    __SPIFlashReadArray:2   0x000896       data     extern C:\Users\Tim\Desktop\PIC-WEB-5-42-UEXT-full\Microchip\TCPIP Stack\SPIFlash.c
                   length   0x000896       data     static C:\Users\Tim\Desktop\PIC-WEB-5-42-UEXT-full\Microchip\TCPIP Stack\SPIFlash.c
                  address   0x000898       data     static C:\Users\Tim\Desktop\PIC-WEB-5-42-UEXT-full\Microchip\TCPIP Stack\SPIFlash.c
   __SPIFlashBeginWrite:0   0x000898       data     extern C:\Users\Tim\Desktop\PIC-WEB-5-42-UEXT-full\Microchip\TCPIP Stack\SPIFlash.c
        __SPIFlashWrite:0   0x00089c       data     extern C:\Users\Tim\Desktop\PIC-WEB-5-42-UEXT-full\Microchip\TCPIP Stack\SPIFlash.c
                      val   0x00089c       data     static C:\Users\Tim\Desktop\PIC-WEB-5-42-UEXT-full\Microchip\TCPIP Stack\SPIFlash.c
                      val   0x00089d       data     static C:\Users\Tim\Desktop\PIC-WEB-5-42-UEXT-full\Microchip\TCPIP Stack\SPIFlash.c
   __SPIFlashWriteArray:0   0x00089d       data     extern C:\Users\Tim\Desktop\PIC-WEB-5-42-UEXT-full\Microchip\TCPIP Stack\SPIFlash.c
   __SPIFlashWriteArray:1   0x00089f       data     extern C:\Users\Tim\Desktop\PIC-WEB-5-42-UEXT-full\Microchip\TCPIP Stack\SPIFlash.c
                     wLen   0x00089f       data     static C:\Users\Tim\Desktop\PIC-WEB-5-42-UEXT-full\Microchip\TCPIP Stack\SPIFlash.c
                  address   0x0008a1       data     static C:\Users\Tim\Desktop\PIC-WEB-5-42-UEXT-full\Microchip\TCPIP Stack\SPIFlash.c
__WriteBufferToMainMemory:0   0x0008a1       data     extern C:\Users\Tim\Desktop\PIC-WEB-5-42-UEXT-full\Microchip\TCPIP Stack\SPIFlash.c
__ReadBufferFromMainMemory:0   0x0008a5       data     extern C:\Users\Tim\Desktop\PIC-WEB-5-42-UEXT-full\Microchip\TCPIP Stack\SPIFlash.c
                  address   0x0008a5       data     static C:\Users\Tim\Desktop\PIC-WEB-5-42-UEXT-full\Microchip\TCPIP Stack\SPIFlash.c
                     byte   0x0008a9       data     static C:\Users\Tim\Desktop\PIC-WEB-5-42-UEXT-full\Microchip\TCPIP Stack\SPIFlash.c
         __ByteToBuffer:0   0x0008a9       data     extern C:\Users\Tim\Desktop\PIC-WEB-5-42-UEXT-full\Microchip\TCPIP Stack\SPIFlash.c
         __ByteToBuffer:1   0x0008ab       data     extern C:\Users\Tim\Desktop\PIC-WEB-5-42-UEXT-full\Microchip\TCPIP Stack\SPIFlash.c
                  address   0x0008ab       data     static C:\Users\Tim\Desktop\PIC-WEB-5-42-UEXT-full\Microchip\TCPIP Stack\SPIFlash.c
       NextPacketLocation   0x0008af       data     static C:\Users\Tim\Desktop\PIC-WEB-5-42-UEXT-full\Microchip\TCPIP Stack\ETH97J60.c
    CurrentPacketLocation   0x0008b1       data     static C:\Users\Tim\Desktop\PIC-WEB-5-42-UEXT-full\Microchip\TCPIP Stack\ETH97J60.c
                    flags   0x0008b3       data     static C:\Users\Tim\Desktop\PIC-WEB-5-42-UEXT-full\Microchip\TCPIP Stack\ETH97J60.c
              wTXWatchdog   0x0008b4       data     static C:\Users\Tim\Desktop\PIC-WEB-5-42-UEXT-full\Microchip\TCPIP Stack\ETH97J60.c
                   remote   0x0008b6       data     static C:\Users\Tim\Desktop\PIC-WEB-5-42-UEXT-full\Microchip\TCPIP Stack\ETH97J60.c
         __MACGetHeader:0   0x0008b6       data     extern C:\Users\Tim\Desktop\PIC-WEB-5-42-UEXT-full\Microchip\TCPIP Stack\ETH97J60.c
                     type   0x0008b8       data     static C:\Users\Tim\Desktop\PIC-WEB-5-42-UEXT-full\Microchip\TCPIP Stack\ETH97J60.c
         __MACGetHeader:1   0x0008b8       data     extern C:\Users\Tim\Desktop\PIC-WEB-5-42-UEXT-full\Microchip\TCPIP Stack\ETH97J60.c
         __MACPutHeader:0   0x0008ba       data     extern C:\Users\Tim\Desktop\PIC-WEB-5-42-UEXT-full\Microchip\TCPIP Stack\ETH97J60.c
                   remote   0x0008ba       data     static C:\Users\Tim\Desktop\PIC-WEB-5-42-UEXT-full\Microchip\TCPIP Stack\ETH97J60.c
         __MACPutHeader:1   0x0008bc       data     extern C:\Users\Tim\Desktop\PIC-WEB-5-42-UEXT-full\Microchip\TCPIP Stack\ETH97J60.c
                     type   0x0008bc       data     static C:\Users\Tim\Desktop\PIC-WEB-5-42-UEXT-full\Microchip\TCPIP Stack\ETH97J60.c
                  dataLen   0x0008bd       data     static C:\Users\Tim\Desktop\PIC-WEB-5-42-UEXT-full\Microchip\TCPIP Stack\ETH97J60.c
         __MACPutHeader:2   0x0008bd       data     extern C:\Users\Tim\Desktop\PIC-WEB-5-42-UEXT-full\Microchip\TCPIP Stack\ETH97J60.c
    __MACSetReadPtrInRx:0   0x0008bf       data     extern C:\Users\Tim\Desktop\PIC-WEB-5-42-UEXT-full\Microchip\TCPIP Stack\ETH97J60.c
                   offset   0x0008bf       data     static C:\Users\Tim\Desktop\PIC-WEB-5-42-UEXT-full\Microchip\TCPIP Stack\ETH97J60.c
                  address   0x0008c1       data     static C:\Users\Tim\Desktop\PIC-WEB-5-42-UEXT-full\Microchip\TCPIP Stack\ETH97J60.c
       __MACSetWritePtr:0   0x0008c1       data     extern C:\Users\Tim\Desktop\PIC-WEB-5-42-UEXT-full\Microchip\TCPIP Stack\ETH97J60.c
                  address   0x0008c3       data     static C:\Users\Tim\Desktop\PIC-WEB-5-42-UEXT-full\Microchip\TCPIP Stack\ETH97J60.c
        __MACSetReadPtr:0   0x0008c3       data     extern C:\Users\Tim\Desktop\PIC-WEB-5-42-UEXT-full\Microchip\TCPIP Stack\ETH97J60.c
    __MACCalcRxChecksum:0   0x0008c5       data     extern C:\Users\Tim\Desktop\PIC-WEB-5-42-UEXT-full\Microchip\TCPIP Stack\ETH97J60.c
                   offset   0x0008c5       data     static C:\Users\Tim\Desktop\PIC-WEB-5-42-UEXT-full\Microchip\TCPIP Stack\ETH97J60.c
    __MACCalcRxChecksum:1   0x0008c7       data     extern C:\Users\Tim\Desktop\PIC-WEB-5-42-UEXT-full\Microchip\TCPIP Stack\ETH97J60.c
                      len   0x0008c7       data     static C:\Users\Tim\Desktop\PIC-WEB-5-42-UEXT-full\Microchip\TCPIP Stack\ETH97J60.c
 __CalcIPBufferChecksum:0   0x0008c9       data     extern C:\Users\Tim\Desktop\PIC-WEB-5-42-UEXT-full\Microchip\TCPIP Stack\ETH97J60.c
                      len   0x0008c9       data     static C:\Users\Tim\Desktop\PIC-WEB-5-42-UEXT-full\Microchip\TCPIP Stack\ETH97J60.c
      __MACMemCopyAsync:0   0x0008cb       data     extern C:\Users\Tim\Desktop\PIC-WEB-5-42-UEXT-full\Microchip\TCPIP Stack\ETH97J60.c
                 destAddr   0x0008cb       data     static C:\Users\Tim\Desktop\PIC-WEB-5-42-UEXT-full\Microchip\TCPIP Stack\ETH97J60.c
      __MACMemCopyAsync:1   0x0008cd       data     extern C:\Users\Tim\Desktop\PIC-WEB-5-42-UEXT-full\Microchip\TCPIP Stack\ETH97J60.c
               sourceAddr   0x0008cd       data     static C:\Users\Tim\Desktop\PIC-WEB-5-42-UEXT-full\Microchip\TCPIP Stack\ETH97J60.c
      __MACMemCopyAsync:2   0x0008cf       data     extern C:\Users\Tim\Desktop\PIC-WEB-5-42-UEXT-full\Microchip\TCPIP Stack\ETH97J60.c
                      len   0x0008cf       data     static C:\Users\Tim\Desktop\PIC-WEB-5-42-UEXT-full\Microchip\TCPIP Stack\ETH97J60.c
          __MACGetArray:0   0x0008d1       data     extern C:\Users\Tim\Desktop\PIC-WEB-5-42-UEXT-full\Microchip\TCPIP Stack\ETH97J60.c
                      val   0x0008d1       data     static C:\Users\Tim\Desktop\PIC-WEB-5-42-UEXT-full\Microchip\TCPIP Stack\ETH97J60.c
                      len   0x0008d3       data     static C:\Users\Tim\Desktop\PIC-WEB-5-42-UEXT-full\Microchip\TCPIP Stack\ETH97J60.c
          __MACGetArray:1   0x0008d3       data     extern C:\Users\Tim\Desktop\PIC-WEB-5-42-UEXT-full\Microchip\TCPIP Stack\ETH97J60.c
               __MACPut:0   0x0008d5       data     extern C:\Users\Tim\Desktop\PIC-WEB-5-42-UEXT-full\Microchip\TCPIP Stack\ETH97J60.c
                      val   0x0008d5       data     static C:\Users\Tim\Desktop\PIC-WEB-5-42-UEXT-full\Microchip\TCPIP Stack\ETH97J60.c
                      val   0x0008d6       data     static C:\Users\Tim\Desktop\PIC-WEB-5-42-UEXT-full\Microchip\TCPIP Stack\ETH97J60.c
          __MACPutArray:0   0x0008d6       data     extern C:\Users\Tim\Desktop\PIC-WEB-5-42-UEXT-full\Microchip\TCPIP Stack\ETH97J60.c
          __MACPutArray:1   0x0008d8       data     extern C:\Users\Tim\Desktop\PIC-WEB-5-42-UEXT-full\Microchip\TCPIP Stack\ETH97J60.c
                      len   0x0008d8       data     static C:\Users\Tim\Desktop\PIC-WEB-5-42-UEXT-full\Microchip\TCPIP Stack\ETH97J60.c
       __MACPutROMArray:0   0x0008da       data     extern C:\Users\Tim\Desktop\PIC-WEB-5-42-UEXT-full\Microchip\TCPIP Stack\ETH97J60.c
                      val   0x0008da       data     static C:\Users\Tim\Desktop\PIC-WEB-5-42-UEXT-full\Microchip\TCPIP Stack\ETH97J60.c
       __MACPutROMArray:1   0x0008dd       data     extern C:\Users\Tim\Desktop\PIC-WEB-5-42-UEXT-full\Microchip\TCPIP Stack\ETH97J60.c
                      len   0x0008dd       data     static C:\Users\Tim\Desktop\PIC-WEB-5-42-UEXT-full\Microchip\TCPIP Stack\ETH97J60.c
                 Register   0x0008df       data     static C:\Users\Tim\Desktop\PIC-WEB-5-42-UEXT-full\Microchip\TCPIP Stack\ETH97J60.c
           __ReadPHYReg:0   0x0008df       data     extern C:\Users\Tim\Desktop\PIC-WEB-5-42-UEXT-full\Microchip\TCPIP Stack\ETH97J60.c
                 Register   0x0008e0       data     static C:\Users\Tim\Desktop\PIC-WEB-5-42-UEXT-full\Microchip\TCPIP Stack\ETH97J60.c
          __WritePHYReg:0   0x0008e0       data     extern C:\Users\Tim\Desktop\PIC-WEB-5-42-UEXT-full\Microchip\TCPIP Stack\ETH97J60.c
          __WritePHYReg:1   0x0008e1       data     extern C:\Users\Tim\Desktop\PIC-WEB-5-42-UEXT-full\Microchip\TCPIP Stack\ETH97J60.c
                     Data   0x0008e1       data     static C:\Users\Tim\Desktop\PIC-WEB-5-42-UEXT-full\Microchip\TCPIP Stack\ETH97J60.c
               I2C_String   0x0008e3       data     extern C:\Users\Tim\Desktop\PIC-WEB-5-42-UEXT-full\TCPIP\Demo App\CustomHTTPApp.c
               SPI_String   0x0008ef       data     extern C:\Users\Tim\Desktop\PIC-WEB-5-42-UEXT-full\TCPIP\Demo App\CustomHTTPApp.c
              lastSuccess   0x0008fb       data     static C:\Users\Tim\Desktop\PIC-WEB-5-42-UEXT-full\TCPIP\Demo App\CustomHTTPApp.c
              lastFailure   0x0008fc       data     static C:\Users\Tim\Desktop\PIC-WEB-5-42-UEXT-full\TCPIP\Demo App\CustomHTTPApp.c
                 MySocket   0x0008fd       data     static C:\Users\Tim\Desktop\PIC-WEB-5-42-UEXT-full\Microchip\TCPIP Stack\SMTP.c
           TransportState   0x0008fe       data     static C:\Users\Tim\Desktop\PIC-WEB-5-42-UEXT-full\Microchip\TCPIP Stack\SMTP.c
                SMTPFlags   0x0008ff       data     static C:\Users\Tim\Desktop\PIC-WEB-5-42-UEXT-full\Microchip\TCPIP Stack\SMTP.c
               callbackID   0x000900       data     static C:\Users\Tim\Desktop\PIC-WEB-5-42-UEXT-full\TCPIP\Demo App\HTTPPrint.h
            __HTTPPrint:0   0x000900       data     extern C:\Users\Tim\Desktop\PIC-WEB-5-42-UEXT-full\TCPIP\Demo App\HTTPPrint.h
         __HTTPLoadConn:0   0x000904       data     static C:\Users\Tim\Desktop\PIC-WEB-5-42-UEXT-full\Microchip\TCPIP Stack\HTTP2.c
                    hHTTP   0x000904       data     static C:\Users\Tim\Desktop\PIC-WEB-5-42-UEXT-full\Microchip\TCPIP Stack\HTTP2.c
__HTTPHeaderParseLookup:0   0x000905       data     static C:\Users\Tim\Desktop\PIC-WEB-5-42-UEXT-full\Microchip\TCPIP Stack\HTTP2.c
                        i   0x000905       data     static C:\Users\Tim\Desktop\PIC-WEB-5-42-UEXT-full\Microchip\TCPIP Stack\HTTP2.c
                    cData   0x000906       data     static C:\Users\Tim\Desktop\PIC-WEB-5-42-UEXT-full\Microchip\TCPIP Stack\HTTP2.c
        __HTTPURLDecode:0   0x000906       data     extern C:\Users\Tim\Desktop\PIC-WEB-5-42-UEXT-full\Microchip\TCPIP Stack\HTTP2.c
                    cData   0x000908       data     static C:\Users\Tim\Desktop\PIC-WEB-5-42-UEXT-full\Microchip\TCPIP Stack\HTTP2.c
           __HTTPGetArg:0   0x000908       data     extern C:\Users\Tim\Desktop\PIC-WEB-5-42-UEXT-full\Microchip\TCPIP Stack\HTTP2.c
           __HTTPGetArg:1   0x00090a       data     extern C:\Users\Tim\Desktop\PIC-WEB-5-42-UEXT-full\Microchip\TCPIP Stack\HTTP2.c
                     cArg   0x00090a       data     static C:\Users\Tim\Desktop\PIC-WEB-5-42-UEXT-full\Microchip\TCPIP Stack\HTTP2.c
        __HTTPGetROMArg:0   0x00090c       data     extern C:\Users\Tim\Desktop\PIC-WEB-5-42-UEXT-full\Microchip\TCPIP Stack\HTTP2.c
                    cData   0x00090c       data     static C:\Users\Tim\Desktop\PIC-WEB-5-42-UEXT-full\Microchip\TCPIP Stack\HTTP2.c
        __HTTPGetROMArg:1   0x00090e       data     extern C:\Users\Tim\Desktop\PIC-WEB-5-42-UEXT-full\Microchip\TCPIP Stack\HTTP2.c
                     cArg   0x00090e       data     static C:\Users\Tim\Desktop\PIC-WEB-5-42-UEXT-full\Microchip\TCPIP Stack\HTTP2.c
                    cData   0x000911       data     static C:\Users\Tim\Desktop\PIC-WEB-5-42-UEXT-full\Microchip\TCPIP Stack\HTTP2.c
     __HTTPReadPostName:0   0x000911       data     extern C:\Users\Tim\Desktop\PIC-WEB-5-42-UEXT-full\Microchip\TCPIP Stack\HTTP2.c
     __HTTPReadPostName:1   0x000913       data     extern C:\Users\Tim\Desktop\PIC-WEB-5-42-UEXT-full\Microchip\TCPIP Stack\HTTP2.c
                     wLen   0x000913       data     static C:\Users\Tim\Desktop\PIC-WEB-5-42-UEXT-full\Microchip\TCPIP Stack\HTTP2.c
                    cData   0x000915       data     static C:\Users\Tim\Desktop\PIC-WEB-5-42-UEXT-full\Microchip\TCPIP Stack\HTTP2.c
    __HTTPReadPostValue:0   0x000915       data     extern C:\Users\Tim\Desktop\PIC-WEB-5-42-UEXT-full\Microchip\TCPIP Stack\HTTP2.c
    __HTTPReadPostValue:1   0x000917       data     extern C:\Users\Tim\Desktop\PIC-WEB-5-42-UEXT-full\Microchip\TCPIP Stack\HTTP2.c
                     wLen   0x000917       data     static C:\Users\Tim\Desktop\PIC-WEB-5-42-UEXT-full\Microchip\TCPIP Stack\HTTP2.c
           __HTTPReadTo:0   0x000919       data     static C:\Users\Tim\Desktop\PIC-WEB-5-42-UEXT-full\Microchip\TCPIP Stack\HTTP2.c
                   cDelim   0x000919       data     static C:\Users\Tim\Desktop\PIC-WEB-5-42-UEXT-full\Microchip\TCPIP Stack\HTTP2.c
                    cData   0x00091a       data     static C:\Users\Tim\Desktop\PIC-WEB-5-42-UEXT-full\Microchip\TCPIP Stack\HTTP2.c
           __HTTPReadTo:1   0x00091a       data     static C:\Users\Tim\Desktop\PIC-WEB-5-42-UEXT-full\Microchip\TCPIP Stack\HTTP2.c
           __HTTPReadTo:2   0x00091c       data     static C:\Users\Tim\Desktop\PIC-WEB-5-42-UEXT-full\Microchip\TCPIP Stack\HTTP2.c
                     wLen   0x00091c       data     static C:\Users\Tim\Desktop\PIC-WEB-5-42-UEXT-full\Microchip\TCPIP Stack\HTTP2.c
                    cFile   0x00091e       data     static C:\Users\Tim\Desktop\PIC-WEB-5-42-UEXT-full\Microchip\TCPIP Stack\HTTP2.c
          __HTTPIncFile:0   0x00091e       data     extern C:\Users\Tim\Desktop\PIC-WEB-5-42-UEXT-full\Microchip\TCPIP Stack\HTTP2.c
              dwTimeStart   0x000921       data     static C:\Users\Tim\Desktop\PIC-WEB-5-42-UEXT-full\Microchip\TCPIP Stack\TCPPerformanceTest.c
              dwBytesSent   0x000925       data     static C:\Users\Tim\Desktop\PIC-WEB-5-42-UEXT-full\Microchip\TCPIP Stack\TCPPerformanceTest.c
                  dwVLine   0x000929       data     static C:\Users\Tim\Desktop\PIC-WEB-5-42-UEXT-full\Microchip\TCPIP Stack\TCPPerformanceTest.c
          vBytesPerSecond   0x00092d       data     static C:\Users\Tim\Desktop\PIC-WEB-5-42-UEXT-full\Microchip\TCPIP Stack\TCPPerformanceTest.c
              dwTimeStart   0x000939       data     static C:\Users\Tim\Desktop\PIC-WEB-5-42-UEXT-full\Microchip\TCPIP Stack\TCPPerformanceTest.c
              dwBytesRead   0x00093d       data     static C:\Users\Tim\Desktop\PIC-WEB-5-42-UEXT-full\Microchip\TCPIP Stack\TCPPerformanceTest.c
      wICMPSequenceNumber   0x000941       data     static C:\Users\Tim\Desktop\PIC-WEB-5-42-UEXT-full\Microchip\TCPIP Stack\ICMP.c
                ICMPTimer   0x000943       data     static C:\Users\Tim\Desktop\PIC-WEB-5-42-UEXT-full\Microchip\TCPIP Stack\ICMP.c
               StaticVars   0x000947       data     static C:\Users\Tim\Desktop\PIC-WEB-5-42-UEXT-full\Microchip\TCPIP Stack\ICMP.c
                ICMPState   0x000951       data     static C:\Users\Tim\Desktop\PIC-WEB-5-42-UEXT-full\Microchip\TCPIP Stack\ICMP.c
                   remote   0x000952       data     static C:\Users\Tim\Desktop\PIC-WEB-5-42-UEXT-full\Microchip\TCPIP Stack\ICMP.c
          __ICMPProcess:0   0x000952       data     extern C:\Users\Tim\Desktop\PIC-WEB-5-42-UEXT-full\Microchip\TCPIP Stack\ICMP.c
          __ICMPProcess:1   0x000954       data     extern C:\Users\Tim\Desktop\PIC-WEB-5-42-UEXT-full\Microchip\TCPIP Stack\ICMP.c
                      len   0x000954       data     static C:\Users\Tim\Desktop\PIC-WEB-5-42-UEXT-full\Microchip\TCPIP Stack\ICMP.c
         __ICMPSendPing:0   0x000956       data     extern C:\Users\Tim\Desktop\PIC-WEB-5-42-UEXT-full\Microchip\TCPIP Stack\ICMP.c
               dwRemoteIP   0x000956       data     static C:\Users\Tim\Desktop\PIC-WEB-5-42-UEXT-full\Microchip\TCPIP Stack\ICMP.c
   __ICMPSendPingToHost:0   0x00095a       data     extern C:\Users\Tim\Desktop\PIC-WEB-5-42-UEXT-full\Microchip\TCPIP Stack\ICMP.c
             szRemoteHost   0x00095a       data     static C:\Users\Tim\Desktop\PIC-WEB-5-42-UEXT-full\Microchip\TCPIP Stack\ICMP.c
             szRemoteHost   0x00095c       data     static C:\Users\Tim\Desktop\PIC-WEB-5-42-UEXT-full\Microchip\TCPIP Stack\ICMP.c
__ICMPSendPingToHostROM:0   0x00095c       data     extern C:\Users\Tim\Desktop\PIC-WEB-5-42-UEXT-full\Microchip\TCPIP Stack\ICMP.c
               dwServerIP   0x00095f       data     static C:\Users\Tim\Desktop\PIC-WEB-5-42-UEXT-full\TCPIP\Demo App\BerkeleyUDPClientDemo.c
                  dwTimer   0x000963       data     static C:\Users\Tim\Desktop\PIC-WEB-5-42-UEXT-full\TCPIP\Demo App\BerkeleyUDPClientDemo.c
             bsdUdpClient   0x000967       data     static C:\Users\Tim\Desktop\PIC-WEB-5-42-UEXT-full\TCPIP\Demo App\BerkeleyUDPClientDemo.c
                  udpaddr   0x000968       data     static C:\Users\Tim\Desktop\PIC-WEB-5-42-UEXT-full\TCPIP\Demo App\BerkeleyUDPClientDemo.c
              IPHeaderLen   0x000978       data     static C:\Users\Tim\Desktop\PIC-WEB-5-42-UEXT-full\Microchip\TCPIP Stack\IP.c
                  localIP   0x000979       data     static C:\Users\Tim\Desktop\PIC-WEB-5-42-UEXT-full\Microchip\TCPIP Stack\IP.c
          __IPGetHeader:0   0x000979       data     extern C:\Users\Tim\Desktop\PIC-WEB-5-42-UEXT-full\Microchip\TCPIP Stack\IP.c
          __IPGetHeader:1   0x00097b       data     extern C:\Users\Tim\Desktop\PIC-WEB-5-42-UEXT-full\Microchip\TCPIP Stack\IP.c
                   remote   0x00097b       data     static C:\Users\Tim\Desktop\PIC-WEB-5-42-UEXT-full\Microchip\TCPIP Stack\IP.c
          __IPGetHeader:2   0x00097d       data     extern C:\Users\Tim\Desktop\PIC-WEB-5-42-UEXT-full\Microchip\TCPIP Stack\IP.c
                 protocol   0x00097d       data     static C:\Users\Tim\Desktop\PIC-WEB-5-42-UEXT-full\Microchip\TCPIP Stack\IP.c
          __IPGetHeader:3   0x00097f       data     extern C:\Users\Tim\Desktop\PIC-WEB-5-42-UEXT-full\Microchip\TCPIP Stack\IP.c
                      len   0x00097f       data     static C:\Users\Tim\Desktop\PIC-WEB-5-42-UEXT-full\Microchip\TCPIP Stack\IP.c
          __IPPutHeader:0   0x000981       data     extern C:\Users\Tim\Desktop\PIC-WEB-5-42-UEXT-full\Microchip\TCPIP Stack\IP.c
                   remote   0x000981       data     static C:\Users\Tim\Desktop\PIC-WEB-5-42-UEXT-full\Microchip\TCPIP Stack\IP.c
          __IPPutHeader:1   0x000983       data     extern C:\Users\Tim\Desktop\PIC-WEB-5-42-UEXT-full\Microchip\TCPIP Stack\IP.c
                 protocol   0x000983       data     static C:\Users\Tim\Desktop\PIC-WEB-5-42-UEXT-full\Microchip\TCPIP Stack\IP.c
                      len   0x000984       data     static C:\Users\Tim\Desktop\PIC-WEB-5-42-UEXT-full\Microchip\TCPIP Stack\IP.c
          __IPPutHeader:2   0x000984       data     extern C:\Users\Tim\Desktop\PIC-WEB-5-42-UEXT-full\Microchip\TCPIP Stack\IP.c
                   Offset   0x000986       data     static C:\Users\Tim\Desktop\PIC-WEB-5-42-UEXT-full\Microchip\TCPIP Stack\IP.c
        __IPSetRxBuffer:0   0x000986       data     extern C:\Users\Tim\Desktop\PIC-WEB-5-42-UEXT-full\Microchip\TCPIP Stack\IP.c
                        h   0x000988       data     static C:\Users\Tim\Desktop\PIC-WEB-5-42-UEXT-full\Microchip\TCPIP Stack\IP.c
         __SwapIPHeader:0   0x000988       data     static C:\Users\Tim\Desktop\PIC-WEB-5-42-UEXT-full\Microchip\TCPIP Stack\IP.c
          bsdClientSocket   0x00098a       data     static C:\Users\Tim\Desktop\PIC-WEB-5-42-UEXT-full\TCPIP\Demo App\BerkeleyTCPClientDemo.c
                     addr   0x00098b       data     static C:\Users\Tim\Desktop\PIC-WEB-5-42-UEXT-full\TCPIP\Demo App\BerkeleyTCPClientDemo.c
                  Address   0x00099b       data     static C:\Users\Tim\Desktop\PIC-WEB-5-42-UEXT-full\TCPIP\Demo App\Olimex_Demo_Files\Custom_I2C.c
         __I2C_Transmit:0   0x00099b       data     extern C:\Users\Tim\Desktop\PIC-WEB-5-42-UEXT-full\TCPIP\Demo App\Olimex_Demo_Files\Custom_I2C.c
                  Command   0x00099d       data     static C:\Users\Tim\Desktop\PIC-WEB-5-42-UEXT-full\TCPIP\Demo App\Olimex_Demo_Files\Custom_I2C.c
         __I2C_Transmit:1   0x00099d       data     extern C:\Users\Tim\Desktop\PIC-WEB-5-42-UEXT-full\TCPIP\Demo App\Olimex_Demo_Files\Custom_I2C.c
                     Data   0x00099f       data     static C:\Users\Tim\Desktop\PIC-WEB-5-42-UEXT-full\TCPIP\Demo App\Olimex_Demo_Files\Custom_I2C.c
         __I2C_Transmit:2   0x00099f       data     extern C:\Users\Tim\Desktop\PIC-WEB-5-42-UEXT-full\TCPIP\Demo App\Olimex_Demo_Files\Custom_I2C.c
          __I2C_Receive:0   0x0009a0       data     extern C:\Users\Tim\Desktop\PIC-WEB-5-42-UEXT-full\TCPIP\Demo App\Olimex_Demo_Files\Custom_I2C.c
                  Address   0x0009a0       data     static C:\Users\Tim\Desktop\PIC-WEB-5-42-UEXT-full\TCPIP\Demo App\Olimex_Demo_Files\Custom_I2C.c
                  Command   0x0009a2       data     static C:\Users\Tim\Desktop\PIC-WEB-5-42-UEXT-full\TCPIP\Demo App\Olimex_Demo_Files\Custom_I2C.c
          __I2C_Receive:1   0x0009a2       data     extern C:\Users\Tim\Desktop\PIC-WEB-5-42-UEXT-full\TCPIP\Demo App\Olimex_Demo_Files\Custom_I2C.c
                     Data   0x0009a4       data     static C:\Users\Tim\Desktop\PIC-WEB-5-42-UEXT-full\TCPIP\Demo App\Olimex_Demo_Files\Custom_I2C.c
          __I2C_Receive:2   0x0009a4       data     extern C:\Users\Tim\Desktop\PIC-WEB-5-42-UEXT-full\TCPIP\Demo App\Olimex_Demo_Files\Custom_I2C.c
                    Bytes   0x0009a6       data     static C:\Users\Tim\Desktop\PIC-WEB-5-42-UEXT-full\TCPIP\Demo App\Olimex_Demo_Files\Custom_I2C.c
          __I2C_Receive:3   0x0009a6       data     extern C:\Users\Tim\Desktop\PIC-WEB-5-42-UEXT-full\TCPIP\Demo App\Olimex_Demo_Files\Custom_I2C.c
                     Dest   0x0009a8       data     static C:\Users\Tim\Desktop\PIC-WEB-5-42-UEXT-full\Microchip\TCPIP Stack\UART.c
       __ReadStringUART:0   0x0009a8       data     extern C:\Users\Tim\Desktop\PIC-WEB-5-42-UEXT-full\Microchip\TCPIP Stack\UART.c
                BufferLen   0x0009aa       data     static C:\Users\Tim\Desktop\PIC-WEB-5-42-UEXT-full\Microchip\TCPIP Stack\UART.c
       __ReadStringUART:1   0x0009aa       data     extern C:\Users\Tim\Desktop\PIC-WEB-5-42-UEXT-full\Microchip\TCPIP Stack\UART.c
                     data   0x0009ab       data     static C:\Users\Tim\Desktop\PIC-WEB-5-42-UEXT-full\Microchip\TCPIP Stack\UART.c
           __WriteUSART:0   0x0009ab       data     extern C:\Users\Tim\Desktop\PIC-WEB-5-42-UEXT-full\Microchip\TCPIP Stack\UART.c
                   buffer   0x0009ac       data     static C:\Users\Tim\Desktop\PIC-WEB-5-42-UEXT-full\Microchip\TCPIP Stack\UART.c
            __getsUSART:0   0x0009ac       data     extern C:\Users\Tim\Desktop\PIC-WEB-5-42-UEXT-full\Microchip\TCPIP Stack\UART.c
                      len   0x0009ae       data     static C:\Users\Tim\Desktop\PIC-WEB-5-42-UEXT-full\Microchip\TCPIP Stack\UART.c
            __getsUSART:1   0x0009ae       data     extern C:\Users\Tim\Desktop\PIC-WEB-5-42-UEXT-full\Microchip\TCPIP Stack\UART.c
                     data   0x0009af       data     static C:\Users\Tim\Desktop\PIC-WEB-5-42-UEXT-full\Microchip\TCPIP Stack\UART.c
            __putsUSART:0   0x0009af       data     extern C:\Users\Tim\Desktop\PIC-WEB-5-42-UEXT-full\Microchip\TCPIP Stack\UART.c
                     data   0x0009b1       data     static C:\Users\Tim\Desktop\PIC-WEB-5-42-UEXT-full\Microchip\TCPIP Stack\UART.c
           __putrsUSART:0   0x0009b1       data     extern C:\Users\Tim\Desktop\PIC-WEB-5-42-UEXT-full\Microchip\TCPIP Stack\UART.c
                     Data   0x0009b4       data     static C:\Users\Tim\Desktop\PIC-WEB-5-42-UEXT-full\TCPIP\Demo App\Olimex_Demo_Files\Custom_UART.c
    __UART_Write_String:0   0x0009b4       data     extern C:\Users\Tim\Desktop\PIC-WEB-5-42-UEXT-full\TCPIP\Demo App\Olimex_Demo_Files\Custom_UART.c
                     Data   0x0009b6       data     static C:\Users\Tim\Desktop\PIC-WEB-5-42-UEXT-full\TCPIP\Demo App\Olimex_Demo_Files\Custom_UART.c
     __UART_Write_Array:0   0x0009b6       data     extern C:\Users\Tim\Desktop\PIC-WEB-5-42-UEXT-full\TCPIP\Demo App\Olimex_Demo_Files\Custom_UART.c
     __UART_Write_Array:1   0x0009b8       data     extern C:\Users\Tim\Desktop\PIC-WEB-5-42-UEXT-full\TCPIP\Demo App\Olimex_Demo_Files\Custom_UART.c
                    Bytes   0x0009b8       data     static C:\Users\Tim\Desktop\PIC-WEB-5-42-UEXT-full\TCPIP\Demo App\Olimex_Demo_Files\Custom_UART.c
                     Data   0x0009ba       data     static C:\Users\Tim\Desktop\PIC-WEB-5-42-UEXT-full\TCPIP\Demo App\Olimex_Demo_Files\Custom_UART.c
     __UART_Read_String:0   0x0009ba       data     extern C:\Users\Tim\Desktop\PIC-WEB-5-42-UEXT-full\TCPIP\Demo App\Olimex_Demo_Files\Custom_UART.c
                     Data   0x0009bc       data     static C:\Users\Tim\Desktop\PIC-WEB-5-42-UEXT-full\TCPIP\Demo App\Olimex_Demo_Files\Custom_UART.c
      __UART_Read_Array:0   0x0009bc       data     extern C:\Users\Tim\Desktop\PIC-WEB-5-42-UEXT-full\TCPIP\Demo App\Olimex_Demo_Files\Custom_UART.c
                    Bytes   0x0009be       data     static C:\Users\Tim\Desktop\PIC-WEB-5-42-UEXT-full\TCPIP\Demo App\Olimex_Demo_Files\Custom_UART.c
      __UART_Read_Array:1   0x0009be       data     extern C:\Users\Tim\Desktop\PIC-WEB-5-42-UEXT-full\TCPIP\Demo App\Olimex_Demo_Files\Custom_UART.c
             vTickReading   0x0009c0       data     static C:\Users\Tim\Desktop\PIC-WEB-5-42-UEXT-full\Microchip\TCPIP Stack\Tick.c
__TickConvertToMilliseconds:0   0x0009c6       data     extern C:\Users\Tim\Desktop\PIC-WEB-5-42-UEXT-full\Microchip\TCPIP Stack\Tick.c
              dwTickValue   0x0009c6       data     static C:\Users\Tim\Desktop\PIC-WEB-5-42-UEXT-full\Microchip\TCPIP Stack\Tick.c
                RXHeadPtr   0x0009ca       data     static C:\Users\Tim\Desktop\PIC-WEB-5-42-UEXT-full\Microchip\TCPIP Stack\UART2TCPBridge.c
                RXTailPtr   0x0009cc       data     static C:\Users\Tim\Desktop\PIC-WEB-5-42-UEXT-full\Microchip\TCPIP Stack\UART2TCPBridge.c
                TXHeadPtr   0x0009ce       data     static C:\Users\Tim\Desktop\PIC-WEB-5-42-UEXT-full\Microchip\TCPIP Stack\UART2TCPBridge.c
                TXTailPtr   0x0009d0       data     static C:\Users\Tim\Desktop\PIC-WEB-5-42-UEXT-full\Microchip\TCPIP Stack\UART2TCPBridge.c
              BridgeState   0x0009d2       data     static C:\Users\Tim\Desktop\PIC-WEB-5-42-UEXT-full\Microchip\TCPIP Stack\UART2TCPBridge.c
                 MySocket   0x0009d3       data     static C:\Users\Tim\Desktop\PIC-WEB-5-42-UEXT-full\Microchip\TCPIP Stack\UART2TCPBridge.c
            dwSNTPSeconds   0x0009d4       data     static C:\Users\Tim\Desktop\PIC-WEB-5-42-UEXT-full\Microchip\TCPIP Stack\SNTP.c
         dwLastUpdateTick   0x0009d8       data     static C:\Users\Tim\Desktop\PIC-WEB-5-42-UEXT-full\Microchip\TCPIP Stack\SNTP.c
                 MySocket   0x0009dc       data     static C:\Users\Tim\Desktop\PIC-WEB-5-42-UEXT-full\Microchip\TCPIP Stack\SNTP.c
                SNTPState   0x0009dd       data     static C:\Users\Tim\Desktop\PIC-WEB-5-42-UEXT-full\Microchip\TCPIP Stack\SNTP.c
                  RCIndex   0x0009de       data     extern C:\Users\Tim\Desktop\PIC-WEB-5-42-UEXT-full\TCPIP\Demo App\MainDemo.c
                  TCIndex   0x0009df       data     extern C:\Users\Tim\Desktop\PIC-WEB-5-42-UEXT-full\TCPIP\Demo App\MainDemo.c
                        t   0x0009e0       data     static C:\Users\Tim\Desktop\PIC-WEB-5-42-UEXT-full\TCPIP\Demo App\MainDemo.c
                 dwLastIP   0x0009e4       data     static C:\Users\Tim\Desktop\PIC-WEB-5-42-UEXT-full\TCPIP\Demo App\MainDemo.c
            dwSNTPSeconds   0x0009e8       data     static C:\Users\Tim\Desktop\PIC-WEB-5-42-UEXT-full\TCPIP\Demo App\BerkeleyUDPClientDemo.c
         dwLastUpdateTick   0x0009ec       data     static C:\Users\Tim\Desktop\PIC-WEB-5-42-UEXT-full\TCPIP\Demo App\BerkeleyUDPClientDemo.c
                SNTPState   0x0009f0       data     static C:\Users\Tim\Desktop\PIC-WEB-5-42-UEXT-full\TCPIP\Demo App\BerkeleyUDPClientDemo.c
                 MySocket   0x0009f1       data     static C:\Users\Tim\Desktop\PIC-WEB-5-42-UEXT-full\Microchip\TCPIP Stack\DHCPs.c
       bDHCPServerEnabled   0x0009f2       data     extern C:\Users\Tim\Desktop\PIC-WEB-5-42-UEXT-full\Microchip\TCPIP Stack\DHCPs.c
             smDHCPServer   0x0009f3       data     static C:\Users\Tim\Desktop\PIC-WEB-5-42-UEXT-full\Microchip\TCPIP Stack\DHCPs.c
                flag_init   0x0009f4       data     static C:\Users\Tim\Desktop\PIC-WEB-5-42-UEXT-full\Microchip\TCPIP Stack\DHCPs.c
               dhcp_timer   0x0009f5       data     static C:\Users\Tim\Desktop\PIC-WEB-5-42-UEXT-full\Microchip\TCPIP Stack\DHCPs.c
                   Source   0x0009f9       data     static C:\Users\Tim\Desktop\PIC-WEB-5-42-UEXT-full\TCPIP\Demo App\Olimex_Demo_Files\Misc_Functions.c
 __ConvertArrayToString:0   0x0009f9       data     extern C:\Users\Tim\Desktop\PIC-WEB-5-42-UEXT-full\TCPIP\Demo App\Olimex_Demo_Files\Misc_Functions.c
 __ConvertArrayToString:1   0x0009fb       data     extern C:\Users\Tim\Desktop\PIC-WEB-5-42-UEXT-full\TCPIP\Demo App\Olimex_Demo_Files\Misc_Functions.c
              Destination   0x0009fb       data     static C:\Users\Tim\Desktop\PIC-WEB-5-42-UEXT-full\TCPIP\Demo App\Olimex_Demo_Files\Misc_Functions.c
                     Size   0x0009fd       data     static C:\Users\Tim\Desktop\PIC-WEB-5-42-UEXT-full\TCPIP\Demo App\Olimex_Demo_Files\Misc_Functions.c
 __ConvertArrayToString:2   0x0009fd       data     extern C:\Users\Tim\Desktop\PIC-WEB-5-42-UEXT-full\TCPIP\Demo App\Olimex_Demo_Files\Misc_Functions.c
__Convert_String_to_Int:0   0x0009fe       data     extern C:\Users\Tim\Desktop\PIC-WEB-5-42-UEXT-full\TCPIP\Demo App\Olimex_Demo_Files\Misc_Functions.c
                      Str   0x0009fe       data     static C:\Users\Tim\Desktop\PIC-WEB-5-42-UEXT-full\TCPIP\Demo App\Olimex_Demo_Files\Misc_Functions.c
              UART_Buffer   0x000a00       data     extern C:\Users\Tim\Desktop\PIC-WEB-5-42-UEXT-full\TCPIP\Demo App\MainDemo.c
                 BaudRate   0x000b00       data     static C:\Users\Tim\Desktop\PIC-WEB-5-42-UEXT-full\TCPIP\Demo App\Olimex_Demo_Files\Custom_UART_Low.c
            __UART_Init:0   0x000b00       data     extern C:\Users\Tim\Desktop\PIC-WEB-5-42-UEXT-full\TCPIP\Demo App\Olimex_Demo_Files\Custom_UART_Low.c
                     data   0x000b04       data     static C:\Users\Tim\Desktop\PIC-WEB-5-42-UEXT-full\TCPIP\Demo App\Olimex_Demo_Files\Custom_UART_Low.c
        __UART_Transmit:0   0x000b04       data     extern C:\Users\Tim\Desktop\PIC-WEB-5-42-UEXT-full\TCPIP\Demo App\Olimex_Demo_Files\Custom_UART_Low.c
         __SPI_Transmit:0   0x000b05       data     extern C:\Users\Tim\Desktop\PIC-WEB-5-42-UEXT-full\TCPIP\Demo App\Olimex_Demo_Files\Custom_SPI.c
                     Data   0x000b05       data     static C:\Users\Tim\Desktop\PIC-WEB-5-42-UEXT-full\TCPIP\Demo App\Olimex_Demo_Files\Custom_SPI.c
          __SPI_Receive:0   0x000b06       data     extern C:\Users\Tim\Desktop\PIC-WEB-5-42-UEXT-full\TCPIP\Demo App\Olimex_Demo_Files\Custom_SPI.c
                     Data   0x000b06       data     static C:\Users\Tim\Desktop\PIC-WEB-5-42-UEXT-full\TCPIP\Demo App\Olimex_Demo_Files\Custom_SPI.c
          __SPI_Receive:1   0x000b08       data     extern C:\Users\Tim\Desktop\PIC-WEB-5-42-UEXT-full\TCPIP\Demo App\Olimex_Demo_Files\Custom_SPI.c
                    Bytes   0x000b08       data     static C:\Users\Tim\Desktop\PIC-WEB-5-42-UEXT-full\TCPIP\Demo App\Olimex_Demo_Files\Custom_SPI.c
                 WaitTime   0x000b0a       data     static C:\Users\Tim\Desktop\PIC-WEB-5-42-UEXT-full\TCPIP\Demo App\SMTPDemo.c
                    Timer   0x000b0e       data     static C:\Users\Tim\Desktop\PIC-WEB-5-42-UEXT-full\TCPIP\Demo App\PingDemo.c
                    Timer   0x000b12       data     static C:\Users\Tim\Desktop\PIC-WEB-5-42-UEXT-full\TCPIP\Demo App\GenericTCPClient.c
          bsdServerSocket   0x000b16       data     static C:\Users\Tim\Desktop\PIC-WEB-5-42-UEXT-full\TCPIP\Demo App\BerkeleyTCPServerDemo.c
               ClientSock   0x000b17       data     static C:\Users\Tim\Desktop\PIC-WEB-5-42-UEXT-full\TCPIP\Demo App\BerkeleyTCPServerDemo.c
          dwInternalTicks   0x000b1a       data     static C:\Users\Tim\Desktop\PIC-WEB-5-42-UEXT-full\Microchip\TCPIP Stack\Tick.c
           dwLFSRRandSeed   0x000b1e       data     static C:\Users\Tim\Desktop\PIC-WEB-5-42-UEXT-full\Microchip\TCPIP Stack\Helpers.c
                 MySocket   0x000b22       data     static C:\Users\Tim\Desktop\PIC-WEB-5-42-UEXT-full\Microchip\TCPIP Stack\DNS.c
                    Flags   0x000b23       data     static C:\Users\Tim\Desktop\PIC-WEB-5-42-UEXT-full\Microchip\TCPIP Stack\DNS.c
                    smDNS   0x000b24       data     static C:\Users\Tim\Desktop\PIC-WEB-5-42-UEXT-full\Microchip\TCPIP Stack\DNS.c
                    errno   0x000b25       data     extern E:\3.46\pic18-lt\cxx-framework\src\traditional\stdclib\errno.c
            LastPutSocket   0x000b27       data     static C:\Users\Tim\Desktop\PIC-WEB-5-42-UEXT-full\Microchip\TCPIP Stack\UDP.c
         SocketWithRxData   0x000b28       data     static C:\Users\Tim\Desktop\PIC-WEB-5-42-UEXT-full\Microchip\TCPIP Stack\UDP.c
                 MySocket   0x000b29       data     static C:\Users\Tim\Desktop\PIC-WEB-5-42-UEXT-full\Microchip\TCPIP Stack\TCPPerformanceTest.c
                 MySocket   0x000b2a       data     static C:\Users\Tim\Desktop\PIC-WEB-5-42-UEXT-full\Microchip\TCPIP Stack\TCPPerformanceTest.c
              hCurrentTCP   0x000b2b       data     static C:\Users\Tim\Desktop\PIC-WEB-5-42-UEXT-full\Microchip\TCPIP Stack\TCP.c
                 hLastTCB   0x000b2c       data     static C:\Users\Tim\Desktop\PIC-WEB-5-42-UEXT-full\Microchip\TCPIP Stack\TCP.c
                     once   0x000b2d       data     static C:\Users\Tim\Desktop\PIC-WEB-5-42-UEXT-full\Microchip\TCPIP Stack\StackTsk.c
           bLastLinkState   0x000b2e       data     static C:\Users\Tim\Desktop\PIC-WEB-5-42-UEXT-full\Microchip\TCPIP Stack\StackTsk.c
              _Identifier   0x000b2f       data     static C:\Users\Tim\Desktop\PIC-WEB-5-42-UEXT-full\Microchip\TCPIP Stack\IP.c
          gAutoPortNumber   0x000b31       data     static C:\Users\Tim\Desktop\PIC-WEB-5-42-UEXT-full\Microchip\TCPIP Stack\BerkeleyAPI.c
                 data_out   0x000b33       data     static C:\Users\Tim\Desktop\PIC-WEB-5-42-UEXT-full\TCPIP\Demo App\Olimex_Demo_Files\Custom_I2C_Low.c
    __Custom_SWWriteI2C:0   0x000b33       data     extern C:\Users\Tim\Desktop\PIC-WEB-5-42-UEXT-full\TCPIP\Demo App\Olimex_Demo_Files\Custom_I2C_Low.c
                 MySocket   0x000b34       data     static C:\Users\Tim\Desktop\PIC-WEB-5-42-UEXT-full\Microchip\TCPIP Stack\Announce.c
             bInitialized   0x000b35       data     static C:\Users\Tim\Desktop\PIC-WEB-5-42-UEXT-full\Microchip\TCPIP Stack\Telnet.c
                 MySocket   0x000b36       data     static C:\Users\Tim\Desktop\PIC-WEB-5-42-UEXT-full\Microchip\TCPIP Stack\Reboot.c
                PingState   0x000b37       data     static C:\Users\Tim\Desktop\PIC-WEB-5-42-UEXT-full\TCPIP\Demo App\PingDemo.c
                   smNBNS   0x000b38       data     static C:\Users\Tim\Desktop\PIC-WEB-5-42-UEXT-full\Microchip\TCPIP Stack\NBNS.c
                ICMPFlags   0x000b39       data     static C:\Users\Tim\Desktop\PIC-WEB-5-42-UEXT-full\Microchip\TCPIP Stack\ICMP.c
           TCPServerState   0x000b3a       data     static C:\Users\Tim\Desktop\PIC-WEB-5-42-UEXT-full\TCPIP\Demo App\GenericTCPServer.c
DHCPClientInitializedOnce   0x000b3b       data     extern C:\Users\Tim\Desktop\PIC-WEB-5-42-UEXT-full\Microchip\TCPIP Stack\DHCP.c
                I2C_Delay   0x000b3c       data     extern C:\Users\Tim\Desktop\PIC-WEB-5-42-UEXT-full\TCPIP\Demo App\Olimex_Demo_Files\Custom_I2C_Low.c
           BSDServerState   0x000b3d       data     static C:\Users\Tim\Desktop\PIC-WEB-5-42-UEXT-full\TCPIP\Demo App\BerkeleyTCPServerDemo.c
              DiscoverySM   0x000b3e       data     static C:\Users\Tim\Desktop\PIC-WEB-5-42-UEXT-full\Microchip\TCPIP Stack\Announce.c
                    smARP   0x000b3f       data     static C:\Users\Tim\Desktop\PIC-WEB-5-42-UEXT-full\Microchip\TCPIP Stack\ARP.c
                      len   0x000c00       data     static C:\Users\Tim\Desktop\PIC-WEB-5-42-UEXT-full\Microchip\TCPIP Stack\HTTP2.c
                        i   0x000c00       data     static C:\Users\Tim\Desktop\PIC-WEB-5-42-UEXT-full\TCPIP\Demo App\Olimex_Demo_Files\Custom_UART.c
                        i   0x000c00       data     static C:\Users\Tim\Desktop\PIC-WEB-5-42-UEXT-full\Microchip\TCPIP Stack\Announce.c
                        i   0x000c00       data     static C:\Users\Tim\Desktop\PIC-WEB-5-42-UEXT-full\TCPIP\Demo App\Olimex_Demo_Files\Custom_UART.c
                      len   0x000c00       data     static C:\Users\Tim\Desktop\PIC-WEB-5-42-UEXT-full\Microchip\TCPIP Stack\HTTP2.c
                       cA   0x000c00       data     static C:\Users\Tim\Desktop\PIC-WEB-5-42-UEXT-full\Microchip\TCPIP Stack\Helpers.c
                       c2   0x000c00       data     static C:\Users\Tim\Desktop\PIC-WEB-5-42-UEXT-full\Microchip\TCPIP Stack\Helpers.c
                        c   0x000c00       data     static C:\Users\Tim\Desktop\PIC-WEB-5-42-UEXT-full\Microchip\TCPIP Stack\HTTP2.c
                        c   0x000c00       data     static C:\Users\Tim\Desktop\PIC-WEB-5-42-UEXT-full\Microchip\TCPIP Stack\UART.c
                        i   0x000c00       data     static C:\Users\Tim\Desktop\PIC-WEB-5-42-UEXT-full\TCPIP\Demo App\Olimex_Demo_Files\Custom_UART.c
                        s   0x000c00       data     static C:\Users\Tim\Desktop\PIC-WEB-5-42-UEXT-full\Microchip\TCPIP Stack\UDP.c
                        h   0x000c00       data     static C:\Users\Tim\Desktop\PIC-WEB-5-42-UEXT-full\Microchip\TCPIP Stack\UDP.c
                      ptr   0x000c00       data     static C:\Users\Tim\Desktop\PIC-WEB-5-42-UEXT-full\TCPIP\Demo App\CustomHTTPApp.c
                      ptr   0x000c00       data     static C:\Users\Tim\Desktop\PIC-WEB-5-42-UEXT-full\TCPIP\Demo App\CustomHTTPApp.c
                      ptr   0x000c00       data     static C:\Users\Tim\Desktop\PIC-WEB-5-42-UEXT-full\TCPIP\Demo App\CustomHTTPApp.c
                        i   0x000c00       data     static C:\Users\Tim\Desktop\PIC-WEB-5-42-UEXT-full\Microchip\TCPIP Stack\NBNS.c
                        i   0x000c00       data     static C:\Users\Tim\Desktop\PIC-WEB-5-42-UEXT-full\TCPIP\Demo App\CustomHTTPApp.c
                      pkt   0x000c00       data     static C:\Users\Tim\Desktop\PIC-WEB-5-42-UEXT-full\Microchip\TCPIP Stack\SNTP.c
                      pkt   0x000c00       data     static C:\Users\Tim\Desktop\PIC-WEB-5-42-UEXT-full\TCPIP\Demo App\BerkeleyUDPClientDemo.c
                   packet   0x000c00       data     static C:\Users\Tim\Desktop\PIC-WEB-5-42-UEXT-full\Microchip\TCPIP Stack\ARP.c
                   packet   0x000c00       data     static C:\Users\Tim\Desktop\PIC-WEB-5-42-UEXT-full\Microchip\TCPIP Stack\ARP.c
                        i   0x000c00       data     static C:\Users\Tim\Desktop\PIC-WEB-5-42-UEXT-full\TCPIP\Demo App\CustomHTTPApp.c
                   oldPtr   0x000c00       data     static C:\Users\Tim\Desktop\PIC-WEB-5-42-UEXT-full\Microchip\TCPIP Stack\HTTP2.c
                   oldPtr   0x000c00       data     static C:\Users\Tim\Desktop\PIC-WEB-5-42-UEXT-full\Microchip\TCPIP Stack\HTTP2.c
                    hMPFS   0x000c00       data     static C:\Users\Tim\Desktop\PIC-WEB-5-42-UEXT-full\Microchip\TCPIP Stack\MPFS2.c
                 numBytes   0x000c00       data     static C:\Users\Tim\Desktop\PIC-WEB-5-42-UEXT-full\Microchip\TCPIP Stack\HTTP2.c
             newAppConfig   0x000c00       data     static C:\Users\Tim\Desktop\PIC-WEB-5-42-UEXT-full\TCPIP\Demo App\CustomHTTPApp.c
                     hTCP   0x000c00       data     static C:\Users\Tim\Desktop\PIC-WEB-5-42-UEXT-full\Microchip\TCPIP Stack\TCP.c
                   header   0x000c00       data     static C:\Users\Tim\Desktop\PIC-WEB-5-42-UEXT-full\Microchip\TCPIP Stack\ETH97J60.c
                     lenA   0x000c00       data     static C:\Users\Tim\Desktop\PIC-WEB-5-42-UEXT-full\Microchip\TCPIP Stack\HTTP2.c
                        i   0x000c00       data     static C:\Users\Tim\Desktop\PIC-WEB-5-42-UEXT-full\Microchip\TCPIP Stack\Helpers.c
                  lpStart   0x000c00       data     static C:\Users\Tim\Desktop\PIC-WEB-5-42-UEXT-full\Microchip\TCPIP Stack\SMTP.c
                  lpStart   0x000c00       data     static C:\Users\Tim\Desktop\PIC-WEB-5-42-UEXT-full\Microchip\TCPIP Stack\SMTP.c
                        i   0x000c00       data     static C:\Users\Tim\Desktop\PIC-WEB-5-42-UEXT-full\Microchip\TCPIP Stack\Telnet.c
                        i   0x000c00       data     static C:\Users\Tim\Desktop\PIC-WEB-5-42-UEXT-full\TCPIP\Demo App\GenericTCPServer.c
                   digits   0x000c00       data     static C:\Users\Tim\Desktop\PIC-WEB-5-42-UEXT-full\TCPIP\Demo App\CustomHTTPApp.c
                        i   0x000c00       data     static C:\Users\Tim\Desktop\PIC-WEB-5-42-UEXT-full\TCPIP\Demo App\GenericTCPClient.c
                     args   0x000c00       data     static C:\Users\Tim\Desktop\PIC-WEB-5-42-UEXT-full\Microchip\TCPIP Stack\Helpers.c
                  arduADC   0x000c00       data     static C:\Users\Tim\Desktop\PIC-WEB-5-42-UEXT-full\TCPIP\Demo App\MainDemo.c
                     addr   0x000c00       data     static C:\Users\Tim\Desktop\PIC-WEB-5-42-UEXT-full\TCPIP\Demo App\BerkeleyTCPServerDemo.c
                        a   0x000c00       data     static C:\Users\Tim\Desktop\PIC-WEB-5-42-UEXT-full\Microchip\TCPIP Stack\Hashes.c
                   result   0x000c00       data     static C:\Users\Tim\Desktop\PIC-WEB-5-42-UEXT-full\Microchip\TCPIP Stack\SMTP.c
                   result   0x000c00       data     static C:\Users\Tim\Desktop\PIC-WEB-5-42-UEXT-full\Microchip\TCPIP Stack\SMTP.c
                        i   0x000c00       data     static C:\Users\Tim\Desktop\PIC-WEB-5-42-UEXT-full\Microchip\TCPIP Stack\DHCPs.c
              dwTickDelta   0x000c00       data     static C:\Users\Tim\Desktop\PIC-WEB-5-42-UEXT-full\TCPIP\Demo App\BerkeleyUDPClientDemo.c
                        i   0x000c00       data     static C:\Users\Tim\Desktop\PIC-WEB-5-42-UEXT-full\Microchip\TCPIP Stack\DHCP.c
                        i   0x000c00       data     static C:\Users\Tim\Desktop\PIC-WEB-5-42-UEXT-full\Microchip\TCPIP Stack\DHCP.c
                        i   0x000c00       data     static C:\Users\Tim\Desktop\PIC-WEB-5-42-UEXT-full\Microchip\TCPIP Stack\UART.c
                      len   0x000c00       data     static C:\Users\Tim\Desktop\PIC-WEB-5-42-UEXT-full\TCPIP\Demo App\CustomHTTPApp.c
                    dwVal   0x000c00       data     static C:\Users\Tim\Desktop\PIC-WEB-5-42-UEXT-full\Microchip\TCPIP Stack\ICMP.c
                      len   0x000c00       data     static C:\Users\Tim\Desktop\PIC-WEB-5-42-UEXT-full\TCPIP\Demo App\CustomHTTPApp.c
                        i   0x000c00       data     static C:\Users\Tim\Desktop\PIC-WEB-5-42-UEXT-full\Microchip\TCPIP Stack\MPFS2.c
               recvBuffer   0x000c00       data     static C:\Users\Tim\Desktop\PIC-WEB-5-42-UEXT-full\TCPIP\Demo App\BerkeleyTCPClientDemo.c
                  ptrTemp   0x000c00       data     static C:\Users\Tim\Desktop\PIC-WEB-5-42-UEXT-full\Microchip\TCPIP Stack\TCP.c
                  ptrRead   0x000c00       data     static C:\Users\Tim\Desktop\PIC-WEB-5-42-UEXT-full\Microchip\TCPIP Stack\TCP.c
      vNeedToSaveDefaults   0x000c00       data     static C:\Users\Tim\Desktop\PIC-WEB-5-42-UEXT-full\TCPIP\Demo App\MainDemo.c
                  vBuffer   0x000c00       data     static C:\Users\Tim\Desktop\PIC-WEB-5-42-UEXT-full\Microchip\TCPIP Stack\TCPPerformanceTest.c
                   wCount   0x000c00       data     static C:\Users\Tim\Desktop\PIC-WEB-5-42-UEXT-full\Microchip\TCPIP Stack\HTTP2.c
               TempString   0x000c00       data     static C:\Users\Tim\Desktop\PIC-WEB-5-42-UEXT-full\TCPIP\Demo App\CustomHTTPApp.c
                 wDataLen   0x000c00       data     static C:\Users\Tim\Desktop\PIC-WEB-5-42-UEXT-full\Microchip\TCPIP Stack\TCP.c
                  vBuffer   0x000c00       data     static C:\Users\Tim\Desktop\PIC-WEB-5-42-UEXT-full\Microchip\TCPIP Stack\TCPPerformanceTest.c
                vBitCount   0x000c00       data     static C:\Users\Tim\Desktop\PIC-WEB-5-42-UEXT-full\Microchip\TCPIP Stack\Helpers.c
                  IPDigit   0x000c00       data     static C:\Users\Tim\Desktop\PIC-WEB-5-42-UEXT-full\TCPIP\Demo App\MainDemo.c
                TCPHeader   0x000c00       data     static C:\Users\Tim\Desktop\PIC-WEB-5-42-UEXT-full\Microchip\TCPIP Stack\TCP.c
               wSourceLen   0x000c00       data     static C:\Users\Tim\Desktop\PIC-WEB-5-42-UEXT-full\Microchip\TCPIP Stack\BerkeleyAPI.c
                        v   0x000c00       data     static C:\Users\Tim\Desktop\PIC-WEB-5-42-UEXT-full\Microchip\TCPIP Stack\DHCP.c
                     Buff   0x000c00       data     static C:\Users\Tim\Desktop\PIC-WEB-5-42-UEXT-full\TCPIP\Demo App\CustomHTTPApp.c
                        s   0x000c00       data     static C:\Users\Tim\Desktop\PIC-WEB-5-42-UEXT-full\Microchip\TCPIP Stack\BerkeleyAPI.c
        BootloaderAddress   0x000c00       data     static C:\Users\Tim\Desktop\PIC-WEB-5-42-UEXT-full\Microchip\TCPIP Stack\Reboot.c
               ICMPPacket   0x000c00       data     static C:\Users\Tim\Desktop\PIC-WEB-5-42-UEXT-full\Microchip\TCPIP Stack\ICMP.c
                       ss   0x000c00       data     static C:\Users\Tim\Desktop\PIC-WEB-5-42-UEXT-full\Microchip\TCPIP Stack\UDP.c
                  wMaxPut   0x000c00       data     static C:\Users\Tim\Desktop\PIC-WEB-5-42-UEXT-full\Microchip\TCPIP Stack\UART2TCPBridge.c
                AN0String   0x000c00       data     static C:\Users\Tim\Desktop\PIC-WEB-5-42-UEXT-full\TCPIP\Demo App\CustomHTTPApp.c
                   Result   0x000c00       data     static C:\Users\Tim\Desktop\PIC-WEB-5-42-UEXT-full\Microchip\TCPIP Stack\ETH97J60.c
             CalcChecksum   0x000c00       data     static C:\Users\Tim\Desktop\PIC-WEB-5-42-UEXT-full\Microchip\TCPIP Stack\IP.c
                    state   0x000c00       data     static C:\Users\Tim\Desktop\PIC-WEB-5-42-UEXT-full\TCPIP\Demo App\UARTConfig.c
                  GIESave   0x000c00       data     static C:\Users\Tim\Desktop\PIC-WEB-5-42-UEXT-full\Microchip\TCPIP Stack\ETH97J60.c
                        i   0x000c01       data     static C:\Users\Tim\Desktop\PIC-WEB-5-42-UEXT-full\Microchip\TCPIP Stack\ETH97J60.c
           vTelnetSession   0x000c01       data     static C:\Users\Tim\Desktop\PIC-WEB-5-42-UEXT-full\Microchip\TCPIP Stack\Telnet.c
                   Option   0x000c01       data     static C:\Users\Tim\Desktop\PIC-WEB-5-42-UEXT-full\Microchip\TCPIP Stack\DHCPs.c
                     data   0x000c01       data     static C:\Users\Tim\Desktop\PIC-WEB-5-42-UEXT-full\Microchip\TCPIP Stack\UART.c
                        i   0x000c01       data     static C:\Users\Tim\Desktop\PIC-WEB-5-42-UEXT-full\Microchip\TCPIP Stack\DHCP.c
      NVMValidationStruct   0x000c01       data     static C:\Users\Tim\Desktop\PIC-WEB-5-42-UEXT-full\TCPIP\Demo App\MainDemo.c
                     MyIP   0x000c01       data     static C:\Users\Tim\Desktop\PIC-WEB-5-42-UEXT-full\Microchip\TCPIP Stack\DHCP.c
              bRetransmit   0x000c01       data     static C:\Users\Tim\Desktop\PIC-WEB-5-42-UEXT-full\Microchip\TCPIP Stack\TCP.c
                        w   0x000c01       data     static C:\Users\Tim\Desktop\PIC-WEB-5-42-UEXT-full\Microchip\TCPIP Stack\Helpers.c
                        w   0x000c01       data     static C:\Users\Tim\Desktop\PIC-WEB-5-42-UEXT-full\TCPIP\Demo App\GenericTCPClient.c
                        w   0x000c01       data     static C:\Users\Tim\Desktop\PIC-WEB-5-42-UEXT-full\TCPIP\Demo App\GenericTCPServer.c
                     Type   0x000c01       data     static C:\Users\Tim\Desktop\PIC-WEB-5-42-UEXT-full\Microchip\TCPIP Stack\NBNS.c
          ipResolvedDNSIP   0x000c01       data     static C:\Users\Tim\Desktop\PIC-WEB-5-42-UEXT-full\Microchip\TCPIP Stack\UDP.c
                       cB   0x000c01       data     static C:\Users\Tim\Desktop\PIC-WEB-5-42-UEXT-full\Microchip\TCPIP Stack\Helpers.c
                        j   0x000c01       data     static C:\Users\Tim\Desktop\PIC-WEB-5-42-UEXT-full\Microchip\TCPIP Stack\Helpers.c
                 nameHash   0x000c01       data     static C:\Users\Tim\Desktop\PIC-WEB-5-42-UEXT-full\Microchip\TCPIP Stack\MPFS2.c
                        c   0x000c01       data     static C:\Users\Tim\Desktop\PIC-WEB-5-42-UEXT-full\TCPIP\Demo App\UARTConfig.c
                    count   0x000c01       data     static C:\Users\Tim\Desktop\PIC-WEB-5-42-UEXT-full\Microchip\TCPIP Stack\UART.c
                   header   0x000c02       data     static C:\Users\Tim\Desktop\PIC-WEB-5-42-UEXT-full\Microchip\TCPIP Stack\IP.c
                wFIFOSize   0x000c02       data     static C:\Users\Tim\Desktop\PIC-WEB-5-42-UEXT-full\Microchip\TCPIP Stack\TCP.c
                   handle   0x000c02       data     static C:\Users\Tim\Desktop\PIC-WEB-5-42-UEXT-full\TCPIP\Demo App\UARTConfig.c
                     lenB   0x000c02       data     static C:\Users\Tim\Desktop\PIC-WEB-5-42-UEXT-full\Microchip\TCPIP Stack\HTTP2.c
                        w   0x000c02       data     static C:\Users\Tim\Desktop\PIC-WEB-5-42-UEXT-full\Microchip\TCPIP Stack\TCP.c
                        w   0x000c02       data     static C:\Users\Tim\Desktop\PIC-WEB-5-42-UEXT-full\Microchip\TCPIP Stack\BerkeleyAPI.c
                      rem   0x000c02       data     static C:\Users\Tim\Desktop\PIC-WEB-5-42-UEXT-full\TCPIP\Demo App\CustomHTTPApp.c
                        c   0x000c02       data     static C:\Users\Tim\Desktop\PIC-WEB-5-42-UEXT-full\Microchip\TCPIP Stack\SMTP.c
                     wLen   0x000c02       data     static C:\Users\Tim\Desktop\PIC-WEB-5-42-UEXT-full\Microchip\TCPIP Stack\HTTP2.c
                      str   0x000c02       data     static C:\Users\Tim\Desktop\PIC-WEB-5-42-UEXT-full\Microchip\TCPIP Stack\Helpers.c
                  wMaxGet   0x000c02       data     static C:\Users\Tim\Desktop\PIC-WEB-5-42-UEXT-full\Microchip\TCPIP Stack\UART2TCPBridge.c
                      buf   0x000c02       data     static C:\Users\Tim\Desktop\PIC-WEB-5-42-UEXT-full\Microchip\TCPIP Stack\HTTP2.c
                        i   0x000c02       data     static C:\Users\Tim\Desktop\PIC-WEB-5-42-UEXT-full\Microchip\TCPIP Stack\AutoIP.c
                        j   0x000c02       data     static C:\Users\Tim\Desktop\PIC-WEB-5-42-UEXT-full\Microchip\TCPIP Stack\DHCP.c
                      buf   0x000c02       data     static C:\Users\Tim\Desktop\PIC-WEB-5-42-UEXT-full\Microchip\TCPIP Stack\HTTP2.c
                  vOutput   0x000c02       data     static C:\Users\Tim\Desktop\PIC-WEB-5-42-UEXT-full\Microchip\TCPIP Stack\Helpers.c
                 MySocket   0x000c02       data     static C:\Users\Tim\Desktop\PIC-WEB-5-42-UEXT-full\Microchip\TCPIP Stack\Announce.c
                      len   0x000c02       data     static C:\Users\Tim\Desktop\PIC-WEB-5-42-UEXT-full\Microchip\TCPIP Stack\HTTP2.c
                 filename   0x000c02       data     static C:\Users\Tim\Desktop\PIC-WEB-5-42-UEXT-full\TCPIP\Demo App\CustomHTTPApp.c
                      Len   0x000c02       data     static C:\Users\Tim\Desktop\PIC-WEB-5-42-UEXT-full\Microchip\TCPIP Stack\DHCPs.c
                        w   0x000c02       data     static C:\Users\Tim\Desktop\PIC-WEB-5-42-UEXT-full\Microchip\TCPIP Stack\Telnet.c
                  ptrHead   0x000c02       data     static C:\Users\Tim\Desktop\PIC-WEB-5-42-UEXT-full\Microchip\TCPIP Stack\TCP.c
                   socket   0x000c02       data     static C:\Users\Tim\Desktop\PIC-WEB-5-42-UEXT-full\Microchip\TCPIP Stack\BerkeleyAPI.c
             bCloseSocket   0x000c02       data     static C:\Users\Tim\Desktop\PIC-WEB-5-42-UEXT-full\Microchip\TCPIP Stack\TCP.c
                  vBuffer   0x000c03       data     static C:\Users\Tim\Desktop\PIC-WEB-5-42-UEXT-full\TCPIP\Demo App\GenericTCPClient.c
                        c   0x000c03       data     static C:\Users\Tim\Desktop\PIC-WEB-5-42-UEXT-full\Microchip\TCPIP Stack\SMTP.c
                   vFlags   0x000c03       data     static C:\Users\Tim\Desktop\PIC-WEB-5-42-UEXT-full\Microchip\TCPIP Stack\TCP.c
              ParseStates   0x000c03       data     static C:\Users\Tim\Desktop\PIC-WEB-5-42-UEXT-full\Microchip\TCPIP Stack\SMTP.c
                       w2   0x000c03       data     static C:\Users\Tim\Desktop\PIC-WEB-5-42-UEXT-full\TCPIP\Demo App\GenericTCPServer.c
                     type   0x000c03       data     static C:\Users\Tim\Desktop\PIC-WEB-5-42-UEXT-full\Microchip\TCPIP Stack\DHCP.c
                        i   0x000c03       data     static C:\Users\Tim\Desktop\PIC-WEB-5-42-UEXT-full\Microchip\TCPIP Stack\Announce.c
                        i   0x000c03       data     static C:\Users\Tim\Desktop\PIC-WEB-5-42-UEXT-full\Microchip\TCPIP Stack\MPFS2.c
                    Class   0x000c03       data     static C:\Users\Tim\Desktop\PIC-WEB-5-42-UEXT-full\Microchip\TCPIP Stack\NBNS.c
              BOOTPHeader   0x000c03       data     static C:\Users\Tim\Desktop\PIC-WEB-5-42-UEXT-full\Microchip\TCPIP Stack\DHCPs.c
                    wTime   0x000c03       data     static C:\Users\Tim\Desktop\PIC-WEB-5-42-UEXT-full\Microchip\TCPIP Stack\Helpers.c
                   lbDone   0x000c03       data     static C:\Users\Tim\Desktop\PIC-WEB-5-42-UEXT-full\TCPIP\Demo App\UARTConfig.c
                        c   0x000c04       data     static C:\Users\Tim\Desktop\PIC-WEB-5-42-UEXT-full\Microchip\TCPIP Stack\HTTP2.c
                        i   0x000c04       data     static C:\Users\Tim\Desktop\PIC-WEB-5-42-UEXT-full\TCPIP\Demo App\CustomHTTPApp.c
                    cName   0x000c04       data     static C:\Users\Tim\Desktop\PIC-WEB-5-42-UEXT-full\TCPIP\Demo App\CustomHTTPApp.c
                        w   0x000c04       data     static C:\Users\Tim\Desktop\PIC-WEB-5-42-UEXT-full\Microchip\TCPIP Stack\UART2TCPBridge.c
                        i   0x000c04       data     static C:\Users\Tim\Desktop\PIC-WEB-5-42-UEXT-full\TCPIP\Demo App\MainDemo.c
                   lbDone   0x000c04       data     static C:\Users\Tim\Desktop\PIC-WEB-5-42-UEXT-full\Microchip\TCPIP Stack\DHCP.c
                      end   0x000c04       data     static C:\Users\Tim\Desktop\PIC-WEB-5-42-UEXT-full\Microchip\TCPIP Stack\Helpers.c
                   dwTick   0x000c04       data     static C:\Users\Tim\Desktop\PIC-WEB-5-42-UEXT-full\TCPIP\Demo App\BerkeleyUDPClientDemo.c
                     data   0x000c04       data     static C:\Users\Tim\Desktop\PIC-WEB-5-42-UEXT-full\Microchip\TCPIP Stack\HTTP2.c
                      Vin   0x000c04       data     static C:\Users\Tim\Desktop\PIC-WEB-5-42-UEXT-full\TCPIP\Demo App\MainDemo.c
                 blockLen   0x000c04       data     static C:\Users\Tim\Desktop\PIC-WEB-5-42-UEXT-full\TCPIP\Demo App\UARTConfig.c
                        b   0x000c04       data     static C:\Users\Tim\Desktop\PIC-WEB-5-42-UEXT-full\Microchip\TCPIP Stack\Hashes.c
            wTXAllocation   0x000c04       data     static C:\Users\Tim\Desktop\PIC-WEB-5-42-UEXT-full\Microchip\TCPIP Stack\TCP.c
                        w   0x000c04       data     static C:\Users\Tim\Desktop\PIC-WEB-5-42-UEXT-full\Microchip\TCPIP Stack\TCP.c
                        v   0x000c04       data     static C:\Users\Tim\Desktop\PIC-WEB-5-42-UEXT-full\Microchip\TCPIP Stack\BerkeleyAPI.c
          wBytesUntilWrap   0x000c04       data     static C:\Users\Tim\Desktop\PIC-WEB-5-42-UEXT-full\Microchip\TCPIP Stack\TCP.c
                       w2   0x000c04       data     static C:\Users\Tim\Desktop\PIC-WEB-5-42-UEXT-full\Microchip\TCPIP Stack\Telnet.c
              ParseStates   0x000c04       data     static C:\Users\Tim\Desktop\PIC-WEB-5-42-UEXT-full\Microchip\TCPIP Stack\SMTP.c
                     data   0x000c05       data     static C:\Users\Tim\Desktop\PIC-WEB-5-42-UEXT-full\Microchip\TCPIP Stack\HTTP2.c
               NBNSHeader   0x000c05       data     static C:\Users\Tim\Desktop\PIC-WEB-5-42-UEXT-full\Microchip\TCPIP Stack\NBNS.c
             tempServerID   0x000c05       data     static C:\Users\Tim\Desktop\PIC-WEB-5-42-UEXT-full\Microchip\TCPIP Stack\DHCP.c
                  lResult   0x000c05       data     static C:\Users\Tim\Desktop\PIC-WEB-5-42-UEXT-full\TCPIP\Demo App\UARTConfig.c
                AppBuffer   0x000c05       data     static C:\Users\Tim\Desktop\PIC-WEB-5-42-UEXT-full\TCPIP\Demo App\GenericTCPServer.c
               wLastValue   0x000c05       data     static C:\Users\Tim\Desktop\PIC-WEB-5-42-UEXT-full\Microchip\TCPIP Stack\Helpers.c
                hashCache   0x000c05       data     static C:\Users\Tim\Desktop\PIC-WEB-5-42-UEXT-full\Microchip\TCPIP Stack\MPFS2.c
                        i   0x000c06       data     static C:\Users\Tim\Desktop\PIC-WEB-5-42-UEXT-full\Microchip\TCPIP Stack\TCP.c
                      len   0x000c06       data     static C:\Users\Tim\Desktop\PIC-WEB-5-42-UEXT-full\Microchip\TCPIP Stack\Helpers.c
                       w3   0x000c06       data     static C:\Users\Tim\Desktop\PIC-WEB-5-42-UEXT-full\Microchip\TCPIP Stack\Telnet.c
          ipResolvedDNSIP   0x000c06       data     static C:\Users\Tim\Desktop\PIC-WEB-5-42-UEXT-full\Microchip\TCPIP Stack\TCP.c
          RXHeadPtrShadow   0x000c06       data     static C:\Users\Tim\Desktop\PIC-WEB-5-42-UEXT-full\Microchip\TCPIP Stack\UART2TCPBridge.c
               wOutputLen   0x000c06       data     static C:\Users\Tim\Desktop\PIC-WEB-5-42-UEXT-full\Microchip\TCPIP Stack\Helpers.c
                 tempData   0x000c06       data     static C:\Users\Tim\Desktop\PIC-WEB-5-42-UEXT-full\TCPIP\Demo App\UARTConfig.c
              dwTotalTime   0x000c07       data     static C:\Users\Tim\Desktop\PIC-WEB-5-42-UEXT-full\Microchip\TCPIP Stack\Helpers.c
              temperature   0x000c08       data     static C:\Users\Tim\Desktop\PIC-WEB-5-42-UEXT-full\TCPIP\Demo App\CustomHTTPApp.c
                        c   0x000c08       data     static C:\Users\Tim\Desktop\PIC-WEB-5-42-UEXT-full\Microchip\TCPIP Stack\Hashes.c
                    ADval   0x000c08       data     static C:\Users\Tim\Desktop\PIC-WEB-5-42-UEXT-full\TCPIP\Demo App\CustomHTTPApp.c
          RXTailPtrShadow   0x000c08       data     static C:\Users\Tim\Desktop\PIC-WEB-5-42-UEXT-full\Microchip\TCPIP Stack\UART2TCPBridge.c
                        s   0x000c08       data     static C:\Users\Tim\Desktop\PIC-WEB-5-42-UEXT-full\Microchip\TCPIP Stack\UDP.c
                        i   0x000c08       data     static C:\Users\Tim\Desktop\PIC-WEB-5-42-UEXT-full\Microchip\TCPIP Stack\SMTP.c
                       w4   0x000c08       data     static C:\Users\Tim\Desktop\PIC-WEB-5-42-UEXT-full\Microchip\TCPIP Stack\Telnet.c
                     temp   0x000c08       data     static C:\Users\Tim\Desktop\PIC-WEB-5-42-UEXT-full\TCPIP\Demo App\MainDemo.c
                        i   0x000c09       data     static C:\Users\Tim\Desktop\PIC-WEB-5-42-UEXT-full\TCPIP\Demo App\BerkeleyTCPClientDemo.c
                        i   0x000c09       data     static C:\Users\Tim\Desktop\PIC-WEB-5-42-UEXT-full\Microchip\TCPIP Stack\DHCP.c
                        w   0x000c09       data     static C:\Users\Tim\Desktop\PIC-WEB-5-42-UEXT-full\Microchip\TCPIP Stack\SMTP.c
             pseudoHeader   0x000c09       data     static C:\Users\Tim\Desktop\PIC-WEB-5-42-UEXT-full\Microchip\TCPIP Stack\UDP.c
                        w   0x000c0a       data     static C:\Users\Tim\Desktop\PIC-WEB-5-42-UEXT-full\Microchip\TCPIP Stack\TCPPerformanceTest.c
          TXHeadPtrShadow   0x000c0a       data     static C:\Users\Tim\Desktop\PIC-WEB-5-42-UEXT-full\Microchip\TCPIP Stack\UART2TCPBridge.c
                      ret   0x000c0a       data     static C:\Users\Tim\Desktop\PIC-WEB-5-42-UEXT-full\TCPIP\Demo App\PingDemo.c
                      tmp   0x000c0a       data     static C:\Users\Tim\Desktop\PIC-WEB-5-42-UEXT-full\TCPIP\Demo App\CustomHTTPApp.c
                      tmp   0x000c0a       data     static C:\Users\Tim\Desktop\PIC-WEB-5-42-UEXT-full\TCPIP\Demo App\MainDemo.c
                 MySocket   0x000c0a       data     static C:\Users\Tim\Desktop\PIC-WEB-5-42-UEXT-full\Microchip\TCPIP Stack\Telnet.c
                 rcounter   0x000c0b       data     static C:\Users\Tim\Desktop\PIC-WEB-5-42-UEXT-full\Microchip\TCPIP Stack\Telnet.c
                  addrlen   0x000c0b       data     static C:\Users\Tim\Desktop\PIC-WEB-5-42-UEXT-full\TCPIP\Demo App\BerkeleyTCPClientDemo.c
             randomResult   0x000c0b       data     static C:\Users\Tim\Desktop\PIC-WEB-5-42-UEXT-full\Microchip\TCPIP Stack\Helpers.c
            vBase64Buffer   0x000c0b       data     static C:\Users\Tim\Desktop\PIC-WEB-5-42-UEXT-full\Microchip\TCPIP Stack\SMTP.c
                   result   0x000c0c       data     static C:\Users\Tim\Desktop\PIC-WEB-5-42-UEXT-full\Microchip\TCPIP Stack\SMTP.c
                        r   0x000c0c       data     static C:\Users\Tim\Desktop\PIC-WEB-5-42-UEXT-full\TCPIP\Demo App\CustomHTTPApp.c
                   result   0x000c0c       data     static C:\Users\Tim\Desktop\PIC-WEB-5-42-UEXT-full\Microchip\TCPIP Stack\SMTP.c
                        i   0x000c0c       data     static C:\Users\Tim\Desktop\PIC-WEB-5-42-UEXT-full\TCPIP\Demo App\MainDemo.c
                   wvPROD   0x000c0c       data     static C:\Users\Tim\Desktop\PIC-WEB-5-42-UEXT-full\Microchip\TCPIP Stack\Reboot.c
                        w   0x000c0c       data     static C:\Users\Tim\Desktop\PIC-WEB-5-42-UEXT-full\Microchip\TCPIP Stack\TCPPerformanceTest.c
                       dw   0x000c0c       data     static C:\Users\Tim\Desktop\PIC-WEB-5-42-UEXT-full\Microchip\TCPIP Stack\TCPPerformanceTest.c
                        d   0x000c0c       data     static C:\Users\Tim\Desktop\PIC-WEB-5-42-UEXT-full\Microchip\TCPIP Stack\Hashes.c
          TXTailPtrShadow   0x000c0c       data     static C:\Users\Tim\Desktop\PIC-WEB-5-42-UEXT-full\Microchip\TCPIP Stack\UART2TCPBridge.c
                   socket   0x000c0d       data     static C:\Users\Tim\Desktop\PIC-WEB-5-42-UEXT-full\Microchip\TCPIP Stack\BerkeleyAPI.c
                   mychar   0x000c0d       data     static C:\Users\Tim\Desktop\PIC-WEB-5-42-UEXT-full\Microchip\TCPIP Stack\Telnet.c
                  spiData   0x000c0e       data     static C:\Users\Tim\Desktop\PIC-WEB-5-42-UEXT-full\Microchip\TCPIP Stack\Telnet.c
                        n   0x000c0e       data     static C:\Users\Tim\Desktop\PIC-WEB-5-42-UEXT-full\TCPIP\Demo App\MainDemo.c
                  wGetLen   0x000c0e       data     static C:\Users\Tim\Desktop\PIC-WEB-5-42-UEXT-full\Microchip\TCPIP Stack\TCPPerformanceTest.c
                    dummy   0x000c0e       data     static C:\Users\Tim\Desktop\PIC-WEB-5-42-UEXT-full\Microchip\TCPIP Stack\UART2TCPBridge.c
                     addr   0x000c0f       data     static C:\Users\Tim\Desktop\PIC-WEB-5-42-UEXT-full\Microchip\TCPIP Stack\BerkeleyAPI.c
               ADCON0Save   0x000c0f       data     static C:\Users\Tim\Desktop\PIC-WEB-5-42-UEXT-full\Microchip\TCPIP Stack\Helpers.c
                       qw   0x000c10       data     static C:\Users\Tim\Desktop\PIC-WEB-5-42-UEXT-full\Microchip\TCPIP Stack\TCPPerformanceTest.c
                     lenA   0x000c10       data     static C:\Users\Tim\Desktop\PIC-WEB-5-42-UEXT-full\Microchip\TCPIP Stack\HTTP2.c
                        f   0x000c10       data     static C:\Users\Tim\Desktop\PIC-WEB-5-42-UEXT-full\Microchip\TCPIP Stack\Hashes.c
                       dw   0x000c10       data     static C:\Users\Tim\Desktop\PIC-WEB-5-42-UEXT-full\Microchip\TCPIP Stack\TCPPerformanceTest.c
                      tot   0x000c10       data     static C:\Users\Tim\Desktop\PIC-WEB-5-42-UEXT-full\TCPIP\Demo App\MainDemo.c
                addRemote   0x000c10       data     static C:\Users\Tim\Desktop\PIC-WEB-5-42-UEXT-full\TCPIP\Demo App\BerkeleyTCPServerDemo.c
                        z   0x000c10       data     static C:\Users\Tim\Desktop\PIC-WEB-5-42-UEXT-full\TCPIP\Demo App\CustomHTTPApp.c
               ADCON2Save   0x000c10       data     static C:\Users\Tim\Desktop\PIC-WEB-5-42-UEXT-full\Microchip\TCPIP Stack\Helpers.c
               NameString   0x000c11       data     static C:\Users\Tim\Desktop\PIC-WEB-5-42-UEXT-full\Microchip\TCPIP Stack\NBNS.c
                T0CONSave   0x000c11       data     static C:\Users\Tim\Desktop\PIC-WEB-5-42-UEXT-full\Microchip\TCPIP Stack\Helpers.c
                 remoteIP   0x000c11       data     static C:\Users\Tim\Desktop\PIC-WEB-5-42-UEXT-full\Microchip\TCPIP Stack\BerkeleyAPI.c
                   binary   0x000c12       data     static C:\Users\Tim\Desktop\PIC-WEB-5-42-UEXT-full\Microchip\TCPIP Stack\Telnet.c
                TMR0HSave   0x000c12       data     static C:\Users\Tim\Desktop\PIC-WEB-5-42-UEXT-full\Microchip\TCPIP Stack\Helpers.c
                     lenB   0x000c12       data     static C:\Users\Tim\Desktop\PIC-WEB-5-42-UEXT-full\Microchip\TCPIP Stack\HTTP2.c
                TMR0LSave   0x000c13       data     static C:\Users\Tim\Desktop\PIC-WEB-5-42-UEXT-full\Microchip\TCPIP Stack\Helpers.c
                 icounter   0x000c13       data     static C:\Users\Tim\Desktop\PIC-WEB-5-42-UEXT-full\Microchip\TCPIP Stack\Telnet.c
             pseudoHeader   0x000c14       data     static C:\Users\Tim\Desktop\PIC-WEB-5-42-UEXT-full\Microchip\TCPIP Stack\TCP.c
                       qw   0x000c14       data     static C:\Users\Tim\Desktop\PIC-WEB-5-42-UEXT-full\Microchip\TCPIP Stack\TCPPerformanceTest.c
                     temp   0x000c14       data     static C:\Users\Tim\Desktop\PIC-WEB-5-42-UEXT-full\TCPIP\Demo App\MainDemo.c
                        i   0x000c14       data     static C:\Users\Tim\Desktop\PIC-WEB-5-42-UEXT-full\Microchip\TCPIP Stack\TCP.c
                     temp   0x000c14       data     static C:\Users\Tim\Desktop\PIC-WEB-5-42-UEXT-full\Microchip\TCPIP Stack\Hashes.c
                        i   0x000c15       data     static C:\Users\Tim\Desktop\PIC-WEB-5-42-UEXT-full\Microchip\TCPIP Stack\Helpers.c
                      ptr   0x000c15       data     static C:\Users\Tim\Desktop\PIC-WEB-5-42-UEXT-full\Microchip\TCPIP Stack\MPFS2.c
        vSocketsAllocated   0x000c15       data     static C:\Users\Tim\Desktop\PIC-WEB-5-42-UEXT-full\Microchip\TCPIP Stack\TCP.c
                  tempStr   0x000c15       data     static C:\Users\Tim\Desktop\PIC-WEB-5-42-UEXT-full\Microchip\TCPIP Stack\Telnet.c
                checksums   0x000c15       data     static C:\Users\Tim\Desktop\PIC-WEB-5-42-UEXT-full\Microchip\TCPIP Stack\UDP.c
               remotePort   0x000c15       data     static C:\Users\Tim\Desktop\PIC-WEB-5-42-UEXT-full\Microchip\TCPIP Stack\BerkeleyAPI.c
                  wTXSize   0x000c16       data     static C:\Users\Tim\Desktop\PIC-WEB-5-42-UEXT-full\Microchip\TCPIP Stack\TCP.c
                     Temp   0x000c16       data     static C:\Users\Tim\Desktop\PIC-WEB-5-42-UEXT-full\TCPIP\Demo App\CustomHTTPApp.c
                    Digit   0x000c16       data     static C:\Users\Tim\Desktop\PIC-WEB-5-42-UEXT-full\Microchip\TCPIP Stack\Helpers.c
                     temp   0x000c16       data     static C:\Users\Tim\Desktop\PIC-WEB-5-42-UEXT-full\Microchip\TCPIP Stack\ETH97J60.c
                        c   0x000c17       data     static C:\Users\Tim\Desktop\PIC-WEB-5-42-UEXT-full\Microchip\TCPIP Stack\MPFS2.c
                localPort   0x000c17       data     static C:\Users\Tim\Desktop\PIC-WEB-5-42-UEXT-full\Microchip\TCPIP Stack\BerkeleyAPI.c
                 Transmit   0x000c18       data     static C:\Users\Tim\Desktop\PIC-WEB-5-42-UEXT-full\TCPIP\Demo App\CustomHTTPApp.c
                  Divisor   0x000c18       data     static C:\Users\Tim\Desktop\PIC-WEB-5-42-UEXT-full\Microchip\TCPIP Stack\Helpers.c
                  wRXSize   0x000c18       data     static C:\Users\Tim\Desktop\PIC-WEB-5-42-UEXT-full\Microchip\TCPIP Stack\TCP.c
                   RDSave   0x000c18       data     static C:\Users\Tim\Desktop\PIC-WEB-5-42-UEXT-full\Microchip\TCPIP Stack\ETH97J60.c
                        i   0x000c18       data     static C:\Users\Tim\Desktop\PIC-WEB-5-42-UEXT-full\Microchip\TCPIP Stack\Hashes.c
                        s   0x000c19       data     static C:\Users\Tim\Desktop\PIC-WEB-5-42-UEXT-full\Microchip\TCPIP Stack\UDP.c
                        j   0x000c19       data     static C:\Users\Tim\Desktop\PIC-WEB-5-42-UEXT-full\Microchip\TCPIP Stack\Hashes.c
                 BaudRate   0x000c1a       data     static C:\Users\Tim\Desktop\PIC-WEB-5-42-UEXT-full\TCPIP\Demo App\CustomHTTPApp.c
           ptrBaseAddress   0x000c1a       data     static C:\Users\Tim\Desktop\PIC-WEB-5-42-UEXT-full\Microchip\TCPIP Stack\TCP.c
                 blockPtr   0x000c1a       data     static C:\Users\Tim\Desktop\PIC-WEB-5-42-UEXT-full\Microchip\TCPIP Stack\Hashes.c
             partialMatch   0x000c1a       data     static C:\Users\Tim\Desktop\PIC-WEB-5-42-UEXT-full\Microchip\TCPIP Stack\UDP.c
                 blockPtr   0x000c1a       data     static C:\Users\Tim\Desktop\PIC-WEB-5-42-UEXT-full\Microchip\TCPIP Stack\Hashes.c
                       h0   0x000c1a       data     static C:\Users\Tim\Desktop\PIC-WEB-5-42-UEXT-full\Microchip\TCPIP Stack\Hashes.c
                  Printed   0x000c1a       data     static C:\Users\Tim\Desktop\PIC-WEB-5-42-UEXT-full\Microchip\TCPIP Stack\Helpers.c
                        p   0x000c1b       data     static C:\Users\Tim\Desktop\PIC-WEB-5-42-UEXT-full\Microchip\TCPIP Stack\UDP.c
                  vMedium   0x000c1c       data     static C:\Users\Tim\Desktop\PIC-WEB-5-42-UEXT-full\Microchip\TCPIP Stack\TCP.c
                        i   0x000c1c       data     static C:\Users\Tim\Desktop\PIC-WEB-5-42-UEXT-full\Microchip\TCPIP Stack\ARP.c
                     Temp   0x000c1c       data     static C:\Users\Tim\Desktop\PIC-WEB-5-42-UEXT-full\TCPIP\Demo App\CustomHTTPApp.c
       wCurrentETHAddress   0x000c1d       data     static C:\Users\Tim\Desktop\PIC-WEB-5-42-UEXT-full\Microchip\TCPIP Stack\TCP.c
                       h1   0x000c1e       data     static C:\Users\Tim\Desktop\PIC-WEB-5-42-UEXT-full\Microchip\TCPIP Stack\Hashes.c
              NewBaudRate   0x000c1e       data     static C:\Users\Tim\Desktop\PIC-WEB-5-42-UEXT-full\TCPIP\Demo App\CustomHTTPApp.c
                dwOldSeed   0x000c1f       data     static C:\Users\Tim\Desktop\PIC-WEB-5-42-UEXT-full\Microchip\TCPIP Stack\Helpers.c
                checksum1   0x000c20       data     static C:\Users\Tim\Desktop\PIC-WEB-5-42-UEXT-full\Microchip\TCPIP Stack\TCP.c
                  addrlen   0x000c20       data     static C:\Users\Tim\Desktop\PIC-WEB-5-42-UEXT-full\TCPIP\Demo App\BerkeleyTCPServerDemo.c
                        i   0x000c21       data     static C:\Users\Tim\Desktop\PIC-WEB-5-42-UEXT-full\Microchip\TCPIP Stack\NBNS.c
                        i   0x000c21       data     static C:\Users\Tim\Desktop\PIC-WEB-5-42-UEXT-full\Microchip\TCPIP Stack\NBNS.c
                      bfr   0x000c22       data     static C:\Users\Tim\Desktop\PIC-WEB-5-42-UEXT-full\TCPIP\Demo App\BerkeleyTCPServerDemo.c
                       h2   0x000c22       data     static C:\Users\Tim\Desktop\PIC-WEB-5-42-UEXT-full\Microchip\TCPIP Stack\Hashes.c
                        j   0x000c22       data     static C:\Users\Tim\Desktop\PIC-WEB-5-42-UEXT-full\Microchip\TCPIP Stack\NBNS.c
                checksum2   0x000c22       data     static C:\Users\Tim\Desktop\PIC-WEB-5-42-UEXT-full\Microchip\TCPIP Stack\TCP.c
                        i   0x000c22       data     static C:\Users\Tim\Desktop\PIC-WEB-5-42-UEXT-full\TCPIP\Demo App\CustomHTTPApp.c
                        j   0x000c22       data     static C:\Users\Tim\Desktop\PIC-WEB-5-42-UEXT-full\Microchip\TCPIP Stack\NBNS.c
                        i   0x000c23       data     static C:\Users\Tim\Desktop\PIC-WEB-5-42-UEXT-full\Microchip\TCPIP Stack\Helpers.c
                        k   0x000c23       data     static C:\Users\Tim\Desktop\PIC-WEB-5-42-UEXT-full\Microchip\TCPIP Stack\NBNS.c
                  NewLine   0x000c24       data     static C:\Users\Tim\Desktop\PIC-WEB-5-42-UEXT-full\TCPIP\Demo App\CustomHTTPApp.c
              optionsSize   0x000c24       data     static C:\Users\Tim\Desktop\PIC-WEB-5-42-UEXT-full\Microchip\TCPIP Stack\TCP.c
                       dw   0x000c25       data     static C:\Users\Tim\Desktop\PIC-WEB-5-42-UEXT-full\Microchip\TCPIP Stack\DHCPs.c
                  wMaxGet   0x000c25       data     static C:\Users\Tim\Desktop\PIC-WEB-5-42-UEXT-full\TCPIP\Demo App\GenericTCPServer.c
                     hTCP   0x000c25       data     static C:\Users\Tim\Desktop\PIC-WEB-5-42-UEXT-full\Microchip\TCPIP Stack\TCP.c
                   dwTemp   0x000c25       data     static C:\Users\Tim\Desktop\PIC-WEB-5-42-UEXT-full\Microchip\TCPIP Stack\TCP.c
                       h3   0x000c26       data     static C:\Users\Tim\Desktop\PIC-WEB-5-42-UEXT-full\Microchip\TCPIP Stack\Hashes.c
             partialMatch   0x000c26       data     static C:\Users\Tim\Desktop\PIC-WEB-5-42-UEXT-full\Microchip\TCPIP Stack\TCP.c
                  wMaxPut   0x000c27       data     static C:\Users\Tim\Desktop\PIC-WEB-5-42-UEXT-full\TCPIP\Demo App\GenericTCPServer.c
                     Temp   0x000c27       data     static C:\Users\Tim\Desktop\PIC-WEB-5-42-UEXT-full\TCPIP\Demo App\CustomHTTPApp.c
                     hash   0x000c27       data     static C:\Users\Tim\Desktop\PIC-WEB-5-42-UEXT-full\Microchip\TCPIP Stack\TCP.c
         I2C_Delay_String   0x000c29       data     static C:\Users\Tim\Desktop\PIC-WEB-5-42-UEXT-full\TCPIP\Demo App\CustomHTTPApp.c
                  bAccept   0x000c29       data     static C:\Users\Tim\Desktop\PIC-WEB-5-42-UEXT-full\Microchip\TCPIP Stack\DHCPs.c
            wCurrentChunk   0x000c29       data     static C:\Users\Tim\Desktop\PIC-WEB-5-42-UEXT-full\TCPIP\Demo App\GenericTCPServer.c
                    value   0x000c29       data     static C:\Users\Tim\Desktop\PIC-WEB-5-42-UEXT-full\Microchip\TCPIP Stack\Telnet.c
                    wTemp   0x000c29       data     static C:\Users\Tim\Desktop\PIC-WEB-5-42-UEXT-full\Microchip\TCPIP Stack\TCP.c
          wQueueInsertPos   0x000c29       data     static C:\Users\Tim\Desktop\PIC-WEB-5-42-UEXT-full\Microchip\TCPIP Stack\TCP.c
                        i   0x000c2a       data     static C:\Users\Tim\Desktop\PIC-WEB-5-42-UEXT-full\Microchip\TCPIP Stack\Hashes.c
                   ptrBuf   0x000c2a       data     static C:\Users\Tim\Desktop\PIC-WEB-5-42-UEXT-full\Microchip\TCPIP Stack\HTTP2.c
                   bRenew   0x000c2a       data     static C:\Users\Tim\Desktop\PIC-WEB-5-42-UEXT-full\Microchip\TCPIP Stack\DHCPs.c
                  Address   0x000c2b       data     static C:\Users\Tim\Desktop\PIC-WEB-5-42-UEXT-full\TCPIP\Demo App\CustomHTTPApp.c
                  TCerror   0x000c2b       data     static C:\Users\Tim\Desktop\PIC-WEB-5-42-UEXT-full\Microchip\TCPIP Stack\Telnet.c
                  partPtr   0x000c2b       data     static C:\Users\Tim\Desktop\PIC-WEB-5-42-UEXT-full\Microchip\TCPIP Stack\Hashes.c
                   tmp_ip   0x000c2b       data     static C:\Users\Tim\Desktop\PIC-WEB-5-42-UEXT-full\Microchip\TCPIP Stack\DHCPs.c
            lMissingBytes   0x000c2b       data     static C:\Users\Tim\Desktop\PIC-WEB-5-42-UEXT-full\Microchip\TCPIP Stack\TCP.c
                        i   0x000c2c       data     static C:\Users\Tim\Desktop\PIC-WEB-5-42-UEXT-full\Microchip\TCPIP Stack\Helpers.c
               isNegative   0x000c2d       data     static C:\Users\Tim\Desktop\PIC-WEB-5-42-UEXT-full\Microchip\TCPIP Stack\Telnet.c
              vByteNumber   0x000c2d       data     static C:\Users\Tim\Desktop\PIC-WEB-5-42-UEXT-full\Microchip\TCPIP Stack\Helpers.c
                  Command   0x000c2d       data     static C:\Users\Tim\Desktop\PIC-WEB-5-42-UEXT-full\TCPIP\Demo App\CustomHTTPApp.c
                   endPtr   0x000c2d       data     static C:\Users\Tim\Desktop\PIC-WEB-5-42-UEXT-full\Microchip\TCPIP Stack\Hashes.c
             wBytesOutput   0x000c2e       data     static C:\Users\Tim\Desktop\PIC-WEB-5-42-UEXT-full\Microchip\TCPIP Stack\Helpers.c
            wMissingBytes   0x000c2f       data     static C:\Users\Tim\Desktop\PIC-WEB-5-42-UEXT-full\Microchip\TCPIP Stack\TCP.c
                        i   0x000c2f       data     static C:\Users\Tim\Desktop\PIC-WEB-5-42-UEXT-full\Microchip\TCPIP Stack\DHCPs.c
                     lenA   0x000c2f       data     static C:\Users\Tim\Desktop\PIC-WEB-5-42-UEXT-full\TCPIP\Demo App\CustomHTTPApp.c
                   tempTC   0x000c2f       data     static C:\Users\Tim\Desktop\PIC-WEB-5-42-UEXT-full\Microchip\TCPIP Stack\Telnet.c
                        i   0x000c2f       data     static C:\Users\Tim\Desktop\PIC-WEB-5-42-UEXT-full\Microchip\TCPIP Stack\DHCPs.c
                        i   0x000c2f       data     static C:\Users\Tim\Desktop\PIC-WEB-5-42-UEXT-full\Microchip\TCPIP Stack\DHCPs.c
            current_timer   0x000c2f       data     static C:\Users\Tim\Desktop\PIC-WEB-5-42-UEXT-full\Microchip\TCPIP Stack\DHCPs.c
                        i   0x000c2f       data     static C:\Users\Tim\Desktop\PIC-WEB-5-42-UEXT-full\Microchip\TCPIP Stack\DHCPs.c
                    Value   0x000c2f       data     static C:\Users\Tim\Desktop\PIC-WEB-5-42-UEXT-full\TCPIP\Demo App\CustomHTTPApp.c
                        i   0x000c30       data     static C:\Users\Tim\Desktop\PIC-WEB-5-42-UEXT-full\TCPIP\Demo App\BerkeleyUDPClientDemo.c
              indexOfPool   0x000c30       data     static C:\Users\Tim\Desktop\PIC-WEB-5-42-UEXT-full\Microchip\TCPIP Stack\DHCPs.c
                        w   0x000c30       data     static C:\Users\Tim\Desktop\PIC-WEB-5-42-UEXT-full\Microchip\TCPIP Stack\SNTP.c
                   ipAddr   0x000c31       data     static C:\Users\Tim\Desktop\PIC-WEB-5-42-UEXT-full\Microchip\TCPIP Stack\DHCPs.c
                        j   0x000c31       data     static C:\Users\Tim\Desktop\PIC-WEB-5-42-UEXT-full\Microchip\TCPIP Stack\DHCPs.c
               wFreeSpace   0x000c31       data     static C:\Users\Tim\Desktop\PIC-WEB-5-42-UEXT-full\Microchip\TCPIP Stack\TCP.c
                   length   0x000c31       data     static C:\Users\Tim\Desktop\PIC-WEB-5-42-UEXT-full\TCPIP\Demo App\BerkeleyTCPServerDemo.c
                     lenB   0x000c31       data     static C:\Users\Tim\Desktop\PIC-WEB-5-42-UEXT-full\TCPIP\Demo App\CustomHTTPApp.c
                  addrlen   0x000c32       data     static C:\Users\Tim\Desktop\PIC-WEB-5-42-UEXT-full\TCPIP\Demo App\BerkeleyUDPClientDemo.c
                        j   0x000c33       data     static C:\Users\Tim\Desktop\PIC-WEB-5-42-UEXT-full\Microchip\TCPIP Stack\DHCPs.c
                        i   0x000c33       data     static C:\Users\Tim\Desktop\PIC-WEB-5-42-UEXT-full\Microchip\TCPIP Stack\DHCPs.c
                        i   0x000c33       data     static C:\Users\Tim\Desktop\PIC-WEB-5-42-UEXT-full\TCPIP\Demo App\BerkeleyTCPServerDemo.c
                        i   0x000c33       data     static C:\Users\Tim\Desktop\PIC-WEB-5-42-UEXT-full\Microchip\TCPIP Stack\Helpers.c
                      ptr   0x000c33       data     static C:\Users\Tim\Desktop\PIC-WEB-5-42-UEXT-full\TCPIP\Demo App\CustomHTTPApp.c
                   tempIT   0x000c33       data     static C:\Users\Tim\Desktop\PIC-WEB-5-42-UEXT-full\Microchip\TCPIP Stack\Telnet.c
                     Data   0x000c33       data     static C:\Users\Tim\Desktop\PIC-WEB-5-42-UEXT-full\TCPIP\Demo App\CustomHTTPApp.c
         localHeaderFlags   0x000c33       data     static C:\Users\Tim\Desktop\PIC-WEB-5-42-UEXT-full\Microchip\TCPIP Stack\TCP.c
                   socket   0x000c34       data     static C:\Users\Tim\Desktop\PIC-WEB-5-42-UEXT-full\Microchip\TCPIP Stack\BerkeleyAPI.c
                        t   0x000c34       data     static C:\Users\Tim\Desktop\PIC-WEB-5-42-UEXT-full\Microchip\TCPIP Stack\Helpers.c
              Old_OSCTUNE   0x000c34       data     static C:\Users\Tim\Desktop\PIC-WEB-5-42-UEXT-full\TCPIP\Demo App\CustomHTTPApp.c
                        i   0x000c34       data     static C:\Users\Tim\Desktop\PIC-WEB-5-42-UEXT-full\Microchip\TCPIP Stack\DNS.c
                       dw   0x000c34       data     static C:\Users\Tim\Desktop\PIC-WEB-5-42-UEXT-full\Microchip\TCPIP Stack\Tick.c
                    dwVal   0x000c34       data     static C:\Users\Tim\Desktop\PIC-WEB-5-42-UEXT-full\Microchip\TCPIP Stack\Helpers.c
           localAckNumber   0x000c34       data     static C:\Users\Tim\Desktop\PIC-WEB-5-42-UEXT-full\Microchip\TCPIP Stack\TCP.c
              pListenSock   0x000c35       data     static C:\Users\Tim\Desktop\PIC-WEB-5-42-UEXT-full\Microchip\TCPIP Stack\BerkeleyAPI.c
                        w   0x000c35       data     static C:\Users\Tim\Desktop\PIC-WEB-5-42-UEXT-full\Microchip\TCPIP Stack\DNS.c
                   socket   0x000c35       data     static C:\Users\Tim\Desktop\PIC-WEB-5-42-UEXT-full\Microchip\TCPIP Stack\BerkeleyAPI.c
                   Option   0x000c35       data     static C:\Users\Tim\Desktop\PIC-WEB-5-42-UEXT-full\Microchip\TCPIP Stack\DHCPs.c
                        i   0x000c35       data     static C:\Users\Tim\Desktop\PIC-WEB-5-42-UEXT-full\Microchip\TCPIP Stack\BerkeleyAPI.c
                   socket   0x000c35       data     static C:\Users\Tim\Desktop\PIC-WEB-5-42-UEXT-full\Microchip\TCPIP Stack\BerkeleyAPI.c
                        i   0x000c35       data     static C:\Users\Tim\Desktop\PIC-WEB-5-42-UEXT-full\TCPIP\Demo App\CustomHTTPApp.c
                       ps   0x000c35       data     static C:\Users\Tim\Desktop\PIC-WEB-5-42-UEXT-full\Microchip\TCPIP Stack\BerkeleyAPI.c
                        i   0x000c35       data     static C:\Users\Tim\Desktop\PIC-WEB-5-42-UEXT-full\Microchip\TCPIP Stack\DHCPs.c
                        i   0x000c35       data     static C:\Users\Tim\Desktop\PIC-WEB-5-42-UEXT-full\TCPIP\Demo App\CustomHTTPApp.c
                   socket   0x000c36       data     static C:\Users\Tim\Desktop\PIC-WEB-5-42-UEXT-full\Microchip\TCPIP Stack\BerkeleyAPI.c
                 rem_addr   0x000c36       data     static C:\Users\Tim\Desktop\PIC-WEB-5-42-UEXT-full\Microchip\TCPIP Stack\BerkeleyAPI.c
              IndexOfPool   0x000c36       data     static C:\Users\Tim\Desktop\PIC-WEB-5-42-UEXT-full\Microchip\TCPIP Stack\DHCPs.c
                        w   0x000c36       data     static C:\Users\Tim\Desktop\PIC-WEB-5-42-UEXT-full\TCPIP\Demo App\CustomHTTPApp.c
                      Len   0x000c36       data     static C:\Users\Tim\Desktop\PIC-WEB-5-42-UEXT-full\Microchip\TCPIP Stack\DHCPs.c
                       dw   0x000c37       data     static C:\Users\Tim\Desktop\PIC-WEB-5-42-UEXT-full\Microchip\TCPIP Stack\DHCPs.c
           remoteSockInfo   0x000c37       data     static C:\Users\Tim\Desktop\PIC-WEB-5-42-UEXT-full\Microchip\TCPIP Stack\BerkeleyAPI.c
                        s   0x000c37       data     static C:\Users\Tim\Desktop\PIC-WEB-5-42-UEXT-full\Microchip\TCPIP Stack\BerkeleyAPI.c
                DNSHeader   0x000c37       data     static C:\Users\Tim\Desktop\PIC-WEB-5-42-UEXT-full\Microchip\TCPIP Stack\DNS.c
             clientSockID   0x000c37       data     static C:\Users\Tim\Desktop\PIC-WEB-5-42-UEXT-full\Microchip\TCPIP Stack\BerkeleyAPI.c
                      reg   0x000c37       data     static C:\Users\Tim\Desktop\PIC-WEB-5-42-UEXT-full\Microchip\TCPIP Stack\Telnet.c
                   ipAddr   0x000c37       data     static C:\Users\Tim\Desktop\PIC-WEB-5-42-UEXT-full\Microchip\TCPIP Stack\DHCPs.c
                     Temp   0x000c37       data     static C:\Users\Tim\Desktop\PIC-WEB-5-42-UEXT-full\TCPIP\Demo App\CustomHTTPApp.c
                     size   0x000c37       data     static C:\Users\Tim\Desktop\PIC-WEB-5-42-UEXT-full\Microchip\TCPIP Stack\BerkeleyAPI.c
                        i   0x000c38       data     static C:\Users\Tim\Desktop\PIC-WEB-5-42-UEXT-full\Microchip\TCPIP Stack\Helpers.c
              socketcount   0x000c38       data     static C:\Users\Tim\Desktop\PIC-WEB-5-42-UEXT-full\Microchip\TCPIP Stack\BerkeleyAPI.c
              TelnetState   0x000c38       data     static C:\Users\Tim\Desktop\PIC-WEB-5-42-UEXT-full\Microchip\TCPIP Stack\Telnet.c
                        i   0x000c38       data     static C:\Users\Tim\Desktop\PIC-WEB-5-42-UEXT-full\TCPIP\Demo App\CustomHTTPApp.c
           localSeqNumber   0x000c38       data     static C:\Users\Tim\Desktop\PIC-WEB-5-42-UEXT-full\Microchip\TCPIP Stack\TCP.c
           remoteSockInfo   0x000c38       data     static C:\Users\Tim\Desktop\PIC-WEB-5-42-UEXT-full\Microchip\TCPIP Stack\BerkeleyAPI.c
                  charLen   0x000c39       data     static C:\Users\Tim\Desktop\PIC-WEB-5-42-UEXT-full\Microchip\TCPIP Stack\Helpers.c
                    pRead   0x000c39       data     static C:\Users\Tim\Desktop\PIC-WEB-5-42-UEXT-full\Microchip\TCPIP Stack\HTTP2.c
               addrRemote   0x000c39       data     static C:\Users\Tim\Desktop\PIC-WEB-5-42-UEXT-full\Microchip\TCPIP Stack\BerkeleyAPI.c
                    vTime   0x000c39       data     static C:\Users\Tim\Desktop\PIC-WEB-5-42-UEXT-full\Microchip\TCPIP Stack\Telnet.c
               remoteInfo   0x000c39       data     static C:\Users\Tim\Desktop\PIC-WEB-5-42-UEXT-full\Microchip\TCPIP Stack\BerkeleyAPI.c
      NVMValidationStruct   0x000c39       data     static C:\Users\Tim\Desktop\PIC-WEB-5-42-UEXT-full\TCPIP\Demo App\MainDemo.c
                    Value   0x000c39       data     static C:\Users\Tim\Desktop\PIC-WEB-5-42-UEXT-full\TCPIP\Demo App\CustomHTTPApp.c
                    dwVal   0x000c39       data     static C:\Users\Tim\Desktop\PIC-WEB-5-42-UEXT-full\Microchip\TCPIP Stack\Helpers.c
                   status   0x000c39       data     static C:\Users\Tim\Desktop\PIC-WEB-5-42-UEXT-full\Microchip\TCPIP Stack\HTTP2.c
                        i   0x000c39       data     static C:\Users\Tim\Desktop\PIC-WEB-5-42-UEXT-full\Microchip\TCPIP Stack\Helpers.c
                   socket   0x000c3a       data     static C:\Users\Tim\Desktop\PIC-WEB-5-42-UEXT-full\Microchip\TCPIP Stack\BerkeleyAPI.c
             currentOctet   0x000c3a       data     static C:\Users\Tim\Desktop\PIC-WEB-5-42-UEXT-full\Microchip\TCPIP Stack\Helpers.c
                     wPos   0x000c3a       data     static C:\Users\Tim\Desktop\PIC-WEB-5-42-UEXT-full\Microchip\TCPIP Stack\HTTP2.c
                 assigned   0x000c3a       data     static C:\Users\Tim\Desktop\PIC-WEB-5-42-UEXT-full\Microchip\TCPIP Stack\BerkeleyAPI.c
                sockCount   0x000c3b       data     static C:\Users\Tim\Desktop\PIC-WEB-5-42-UEXT-full\Microchip\TCPIP Stack\BerkeleyAPI.c
                   pWrite   0x000c3b       data     static C:\Users\Tim\Desktop\PIC-WEB-5-42-UEXT-full\Microchip\TCPIP Stack\HTTP2.c
              tmp_MacAddr   0x000c3b       data     static C:\Users\Tim\Desktop\PIC-WEB-5-42-UEXT-full\Microchip\TCPIP Stack\DHCPs.c
           wSegmentLength   0x000c3c       data     static C:\Users\Tim\Desktop\PIC-WEB-5-42-UEXT-full\Microchip\TCPIP Stack\TCP.c
                     hTCP   0x000c3d       data     static C:\Users\Tim\Desktop\PIC-WEB-5-42-UEXT-full\Microchip\TCPIP Stack\BerkeleyAPI.c
                        i   0x000c3d       data     static C:\Users\Tim\Desktop\PIC-WEB-5-42-UEXT-full\Microchip\TCPIP Stack\Helpers.c
                     wLen   0x000c3d       data     static C:\Users\Tim\Desktop\PIC-WEB-5-42-UEXT-full\Microchip\TCPIP Stack\HTTP2.c
                     Data   0x000c3d       data     static C:\Users\Tim\Desktop\PIC-WEB-5-42-UEXT-full\TCPIP\Demo App\CustomHTTPApp.c
                        i   0x000c3e       data     static C:\Users\Tim\Desktop\PIC-WEB-5-42-UEXT-full\TCPIP\Demo App\CustomHTTPApp.c
                  charLen   0x000c3e       data     static C:\Users\Tim\Desktop\PIC-WEB-5-42-UEXT-full\Microchip\TCPIP Stack\Helpers.c
       bSegmentAcceptable   0x000c3e       data     static C:\Users\Tim\Desktop\PIC-WEB-5-42-UEXT-full\Microchip\TCPIP Stack\TCP.c
                        c   0x000c3f       data     static C:\Users\Tim\Desktop\PIC-WEB-5-42-UEXT-full\Microchip\TCPIP Stack\HTTP2.c
             currentOctet   0x000c3f       data     static C:\Users\Tim\Desktop\PIC-WEB-5-42-UEXT-full\Microchip\TCPIP Stack\Helpers.c
               wNewWindow   0x000c3f       data     static C:\Users\Tim\Desktop\PIC-WEB-5-42-UEXT-full\Microchip\TCPIP Stack\TCP.c
                      hex   0x000c40       data     static C:\Users\Tim\Desktop\PIC-WEB-5-42-UEXT-full\Microchip\TCPIP Stack\HTTP2.c
                tmpIpAddr   0x000c41       data     static C:\Users\Tim\Desktop\PIC-WEB-5-42-UEXT-full\Microchip\TCPIP Stack\DHCPs.c
                        i   0x000c41       data     static C:\Users\Tim\Desktop\PIC-WEB-5-42-UEXT-full\Microchip\TCPIP Stack\DHCPs.c
                        i   0x000c41       data     static C:\Users\Tim\Desktop\PIC-WEB-5-42-UEXT-full\Microchip\TCPIP Stack\DHCPs.c
            vOptionsBytes   0x000c41       data     static C:\Users\Tim\Desktop\PIC-WEB-5-42-UEXT-full\Microchip\TCPIP Stack\TCP.c
                  vOption   0x000c42       data     static C:\Users\Tim\Desktop\PIC-WEB-5-42-UEXT-full\Microchip\TCPIP Stack\TCP.c
                   status   0x000c42       data     static C:\Users\Tim\Desktop\PIC-WEB-5-42-UEXT-full\Microchip\TCPIP Stack\HTTP2.c
                   _iTemp   0x000c42       data     static C:\Users\Tim\Desktop\PIC-WEB-5-42-UEXT-full\TCPIP\Demo App\CustomHTTPApp.c
                   status   0x000c42       data     static C:\Users\Tim\Desktop\PIC-WEB-5-42-UEXT-full\Microchip\TCPIP Stack\HTTP2.c
          DNSAnswerHeader   0x000c43       data     static C:\Users\Tim\Desktop\PIC-WEB-5-42-UEXT-full\Microchip\TCPIP Stack\DNS.c
              wRemotePort   0x000c43       data     static C:\Users\Tim\Desktop\PIC-WEB-5-42-UEXT-full\Microchip\TCPIP Stack\BerkeleyAPI.c
                     wMSS   0x000c43       data     static C:\Users\Tim\Desktop\PIC-WEB-5-42-UEXT-full\Microchip\TCPIP Stack\TCP.c
                        i   0x000c43       data     static C:\Users\Tim\Desktop\PIC-WEB-5-42-UEXT-full\Microchip\TCPIP Stack\DHCPs.c
                  ptrRead   0x000c44       data     static C:\Users\Tim\Desktop\PIC-WEB-5-42-UEXT-full\Microchip\TCPIP Stack\TCP.c
                     Temp   0x000c44       data     static C:\Users\Tim\Desktop\PIC-WEB-5-42-UEXT-full\TCPIP\Demo App\Olimex_Demo_Files\Misc_Functions.c
                 wDataLen   0x000c44       data     static C:\Users\Tim\Desktop\PIC-WEB-5-42-UEXT-full\Microchip\TCPIP Stack\TCP.c
              dwTickDelta   0x000c44       data     static C:\Users\Tim\Desktop\PIC-WEB-5-42-UEXT-full\Microchip\TCPIP Stack\SNTP.c
                  ptrRead   0x000c44       data     static C:\Users\Tim\Desktop\PIC-WEB-5-42-UEXT-full\Microchip\TCPIP Stack\TCP.c
             wFreeTXSpace   0x000c44       data     static C:\Users\Tim\Desktop\PIC-WEB-5-42-UEXT-full\Microchip\TCPIP Stack\TCP.c
                       fp   0x000c44       data     static C:\Users\Tim\Desktop\PIC-WEB-5-42-UEXT-full\Microchip\TCPIP Stack\HTTP2.c
           wGetReadyCount   0x000c44       data     static C:\Users\Tim\Desktop\PIC-WEB-5-42-UEXT-full\Microchip\TCPIP Stack\TCP.c
           wGetReadyCount   0x000c44       data     static C:\Users\Tim\Desktop\PIC-WEB-5-42-UEXT-full\Microchip\TCPIP Stack\TCP.c
                    Error   0x000c44       data     static C:\Users\Tim\Desktop\PIC-WEB-5-42-UEXT-full\TCPIP\Demo App\Olimex_Demo_Files\Custom_I2C.c
              SourceIndex   0x000c44       data     static C:\Users\Tim\Desktop\PIC-WEB-5-42-UEXT-full\TCPIP\Demo App\Olimex_Demo_Files\Misc_Functions.c
                     addr   0x000c44       data     static C:\Users\Tim\Desktop\PIC-WEB-5-42-UEXT-full\Microchip\TCPIP Stack\MPFS2.c
                     hTCP   0x000c44       data     static C:\Users\Tim\Desktop\PIC-WEB-5-42-UEXT-full\Microchip\TCPIP Stack\TCP.c
                        i   0x000c44       data     static C:\Users\Tim\Desktop\PIC-WEB-5-42-UEXT-full\TCPIP\Demo App\Olimex_Demo_Files\Custom_UART.c
                  vBuffer   0x000c44       data     static C:\Users\Tim\Desktop\PIC-WEB-5-42-UEXT-full\Microchip\TCPIP Stack\TCP.c
                  TempVar   0x000c44       data     static C:\Users\Tim\Desktop\PIC-WEB-5-42-UEXT-full\TCPIP\Demo App\Olimex_Demo_Files\Custom_SPI_Low.c
                   offset   0x000c44       data     static C:\Users\Tim\Desktop\PIC-WEB-5-42-UEXT-full\TCPIP\Demo App\MainDemo.c
                  TempVar   0x000c44       data     static C:\Users\Tim\Desktop\PIC-WEB-5-42-UEXT-full\TCPIP\Demo App\Olimex_Demo_Files\Custom_SPI_Low.c
                    Error   0x000c44       data     static C:\Users\Tim\Desktop\PIC-WEB-5-42-UEXT-full\TCPIP\Demo App\Olimex_Demo_Files\Custom_I2C.c
                    hMPFS   0x000c45       data     static C:\Users\Tim\Desktop\PIC-WEB-5-42-UEXT-full\Microchip\TCPIP Stack\MPFS2.c
                    hMPFS   0x000c45       data     static C:\Users\Tim\Desktop\PIC-WEB-5-42-UEXT-full\Microchip\TCPIP Stack\MPFS2.c
                        i   0x000c45       data     static C:\Users\Tim\Desktop\PIC-WEB-5-42-UEXT-full\Microchip\TCPIP Stack\DHCPs.c
                DestIndex   0x000c45       data     static C:\Users\Tim\Desktop\PIC-WEB-5-42-UEXT-full\TCPIP\Demo App\Olimex_Demo_Files\Misc_Functions.c
                    local   0x000c45       data     static C:\Users\Tim\Desktop\PIC-WEB-5-42-UEXT-full\Microchip\TCPIP Stack\BerkeleyAPI.c
                     temp   0x000c45       data     static C:\Users\Tim\Desktop\PIC-WEB-5-42-UEXT-full\Microchip\TCPIP Stack\MPFS2.c
                        i   0x000c45       data     static C:\Users\Tim\Desktop\PIC-WEB-5-42-UEXT-full\TCPIP\Demo App\Olimex_Demo_Files\Custom_I2C.c
                 nameHash   0x000c46       data     static C:\Users\Tim\Desktop\PIC-WEB-5-42-UEXT-full\Microchip\TCPIP Stack\MPFS2.c
                wFIFOSize   0x000c46       data     static C:\Users\Tim\Desktop\PIC-WEB-5-42-UEXT-full\Microchip\TCPIP Stack\TCP.c
                 wDataLen   0x000c46       data     static C:\Users\Tim\Desktop\PIC-WEB-5-42-UEXT-full\Microchip\TCPIP Stack\TCP.c
                 RightLen   0x000c46       data     static C:\Users\Tim\Desktop\PIC-WEB-5-42-UEXT-full\Microchip\TCPIP Stack\TCP.c
                 wDataLen   0x000c46       data     static C:\Users\Tim\Desktop\PIC-WEB-5-42-UEXT-full\Microchip\TCPIP Stack\TCP.c
                 HexDigit   0x000c46       data     static C:\Users\Tim\Desktop\PIC-WEB-5-42-UEXT-full\TCPIP\Demo App\Olimex_Demo_Files\Misc_Functions.c
                        i   0x000c48       data     static C:\Users\Tim\Desktop\PIC-WEB-5-42-UEXT-full\TCPIP\Demo App\Olimex_Demo_Files\Misc_Functions.c
                        i   0x000c48       data     static C:\Users\Tim\Desktop\PIC-WEB-5-42-UEXT-full\Microchip\TCPIP Stack\MPFS2.c
          wBytesUntilWrap   0x000c48       data     static C:\Users\Tim\Desktop\PIC-WEB-5-42-UEXT-full\Microchip\TCPIP Stack\TCP.c
          wBytesUntilWrap   0x000c48       data     static C:\Users\Tim\Desktop\PIC-WEB-5-42-UEXT-full\Microchip\TCPIP Stack\TCP.c
                   dwTick   0x000c48       data     static C:\Users\Tim\Desktop\PIC-WEB-5-42-UEXT-full\Microchip\TCPIP Stack\SNTP.c
                    First   0x000c4a       data     static C:\Users\Tim\Desktop\PIC-WEB-5-42-UEXT-full\TCPIP\Demo App\Olimex_Demo_Files\Misc_Functions.c
              ptrLocation   0x000c4a       data     static C:\Users\Tim\Desktop\PIC-WEB-5-42-UEXT-full\Microchip\TCPIP Stack\TCP.c
              ptrLocation   0x000c4a       data     static C:\Users\Tim\Desktop\PIC-WEB-5-42-UEXT-full\Microchip\TCPIP Stack\TCP.c
                hashCache   0x000c4a       data     static C:\Users\Tim\Desktop\PIC-WEB-5-42-UEXT-full\Microchip\TCPIP Stack\MPFS2.c
            Negative_Flag   0x000c4c       data     static C:\Users\Tim\Desktop\PIC-WEB-5-42-UEXT-full\TCPIP\Demo App\Olimex_Demo_Files\Misc_Functions.c
                wLenStart   0x000c4c       data     static C:\Users\Tim\Desktop\PIC-WEB-5-42-UEXT-full\Microchip\TCPIP Stack\TCP.c
                wLenStart   0x000c4c       data     static C:\Users\Tim\Desktop\PIC-WEB-5-42-UEXT-full\Microchip\TCPIP Stack\TCP.c
                   ReadPT   0x000c4d       data     static C:\Users\Tim\Desktop\PIC-WEB-5-42-UEXT-full\Microchip\TCPIP Stack\ETH97J60.c
                 RightPtr   0x000c4d       data     static C:\Users\Tim\Desktop\PIC-WEB-5-42-UEXT-full\Microchip\TCPIP Stack\DNS.c
          NewRXRDLocation   0x000c4d       data     static C:\Users\Tim\Desktop\PIC-WEB-5-42-UEXT-full\Microchip\TCPIP Stack\ETH97J60.c
                 RightPtr   0x000c4d       data     static C:\Users\Tim\Desktop\PIC-WEB-5-42-UEXT-full\Microchip\TCPIP Stack\DNS.c
          wBytesAvailable   0x000c4d       data     static C:\Users\Tim\Desktop\PIC-WEB-5-42-UEXT-full\Microchip\TCPIP Stack\UDP.c
                   System   0x000c4e       data     static C:\Users\Tim\Desktop\PIC-WEB-5-42-UEXT-full\TCPIP\Demo App\Olimex_Demo_Files\Misc_Functions.c
          cFindArrayStart   0x000c4e       data     static C:\Users\Tim\Desktop\PIC-WEB-5-42-UEXT-full\Microchip\TCPIP Stack\TCP.c
          cFindArrayStart   0x000c4e       data     static C:\Users\Tim\Desktop\PIC-WEB-5-42-UEXT-full\Microchip\TCPIP Stack\TCP.c
                        i   0x000c4f       data     static C:\Users\Tim\Desktop\PIC-WEB-5-42-UEXT-full\Microchip\TCPIP Stack\DNS.c
                        i   0x000c4f       data     static C:\Users\Tim\Desktop\PIC-WEB-5-42-UEXT-full\Microchip\TCPIP Stack\DNS.c
                      Len   0x000c50       data     static C:\Users\Tim\Desktop\PIC-WEB-5-42-UEXT-full\Microchip\TCPIP Stack\DNS.c
                    Digit   0x000c50       data     static C:\Users\Tim\Desktop\PIC-WEB-5-42-UEXT-full\TCPIP\Demo App\Olimex_Demo_Files\Misc_Functions.c
                        i   0x000c50       data     static C:\Users\Tim\Desktop\PIC-WEB-5-42-UEXT-full\Microchip\TCPIP Stack\TCP.c
                        i   0x000c50       data     static C:\Users\Tim\Desktop\PIC-WEB-5-42-UEXT-full\Microchip\TCPIP Stack\DNS.c
                      Len   0x000c51       data     static C:\Users\Tim\Desktop\PIC-WEB-5-42-UEXT-full\Microchip\TCPIP Stack\DNS.c
                        j   0x000c51       data     static C:\Users\Tim\Desktop\PIC-WEB-5-42-UEXT-full\Microchip\TCPIP Stack\TCP.c
                        i   0x000c51       data     static C:\Users\Tim\Desktop\PIC-WEB-5-42-UEXT-full\Microchip\TCPIP Stack\TCP.c
                        k   0x000c52       data     static C:\Users\Tim\Desktop\PIC-WEB-5-42-UEXT-full\Microchip\TCPIP Stack\TCP.c
                    wTemp   0x000c52       data     static C:\Users\Tim\Desktop\PIC-WEB-5-42-UEXT-full\Microchip\TCPIP Stack\UDP.c
                        j   0x000c52       data     static C:\Users\Tim\Desktop\PIC-WEB-5-42-UEXT-full\Microchip\TCPIP Stack\TCP.c
                        k   0x000c53       data     static C:\Users\Tim\Desktop\PIC-WEB-5-42-UEXT-full\Microchip\TCPIP Stack\TCP.c
                isFinding   0x000c53       data     static C:\Users\Tim\Desktop\PIC-WEB-5-42-UEXT-full\Microchip\TCPIP Stack\TCP.c
                isFinding   0x000c54       data     static C:\Users\Tim\Desktop\PIC-WEB-5-42-UEXT-full\Microchip\TCPIP Stack\TCP.c
                        w   0x000c54       data     static C:\Users\Tim\Desktop\PIC-WEB-5-42-UEXT-full\Microchip\TCPIP Stack\TCP.c
                   buffer   0x000c54       data     static C:\Users\Tim\Desktop\PIC-WEB-5-42-UEXT-full\Microchip\TCPIP Stack\TCP.c
                    wTemp   0x000c55       data     static C:\Users\Tim\Desktop\PIC-WEB-5-42-UEXT-full\Microchip\TCPIP Stack\UDP.c
                   socket   0x000c55       data     static C:\Users\Tim\Desktop\PIC-WEB-5-42-UEXT-full\Microchip\TCPIP Stack\BerkeleyAPI.c
                   packet   0x000c55       data     static C:\Users\Tim\Desktop\PIC-WEB-5-42-UEXT-full\Microchip\TCPIP Stack\ARP.c
                   buffer   0x000c55       data     static C:\Users\Tim\Desktop\PIC-WEB-5-42-UEXT-full\Microchip\TCPIP Stack\TCP.c
                        h   0x000c55       data     static C:\Users\Tim\Desktop\PIC-WEB-5-42-UEXT-full\Microchip\TCPIP Stack\UDP.c
                   socket   0x000c55       data     static C:\Users\Tim\Desktop\PIC-WEB-5-42-UEXT-full\Microchip\TCPIP Stack\BerkeleyAPI.c
               wActualLen   0x000c56       data     static C:\Users\Tim\Desktop\PIC-WEB-5-42-UEXT-full\Microchip\TCPIP Stack\TCP.c
               local_addr   0x000c57       data     static C:\Users\Tim\Desktop\PIC-WEB-5-42-UEXT-full\Microchip\TCPIP Stack\BerkeleyAPI.c
                        i   0x000c57       data     static C:\Users\Tim\Desktop\PIC-WEB-5-42-UEXT-full\Microchip\TCPIP Stack\BerkeleyAPI.c
             wFreeTXSpace   0x000c58       data     static C:\Users\Tim\Desktop\PIC-WEB-5-42-UEXT-full\Microchip\TCPIP Stack\TCP.c
          bSocketWasReset   0x000c58       data     static C:\Users\Tim\Desktop\PIC-WEB-5-42-UEXT-full\Microchip\TCPIP Stack\BerkeleyAPI.c
                        i   0x000c59       data     static C:\Users\Tim\Desktop\PIC-WEB-5-42-UEXT-full\Microchip\TCPIP Stack\Helpers.c
                    lPort   0x000c59       data     static C:\Users\Tim\Desktop\PIC-WEB-5-42-UEXT-full\Microchip\TCPIP Stack\BerkeleyAPI.c
                wRightLen   0x000c5a       data     static C:\Users\Tim\Desktop\PIC-WEB-5-42-UEXT-full\Microchip\TCPIP Stack\TCP.c
                      ptr   0x000c5a       data     static C:\Users\Tim\Desktop\PIC-WEB-5-42-UEXT-full\Microchip\TCPIP Stack\MPFS2.c
                        s   0x000c5b       data     static C:\Users\Tim\Desktop\PIC-WEB-5-42-UEXT-full\Microchip\TCPIP Stack\UDP.c
                        p   0x000c5c       data     static C:\Users\Tim\Desktop\PIC-WEB-5-42-UEXT-full\Microchip\TCPIP Stack\UDP.c
                        p   0x000c5d       data     static C:\Users\Tim\Desktop\PIC-WEB-5-42-UEXT-full\Microchip\TCPIP Stack\UDP.c
                        c   0x000c5d       data     static C:\Users\Tim\Desktop\PIC-WEB-5-42-UEXT-full\Microchip\TCPIP Stack\MPFS2.c
               wUDPLength   0x000c5f       data     static C:\Users\Tim\Desktop\PIC-WEB-5-42-UEXT-full\Microchip\TCPIP Stack\UDP.c
             pseudoHeader   0x000c61       data     static C:\Users\Tim\Desktop\PIC-WEB-5-42-UEXT-full\Microchip\TCPIP Stack\UDP.c
             wReadPtrSave   0x000c6d       data     static C:\Users\Tim\Desktop\PIC-WEB-5-42-UEXT-full\Microchip\TCPIP Stack\UDP.c
                wChecksum   0x000c6f       data     static C:\Users\Tim\Desktop\PIC-WEB-5-42-UEXT-full\Microchip\TCPIP Stack\UDP.c
                dataCount   0x000c71       data     static C:\Users\Tim\Desktop\PIC-WEB-5-42-UEXT-full\Microchip\TCPIP Stack\StackTsk.c
              tempLocalIP   0x000c73       data     static C:\Users\Tim\Desktop\PIC-WEB-5-42-UEXT-full\Microchip\TCPIP Stack\StackTsk.c
               cFrameType   0x000c77       data     static C:\Users\Tim\Desktop\PIC-WEB-5-42-UEXT-full\Microchip\TCPIP Stack\StackTsk.c
             cIPFrameType   0x000c78       data     static C:\Users\Tim\Desktop\PIC-WEB-5-42-UEXT-full\Microchip\TCPIP Stack\StackTsk.c
        bCurrentLinkState   0x000c79       data     static C:\Users\Tim\Desktop\PIC-WEB-5-42-UEXT-full\Microchip\TCPIP Stack\StackTsk.c
                        i   0x000c81       data     static C:\Users\Tim\Desktop\PIC-WEB-5-42-UEXT-full\TCPIP\Demo App\CustomHTTPApp.c
                       dw   0x000c82       data     static C:\Users\Tim\Desktop\PIC-WEB-5-42-UEXT-full\Microchip\TCPIP Stack\Tick.c
                     wVal   0x000c82       data     static C:\Users\Tim\Desktop\PIC-WEB-5-42-UEXT-full\Microchip\TCPIP Stack\TCP.c
                        i   0x000c82       data     static C:\Users\Tim\Desktop\PIC-WEB-5-42-UEXT-full\Microchip\TCPIP Stack\TCP.c
                   header   0x000c84       data     static C:\Users\Tim\Desktop\PIC-WEB-5-42-UEXT-full\Microchip\TCPIP Stack\TCP.c
                 lastTick   0x000c86       data     static C:\Users\Tim\Desktop\PIC-WEB-5-42-UEXT-full\TCPIP\Demo App\UARTConfig.c
              currentTick   0x000c8a       data     static C:\Users\Tim\Desktop\PIC-WEB-5-42-UEXT-full\TCPIP\Demo App\UARTConfig.c
                 response   0x000c8e       data     static C:\Users\Tim\Desktop\PIC-WEB-5-42-UEXT-full\TCPIP\Demo App\UARTConfig.c
                  options   0x000c98       data     static C:\Users\Tim\Desktop\PIC-WEB-5-42-UEXT-full\Microchip\TCPIP Stack\TCP.c
             pseudoHeader   0x000c9c       data     static C:\Users\Tim\Desktop\PIC-WEB-5-42-UEXT-full\Microchip\TCPIP Stack\TCP.c
              tempIPValue   0x000ca2       data     static C:\Users\Tim\Desktop\PIC-WEB-5-42-UEXT-full\TCPIP\Demo App\UARTConfig.c
              destIPValue   0x000ca6       data     static C:\Users\Tim\Desktop\PIC-WEB-5-42-UEXT-full\TCPIP\Demo App\UARTConfig.c
                   wvTemp   0x000ca8       data     static C:\Users\Tim\Desktop\PIC-WEB-5-42-UEXT-full\TCPIP\Demo App\UARTConfig.c
                      len   0x000ca8       data     static C:\Users\Tim\Desktop\PIC-WEB-5-42-UEXT-full\Microchip\TCPIP Stack\TCP.c
                 ReadSave   0x000caa       data     static C:\Users\Tim\Desktop\PIC-WEB-5-42-UEXT-full\Microchip\TCPIP Stack\ETH97J60.c
                        i   0x000caa       data     static C:\Users\Tim\Desktop\PIC-WEB-5-42-UEXT-full\Microchip\TCPIP Stack\ETH97J60.c
                   oldVal   0x000caa       data     static C:\Users\Tim\Desktop\PIC-WEB-5-42-UEXT-full\Microchip\TCPIP Stack\ETH97J60.c
                    bQuit   0x000caa       data     static C:\Users\Tim\Desktop\PIC-WEB-5-42-UEXT-full\TCPIP\Demo App\UARTConfig.c
                    Start   0x000caa       data     static C:\Users\Tim\Desktop\PIC-WEB-5-42-UEXT-full\Microchip\TCPIP Stack\ETH97J60.c
                   ReadPT   0x000caa       data     static C:\Users\Tim\Desktop\PIC-WEB-5-42-UEXT-full\Microchip\TCPIP Stack\ETH97J60.c
                   header   0x000caa       data     static C:\Users\Tim\Desktop\PIC-WEB-5-42-UEXT-full\Microchip\TCPIP Stack\IP.c
                   oldVal   0x000caa       data     static C:\Users\Tim\Desktop\PIC-WEB-5-42-UEXT-full\Microchip\TCPIP Stack\ETH97J60.c
                     page   0x000cab       data     static C:\Users\Tim\Desktop\PIC-WEB-5-42-UEXT-full\Microchip\TCPIP Stack\SPIFlash.c
                     page   0x000cab       data     static C:\Users\Tim\Desktop\PIC-WEB-5-42-UEXT-full\Microchip\TCPIP Stack\SPIFlash.c
                     addr   0x000cab       data     static C:\Users\Tim\Desktop\PIC-WEB-5-42-UEXT-full\Microchip\TCPIP Stack\SPIFlash.c
                       dw   0x000cab       data     static C:\Users\Tim\Desktop\PIC-WEB-5-42-UEXT-full\Microchip\TCPIP Stack\Tick.c
                        i   0x000cab       data     static C:\Users\Tim\Desktop\PIC-WEB-5-42-UEXT-full\Microchip\TCPIP Stack\MPFS2.c
                     addr   0x000cab       data     static C:\Users\Tim\Desktop\PIC-WEB-5-42-UEXT-full\Microchip\TCPIP Stack\SPIFlash.c
                WriteSave   0x000cac       data     static C:\Users\Tim\Desktop\PIC-WEB-5-42-UEXT-full\Microchip\TCPIP Stack\ETH97J60.c
                  WritePT   0x000cac       data     static C:\Users\Tim\Desktop\PIC-WEB-5-42-UEXT-full\Microchip\TCPIP Stack\ETH97J60.c
                 Checksum   0x000cac       data     static C:\Users\Tim\Desktop\PIC-WEB-5-42-UEXT-full\Microchip\TCPIP Stack\ETH97J60.c
                     page   0x000cad       data     static C:\Users\Tim\Desktop\PIC-WEB-5-42-UEXT-full\Microchip\TCPIP Stack\SPIFlash.c
                   result   0x000cad       data     static C:\Users\Tim\Desktop\PIC-WEB-5-42-UEXT-full\Microchip\TCPIP Stack\SPIFlash.c
       UpdateWritePointer   0x000cae       data     static C:\Users\Tim\Desktop\PIC-WEB-5-42-UEXT-full\Microchip\TCPIP Stack\ETH97J60.c
        UpdateReadPointer   0x000caf       data     static C:\Users\Tim\Desktop\PIC-WEB-5-42-UEXT-full\Microchip\TCPIP Stack\ETH97J60.c
                 ChunkLen   0x000cb0       data     static C:\Users\Tim\Desktop\PIC-WEB-5-42-UEXT-full\Microchip\TCPIP Stack\ETH97J60.c
               DataBuffer   0x000cb2       data     static C:\Users\Tim\Desktop\PIC-WEB-5-42-UEXT-full\Microchip\TCPIP Stack\ETH97J60.c
                        i   0x000cbe       data     static C:\Users\Tim\Desktop\PIC-WEB-5-42-UEXT-full\Microchip\TCPIP Stack\Helpers.c
                        t   0x000cbe       data     static C:\Users\Tim\Desktop\PIC-WEB-5-42-UEXT-full\Microchip\TCPIP Stack\Helpers.c
                      val   0x000cc0       data     static C:\Users\Tim\Desktop\PIC-WEB-5-42-UEXT-full\Microchip\TCPIP Stack\Helpers.c
                        b   0x000cc0       data     static C:\Users\Tim\Desktop\PIC-WEB-5-42-UEXT-full\Microchip\TCPIP Stack\Helpers.c
                      sum   0x000cc2       data     static C:\Users\Tim\Desktop\PIC-WEB-5-42-UEXT-full\Microchip\TCPIP Stack\Helpers.c
                  DataPtr   0x000cc6       data     static C:\Users\Tim\Desktop\PIC-WEB-5-42-UEXT-full\Microchip\TCPIP Stack\ETH97J60.c
                     lenA   0x000cc8       data     static C:\Users\Tim\Desktop\PIC-WEB-5-42-UEXT-full\Microchip\TCPIP Stack\HTTP2.c
                     lenB   0x000cca       data     static C:\Users\Tim\Desktop\PIC-WEB-5-42-UEXT-full\Microchip\TCPIP Stack\HTTP2.c
                        c   0x000ccc       data     static C:\Users\Tim\Desktop\PIC-WEB-5-42-UEXT-full\Microchip\TCPIP Stack\HTTP2.c
                        i   0x000ccd       data     static C:\Users\Tim\Desktop\PIC-WEB-5-42-UEXT-full\Microchip\TCPIP Stack\HTTP2.c
                   isDone   0x000cce       data     static C:\Users\Tim\Desktop\PIC-WEB-5-42-UEXT-full\Microchip\TCPIP Stack\HTTP2.c
                      ext   0x000ccf       data     static C:\Users\Tim\Desktop\PIC-WEB-5-42-UEXT-full\Microchip\TCPIP Stack\HTTP2.c
                   buffer   0x000cd1       data     static C:\Users\Tim\Desktop\PIC-WEB-5-42-UEXT-full\Microchip\TCPIP Stack\HTTP2.c
                 filename   0x000ce1       data     static C:\Users\Tim\Desktop\PIC-WEB-5-42-UEXT-full\TCPIP\Demo App\CustomHTTPApp.c
               wActualLen   0x000ce1       data     static C:\Users\Tim\Desktop\PIC-WEB-5-42-UEXT-full\Microchip\TCPIP Stack\TCP.c
             wFreeTXSpace   0x000ce3       data     static C:\Users\Tim\Desktop\PIC-WEB-5-42-UEXT-full\Microchip\TCPIP Stack\TCP.c
                wRightLen   0x000ce5       data     static C:\Users\Tim\Desktop\PIC-WEB-5-42-UEXT-full\Microchip\TCPIP Stack\TCP.c
                StartTime   0x000cf5       data     static C:\Users\Tim\Desktop\PIC-WEB-5-42-UEXT-full\TCPIP\Demo App\MainDemo.c
                        w   0x000cf9       data     static C:\Users\Tim\Desktop\PIC-WEB-5-42-UEXT-full\Microchip\TCPIP Stack\ETH97J60.c
                        i   0x000cfb       data     static C:\Users\Tim\Desktop\PIC-WEB-5-42-UEXT-full\Microchip\TCPIP Stack\ETH97J60.c
                     conn   0x000cfc       data     static C:\Users\Tim\Desktop\PIC-WEB-5-42-UEXT-full\Microchip\TCPIP Stack\HTTP2.c
                    cFile   0x000e00       data     static C:\Users\Tim\Desktop\PIC-WEB-5-42-UEXT-full\TCPIP\Demo App\CustomHTTPApp.c
        __HTTPNeedsAuth:0   0x000e00       data     extern C:\Users\Tim\Desktop\PIC-WEB-5-42-UEXT-full\TCPIP\Demo App\CustomHTTPApp.c
        __HTTPCheckAuth:0   0x000e02       data     extern C:\Users\Tim\Desktop\PIC-WEB-5-42-UEXT-full\TCPIP\Demo App\CustomHTTPApp.c
                    cUser   0x000e02       data     static C:\Users\Tim\Desktop\PIC-WEB-5-42-UEXT-full\TCPIP\Demo App\CustomHTTPApp.c
        __HTTPCheckAuth:1   0x000e04       data     extern C:\Users\Tim\Desktop\PIC-WEB-5-42-UEXT-full\TCPIP\Demo App\CustomHTTPApp.c
                    cPass   0x000e04       data     static C:\Users\Tim\Desktop\PIC-WEB-5-42-UEXT-full\TCPIP\Demo App\CustomHTTPApp.c
                      md5   0x000e06       data     static C:\Users\Tim\Desktop\PIC-WEB-5-42-UEXT-full\TCPIP\Demo App\CustomHTTPApp.c
                  ptrData   0x000e5f       data     static C:\Users\Tim\Desktop\PIC-WEB-5-42-UEXT-full\TCPIP\Demo App\CustomHTTPApp.c
                   szPort   0x000e61       data     static C:\Users\Tim\Desktop\PIC-WEB-5-42-UEXT-full\TCPIP\Demo App\CustomHTTPApp.c
        __HTTPPrint_btn:0   0x000e63       data     extern C:\Users\Tim\Desktop\PIC-WEB-5-42-UEXT-full\TCPIP\Demo App\CustomHTTPApp.c
                      num   0x000e63       data     static C:\Users\Tim\Desktop\PIC-WEB-5-42-UEXT-full\TCPIP\Demo App\CustomHTTPApp.c
        __HTTPPrint_led:0   0x000e65       data     extern C:\Users\Tim\Desktop\PIC-WEB-5-42-UEXT-full\TCPIP\Demo App\CustomHTTPApp.c
                      num   0x000e65       data     static C:\Users\Tim\Desktop\PIC-WEB-5-42-UEXT-full\TCPIP\Demo App\CustomHTTPApp.c
__HTTPPrint_ledSelected:0   0x000e67       data     extern C:\Users\Tim\Desktop\PIC-WEB-5-42-UEXT-full\TCPIP\Demo App\CustomHTTPApp.c
                      num   0x000e67       data     static C:\Users\Tim\Desktop\PIC-WEB-5-42-UEXT-full\TCPIP\Demo App\CustomHTTPApp.c
__HTTPPrint_ledSelected:1   0x000e69       data     extern C:\Users\Tim\Desktop\PIC-WEB-5-42-UEXT-full\TCPIP\Demo App\CustomHTTPApp.c
                    state   0x000e69       data     static C:\Users\Tim\Desktop\PIC-WEB-5-42-UEXT-full\TCPIP\Demo App\CustomHTTPApp.c
                       ip   0x000e6b       data     static C:\Users\Tim\Desktop\PIC-WEB-5-42-UEXT-full\TCPIP\Demo App\CustomHTTPApp.c
          __HTTPPrintIP:0   0x000e6b       data     extern C:\Users\Tim\Desktop\PIC-WEB-5-42-UEXT-full\TCPIP\Demo App\CustomHTTPApp.c
  __HTTPPrint_read_comm:0   0x000e6f       data     extern C:\Users\Tim\Desktop\PIC-WEB-5-42-UEXT-full\TCPIP\Demo App\CustomHTTPApp.c
                      num   0x000e6f       data     static C:\Users\Tim\Desktop\PIC-WEB-5-42-UEXT-full\TCPIP\Demo App\CustomHTTPApp.c
 __HTTPPrint_write_comm:0   0x000e71       data     extern C:\Users\Tim\Desktop\PIC-WEB-5-42-UEXT-full\TCPIP\Demo App\CustomHTTPApp.c
                      num   0x000e71       data     static C:\Users\Tim\Desktop\PIC-WEB-5-42-UEXT-full\TCPIP\Demo App\CustomHTTPApp.c
__HTTPPrint_ddns_service:0   0x000e73       data     extern C:\Users\Tim\Desktop\PIC-WEB-5-42-UEXT-full\TCPIP\Demo App\CustomHTTPApp.c
                        i   0x000e73       data     static C:\Users\Tim\Desktop\PIC-WEB-5-42-UEXT-full\TCPIP\Demo App\CustomHTTPApp.c
                  smStack   0x000e75       data     static C:\Users\Tim\Desktop\PIC-WEB-5-42-UEXT-full\Microchip\TCPIP Stack\StackTsk.c
               remoteNode   0x000e76       data     extern C:\Users\Tim\Desktop\PIC-WEB-5-42-UEXT-full\Microchip\TCPIP Stack\StackTsk.c
                   MAADR5   0x000e80       data     extern E:\3.46\pic18-lt\cxx-framework\src\traditional\proc\p18f67j60.asm
                   MAADR6   0x000e81       data     extern E:\3.46\pic18-lt\cxx-framework\src\traditional\proc\p18f67j60.asm
                   MAADR3   0x000e82       data     extern E:\3.46\pic18-lt\cxx-framework\src\traditional\proc\p18f67j60.asm
                   MAADR4   0x000e83       data     extern E:\3.46\pic18-lt\cxx-framework\src\traditional\proc\p18f67j60.asm
                   MAADR1   0x000e84       data     extern E:\3.46\pic18-lt\cxx-framework\src\traditional\proc\p18f67j60.asm
                   MAADR2   0x000e85       data     extern E:\3.46\pic18-lt\cxx-framework\src\traditional\proc\p18f67j60.asm
                   MISTAT   0x000e8a       data     extern E:\3.46\pic18-lt\cxx-framework\src\traditional\proc\p18f67j60.asm
               MISTATbits   0x000e8a       data     extern E:\3.46\pic18-lt\cxx-framework\src\traditional\proc\p18f67j60.asm
              EFLOCONbits   0x000e97       data     extern E:\3.46\pic18-lt\cxx-framework\src\traditional\proc\p18f67j60.asm
                  EFLOCON   0x000e97       data     extern E:\3.46\pic18-lt\cxx-framework\src\traditional\proc\p18f67j60.asm
                    EPAUS   0x000e98       data     extern E:\3.46\pic18-lt\cxx-framework\src\traditional\proc\p18f67j60.asm
                   EPAUSL   0x000e98       data     extern E:\3.46\pic18-lt\cxx-framework\src\traditional\proc\p18f67j60.asm
                   EPAUSH   0x000e99       data     extern E:\3.46\pic18-lt\cxx-framework\src\traditional\proc\p18f67j60.asm
                   MACON1   0x000ea0       data     extern E:\3.46\pic18-lt\cxx-framework\src\traditional\proc\p18f67j60.asm
               MACON1bits   0x000ea0       data     extern E:\3.46\pic18-lt\cxx-framework\src\traditional\proc\p18f67j60.asm
               MACON3bits   0x000ea2       data     extern E:\3.46\pic18-lt\cxx-framework\src\traditional\proc\p18f67j60.asm
                   MACON3   0x000ea2       data     extern E:\3.46\pic18-lt\cxx-framework\src\traditional\proc\p18f67j60.asm
               MACON4bits   0x000ea3       data     extern E:\3.46\pic18-lt\cxx-framework\src\traditional\proc\p18f67j60.asm
                   MACON4   0x000ea3       data     extern E:\3.46\pic18-lt\cxx-framework\src\traditional\proc\p18f67j60.asm
              MABBIPGbits   0x000ea4       data     extern E:\3.46\pic18-lt\cxx-framework\src\traditional\proc\p18f67j60.asm
                  MABBIPG   0x000ea4       data     extern E:\3.46\pic18-lt\cxx-framework\src\traditional\proc\p18f67j60.asm
                    MAIPG   0x000ea6       data     extern E:\3.46\pic18-lt\cxx-framework\src\traditional\proc\p18f67j60.asm
                   MAIPGL   0x000ea6       data     extern E:\3.46\pic18-lt\cxx-framework\src\traditional\proc\p18f67j60.asm
                   MAIPGH   0x000ea7       data     extern E:\3.46\pic18-lt\cxx-framework\src\traditional\proc\p18f67j60.asm
                   MAMXFL   0x000eaa       data     extern E:\3.46\pic18-lt\cxx-framework\src\traditional\proc\p18f67j60.asm
                  MAMXFLL   0x000eaa       data     extern E:\3.46\pic18-lt\cxx-framework\src\traditional\proc\p18f67j60.asm
                  MAMXFLH   0x000eab       data     extern E:\3.46\pic18-lt\cxx-framework\src\traditional\proc\p18f67j60.asm
                MICMDbits   0x000eb2       data     extern E:\3.46\pic18-lt\cxx-framework\src\traditional\proc\p18f67j60.asm
                    MICMD   0x000eb2       data     extern E:\3.46\pic18-lt\cxx-framework\src\traditional\proc\p18f67j60.asm
                 MIREGADR   0x000eb4       data     extern E:\3.46\pic18-lt\cxx-framework\src\traditional\proc\p18f67j60.asm
                     MIWR   0x000eb6       data     extern E:\3.46\pic18-lt\cxx-framework\src\traditional\proc\p18f67j60.asm
                    MIWRL   0x000eb6       data     extern E:\3.46\pic18-lt\cxx-framework\src\traditional\proc\p18f67j60.asm
                    MIWRH   0x000eb7       data     extern E:\3.46\pic18-lt\cxx-framework\src\traditional\proc\p18f67j60.asm
                    MIRDL   0x000eb8       data     extern E:\3.46\pic18-lt\cxx-framework\src\traditional\proc\p18f67j60.asm
                     MIRD   0x000eb8       data     extern E:\3.46\pic18-lt\cxx-framework\src\traditional\proc\p18f67j60.asm
                    MIRDH   0x000eb9       data     extern E:\3.46\pic18-lt\cxx-framework\src\traditional\proc\p18f67j60.asm
                     EHT0   0x000ec0       data     extern E:\3.46\pic18-lt\cxx-framework\src\traditional\proc\p18f67j60.asm
                     EHT1   0x000ec1       data     extern E:\3.46\pic18-lt\cxx-framework\src\traditional\proc\p18f67j60.asm
                     EHT2   0x000ec2       data     extern E:\3.46\pic18-lt\cxx-framework\src\traditional\proc\p18f67j60.asm
                     EHT3   0x000ec3       data     extern E:\3.46\pic18-lt\cxx-framework\src\traditional\proc\p18f67j60.asm
                     EHT4   0x000ec4       data     extern E:\3.46\pic18-lt\cxx-framework\src\traditional\proc\p18f67j60.asm
                     EHT5   0x000ec5       data     extern E:\3.46\pic18-lt\cxx-framework\src\traditional\proc\p18f67j60.asm
                     EHT6   0x000ec6       data     extern E:\3.46\pic18-lt\cxx-framework\src\traditional\proc\p18f67j60.asm
                     EHT7   0x000ec7       data     extern E:\3.46\pic18-lt\cxx-framework\src\traditional\proc\p18f67j60.asm
                    EPMM0   0x000ec8       data     extern E:\3.46\pic18-lt\cxx-framework\src\traditional\proc\p18f67j60.asm
                    EPMM1   0x000ec9       data     extern E:\3.46\pic18-lt\cxx-framework\src\traditional\proc\p18f67j60.asm
                    EPMM2   0x000eca       data     extern E:\3.46\pic18-lt\cxx-framework\src\traditional\proc\p18f67j60.asm
                    EPMM3   0x000ecb       data     extern E:\3.46\pic18-lt\cxx-framework\src\traditional\proc\p18f67j60.asm
                    EPMM4   0x000ecc       data     extern E:\3.46\pic18-lt\cxx-framework\src\traditional\proc\p18f67j60.asm
                    EPMM5   0x000ecd       data     extern E:\3.46\pic18-lt\cxx-framework\src\traditional\proc\p18f67j60.asm
                    EPMM6   0x000ece       data     extern E:\3.46\pic18-lt\cxx-framework\src\traditional\proc\p18f67j60.asm
                    EPMM7   0x000ecf       data     extern E:\3.46\pic18-lt\cxx-framework\src\traditional\proc\p18f67j60.asm
                   EPMCSL   0x000ed0       data     extern E:\3.46\pic18-lt\cxx-framework\src\traditional\proc\p18f67j60.asm
                    EPMCS   0x000ed0       data     extern E:\3.46\pic18-lt\cxx-framework\src\traditional\proc\p18f67j60.asm
                   EPMCSH   0x000ed1       data     extern E:\3.46\pic18-lt\cxx-framework\src\traditional\proc\p18f67j60.asm
                    EPMOL   0x000ed4       data     extern E:\3.46\pic18-lt\cxx-framework\src\traditional\proc\p18f67j60.asm
                     EPMO   0x000ed4       data     extern E:\3.46\pic18-lt\cxx-framework\src\traditional\proc\p18f67j60.asm
                    EPMOH   0x000ed5       data     extern E:\3.46\pic18-lt\cxx-framework\src\traditional\proc\p18f67j60.asm
                  ERXFCON   0x000ed8       data     extern E:\3.46\pic18-lt\cxx-framework\src\traditional\proc\p18f67j60.asm
              ERXFCONbits   0x000ed8       data     extern E:\3.46\pic18-lt\cxx-framework\src\traditional\proc\p18f67j60.asm
                  EPKTCNT   0x000ed9       data     extern E:\3.46\pic18-lt\cxx-framework\src\traditional\proc\p18f67j60.asm
                    EWRPT   0x000ee2       data     extern E:\3.46\pic18-lt\cxx-framework\src\traditional\proc\p18f67j60.asm
                   EWRPTL   0x000ee2       data     extern E:\3.46\pic18-lt\cxx-framework\src\traditional\proc\p18f67j60.asm
                   EWRPTH   0x000ee3       data     extern E:\3.46\pic18-lt\cxx-framework\src\traditional\proc\p18f67j60.asm
                   ETXSTL   0x000ee4       data     extern E:\3.46\pic18-lt\cxx-framework\src\traditional\proc\p18f67j60.asm
                    ETXST   0x000ee4       data     extern E:\3.46\pic18-lt\cxx-framework\src\traditional\proc\p18f67j60.asm
                   ETXSTH   0x000ee5       data     extern E:\3.46\pic18-lt\cxx-framework\src\traditional\proc\p18f67j60.asm
                    ETXND   0x000ee6       data     extern E:\3.46\pic18-lt\cxx-framework\src\traditional\proc\p18f67j60.asm
                   ETXNDL   0x000ee6       data     extern E:\3.46\pic18-lt\cxx-framework\src\traditional\proc\p18f67j60.asm
                   ETXNDH   0x000ee7       data     extern E:\3.46\pic18-lt\cxx-framework\src\traditional\proc\p18f67j60.asm
                    ERXST   0x000ee8       data     extern E:\3.46\pic18-lt\cxx-framework\src\traditional\proc\p18f67j60.asm
                   ERXSTL   0x000ee8       data     extern E:\3.46\pic18-lt\cxx-framework\src\traditional\proc\p18f67j60.asm
                   ERXSTH   0x000ee9       data     extern E:\3.46\pic18-lt\cxx-framework\src\traditional\proc\p18f67j60.asm
                   ERXNDL   0x000eea       data     extern E:\3.46\pic18-lt\cxx-framework\src\traditional\proc\p18f67j60.asm
                    ERXND   0x000eea       data     extern E:\3.46\pic18-lt\cxx-framework\src\traditional\proc\p18f67j60.asm
                   ERXNDH   0x000eeb       data     extern E:\3.46\pic18-lt\cxx-framework\src\traditional\proc\p18f67j60.asm
                 ERXRDPTL   0x000eec       data     extern E:\3.46\pic18-lt\cxx-framework\src\traditional\proc\p18f67j60.asm
                  ERXRDPT   0x000eec       data     extern E:\3.46\pic18-lt\cxx-framework\src\traditional\proc\p18f67j60.asm
                 ERXRDPTH   0x000eed       data     extern E:\3.46\pic18-lt\cxx-framework\src\traditional\proc\p18f67j60.asm
                  ERXWRPT   0x000eee       data     extern E:\3.46\pic18-lt\cxx-framework\src\traditional\proc\p18f67j60.asm
                 ERXWRPTL   0x000eee       data     extern E:\3.46\pic18-lt\cxx-framework\src\traditional\proc\p18f67j60.asm
                 ERXWRPTH   0x000eef       data     extern E:\3.46\pic18-lt\cxx-framework\src\traditional\proc\p18f67j60.asm
                   EDMAST   0x000ef0       data     extern E:\3.46\pic18-lt\cxx-framework\src\traditional\proc\p18f67j60.asm
                  EDMASTL   0x000ef0       data     extern E:\3.46\pic18-lt\cxx-framework\src\traditional\proc\p18f67j60.asm
                  EDMASTH   0x000ef1       data     extern E:\3.46\pic18-lt\cxx-framework\src\traditional\proc\p18f67j60.asm
                  EDMANDL   0x000ef2       data     extern E:\3.46\pic18-lt\cxx-framework\src\traditional\proc\p18f67j60.asm
                   EDMAND   0x000ef2       data     extern E:\3.46\pic18-lt\cxx-framework\src\traditional\proc\p18f67j60.asm
                  EDMANDH   0x000ef3       data     extern E:\3.46\pic18-lt\cxx-framework\src\traditional\proc\p18f67j60.asm
                 EDMADSTL   0x000ef4       data     extern E:\3.46\pic18-lt\cxx-framework\src\traditional\proc\p18f67j60.asm
                  EDMADST   0x000ef4       data     extern E:\3.46\pic18-lt\cxx-framework\src\traditional\proc\p18f67j60.asm
                 EDMADSTH   0x000ef5       data     extern E:\3.46\pic18-lt\cxx-framework\src\traditional\proc\p18f67j60.asm
                   EDMACS   0x000ef6       data     extern E:\3.46\pic18-lt\cxx-framework\src\traditional\proc\p18f67j60.asm
                  EDMACSL   0x000ef6       data     extern E:\3.46\pic18-lt\cxx-framework\src\traditional\proc\p18f67j60.asm
                  EDMACSH   0x000ef7       data     extern E:\3.46\pic18-lt\cxx-framework\src\traditional\proc\p18f67j60.asm
                  EIEbits   0x000efb       data     extern E:\3.46\pic18-lt\cxx-framework\src\traditional\proc\p18f67j60.asm
                      EIE   0x000efb       data     extern E:\3.46\pic18-lt\cxx-framework\src\traditional\proc\p18f67j60.asm
                    ESTAT   0x000efd       data     extern E:\3.46\pic18-lt\cxx-framework\src\traditional\proc\p18f67j60.asm
                ESTATbits   0x000efd       data     extern E:\3.46\pic18-lt\cxx-framework\src\traditional\proc\p18f67j60.asm
                ECON2bits   0x000efe       data     extern E:\3.46\pic18-lt\cxx-framework\src\traditional\proc\p18f67j60.asm
                    ECON2   0x000efe       data     extern E:\3.46\pic18-lt\cxx-framework\src\traditional\proc\p18f67j60.asm
               SMTPClient   0x000f00       data     extern C:\Users\Tim\Desktop\PIC-WEB-5-42-UEXT-full\Microchip\TCPIP Stack\SMTP.c
               SMTPServer   0x000f22       data     static C:\Users\Tim\Desktop\PIC-WEB-5-42-UEXT-full\Microchip\TCPIP Stack\SMTP.c
                 CRPeriod   0x000f26       data     static C:\Users\Tim\Desktop\PIC-WEB-5-42-UEXT-full\Microchip\TCPIP Stack\SMTP.c
                SMTPState   0x000f28       data     static C:\Users\Tim\Desktop\PIC-WEB-5-42-UEXT-full\Microchip\TCPIP Stack\SMTP.c
          PutHeadersState   0x000f29       data     static C:\Users\Tim\Desktop\PIC-WEB-5-42-UEXT-full\Microchip\TCPIP Stack\SMTP.c
            RXParserState   0x000f2a       data     static C:\Users\Tim\Desktop\PIC-WEB-5-42-UEXT-full\Microchip\TCPIP Stack\SMTP.c
             ResponseCode   0x000f2b       data     static C:\Users\Tim\Desktop\PIC-WEB-5-42-UEXT-full\Microchip\TCPIP Stack\SMTP.c
                    Timer   0x000f2d       data     static C:\Users\Tim\Desktop\PIC-WEB-5-42-UEXT-full\Microchip\TCPIP Stack\SMTP.c
                 RXBuffer   0x000f31       data     static C:\Users\Tim\Desktop\PIC-WEB-5-42-UEXT-full\Microchip\TCPIP Stack\SMTP.c
                ROMStrPtr   0x000f35       data     static C:\Users\Tim\Desktop\PIC-WEB-5-42-UEXT-full\Microchip\TCPIP Stack\SMTP.c
               ROMStrPtr2   0x000f38       data     static C:\Users\Tim\Desktop\PIC-WEB-5-42-UEXT-full\Microchip\TCPIP Stack\SMTP.c
                RAMStrPtr   0x000f3b       data     static C:\Users\Tim\Desktop\PIC-WEB-5-42-UEXT-full\Microchip\TCPIP Stack\SMTP.c
           wAddressLength   0x000f3d       data     static C:\Users\Tim\Desktop\PIC-WEB-5-42-UEXT-full\Microchip\TCPIP Stack\SMTP.c
                        c   0x000f3f       data     static C:\Users\Tim\Desktop\PIC-WEB-5-42-UEXT-full\Microchip\TCPIP Stack\SMTP.c
              __SMTPPut:0   0x000f3f       data     extern C:\Users\Tim\Desktop\PIC-WEB-5-42-UEXT-full\Microchip\TCPIP Stack\SMTP.c
         __SMTPPutArray:0   0x000f40       data     extern C:\Users\Tim\Desktop\PIC-WEB-5-42-UEXT-full\Microchip\TCPIP Stack\SMTP.c
                     Data   0x000f40       data     static C:\Users\Tim\Desktop\PIC-WEB-5-42-UEXT-full\Microchip\TCPIP Stack\SMTP.c
                      Len   0x000f42       data     static C:\Users\Tim\Desktop\PIC-WEB-5-42-UEXT-full\Microchip\TCPIP Stack\SMTP.c
         __SMTPPutArray:1   0x000f42       data     extern C:\Users\Tim\Desktop\PIC-WEB-5-42-UEXT-full\Microchip\TCPIP Stack\SMTP.c
      __SMTPPutROMArray:0   0x000f44       data     extern C:\Users\Tim\Desktop\PIC-WEB-5-42-UEXT-full\Microchip\TCPIP Stack\SMTP.c
                     Data   0x000f44       data     static C:\Users\Tim\Desktop\PIC-WEB-5-42-UEXT-full\Microchip\TCPIP Stack\SMTP.c
                      Len   0x000f47       data     static C:\Users\Tim\Desktop\PIC-WEB-5-42-UEXT-full\Microchip\TCPIP Stack\SMTP.c
      __SMTPPutROMArray:1   0x000f47       data     extern C:\Users\Tim\Desktop\PIC-WEB-5-42-UEXT-full\Microchip\TCPIP Stack\SMTP.c
        __SMTPPutString:0   0x000f49       data     extern C:\Users\Tim\Desktop\PIC-WEB-5-42-UEXT-full\Microchip\TCPIP Stack\SMTP.c
                     Data   0x000f49       data     static C:\Users\Tim\Desktop\PIC-WEB-5-42-UEXT-full\Microchip\TCPIP Stack\SMTP.c
     __SMTPPutROMString:0   0x000f4b       data     extern C:\Users\Tim\Desktop\PIC-WEB-5-42-UEXT-full\Microchip\TCPIP Stack\SMTP.c
                     Data   0x000f4b       data     static C:\Users\Tim\Desktop\PIC-WEB-5-42-UEXT-full\Microchip\TCPIP Stack\SMTP.c
                      str   0x000f4e       data     static C:\Users\Tim\Desktop\PIC-WEB-5-42-UEXT-full\Microchip\TCPIP Stack\SMTP.c
     __FindEmailAddress:0   0x000f4e       data     static C:\Users\Tim\Desktop\PIC-WEB-5-42-UEXT-full\Microchip\TCPIP Stack\SMTP.c
                     wLen   0x000f50       data     static C:\Users\Tim\Desktop\PIC-WEB-5-42-UEXT-full\Microchip\TCPIP Stack\SMTP.c
     __FindEmailAddress:1   0x000f50       data     static C:\Users\Tim\Desktop\PIC-WEB-5-42-UEXT-full\Microchip\TCPIP Stack\SMTP.c
                      str   0x000f52       data     static C:\Users\Tim\Desktop\PIC-WEB-5-42-UEXT-full\Microchip\TCPIP Stack\SMTP.c
  __FindROMEmailAddress:0   0x000f52       data     static C:\Users\Tim\Desktop\PIC-WEB-5-42-UEXT-full\Microchip\TCPIP Stack\SMTP.c
                     wLen   0x000f55       data     static C:\Users\Tim\Desktop\PIC-WEB-5-42-UEXT-full\Microchip\TCPIP Stack\SMTP.c
  __FindROMEmailAddress:1   0x000f55       data     static C:\Users\Tim\Desktop\PIC-WEB-5-42-UEXT-full\Microchip\TCPIP Stack\SMTP.c
                 data_out   0x000f57       data     static C:\Users\Tim\Desktop\PIC-WEB-5-42-UEXT-full\TCPIP\Demo App\Olimex_Demo_Files\Custom_SPI_Low.c
            __WriteSPI1:0   0x000f57       data     extern C:\Users\Tim\Desktop\PIC-WEB-5-42-UEXT-full\TCPIP\Demo App\Olimex_Demo_Files\Custom_SPI_Low.c
                    rdptr   0x000f58       data     static C:\Users\Tim\Desktop\PIC-WEB-5-42-UEXT-full\TCPIP\Demo App\Olimex_Demo_Files\Custom_SPI_Low.c
             __getsSPI1:0   0x000f58       data     extern C:\Users\Tim\Desktop\PIC-WEB-5-42-UEXT-full\TCPIP\Demo App\Olimex_Demo_Files\Custom_SPI_Low.c
                   length   0x000f5a       data     static C:\Users\Tim\Desktop\PIC-WEB-5-42-UEXT-full\TCPIP\Demo App\Olimex_Demo_Files\Custom_SPI_Low.c
             __getsSPI1:1   0x000f5a       data     extern C:\Users\Tim\Desktop\PIC-WEB-5-42-UEXT-full\TCPIP\Demo App\Olimex_Demo_Files\Custom_SPI_Low.c
             __putsSPI1:0   0x000f5b       data     extern C:\Users\Tim\Desktop\PIC-WEB-5-42-UEXT-full\TCPIP\Demo App\Olimex_Demo_Files\Custom_SPI_Low.c
                    wrptr   0x000f5b       data     static C:\Users\Tim\Desktop\PIC-WEB-5-42-UEXT-full\TCPIP\Demo App\Olimex_Demo_Files\Custom_SPI_Low.c
                sync_mode   0x000f5d       data     static C:\Users\Tim\Desktop\PIC-WEB-5-42-UEXT-full\TCPIP\Demo App\Olimex_Demo_Files\Custom_SPI_Low.c
             __OpenSPI1:0   0x000f5d       data     extern C:\Users\Tim\Desktop\PIC-WEB-5-42-UEXT-full\TCPIP\Demo App\Olimex_Demo_Files\Custom_SPI_Low.c
                 bus_mode   0x000f5e       data     static C:\Users\Tim\Desktop\PIC-WEB-5-42-UEXT-full\TCPIP\Demo App\Olimex_Demo_Files\Custom_SPI_Low.c
             __OpenSPI1:1   0x000f5e       data     extern C:\Users\Tim\Desktop\PIC-WEB-5-42-UEXT-full\TCPIP\Demo App\Olimex_Demo_Files\Custom_SPI_Low.c
             __OpenSPI1:2   0x000f5f       data     extern C:\Users\Tim\Desktop\PIC-WEB-5-42-UEXT-full\TCPIP\Demo App\Olimex_Demo_Files\Custom_SPI_Low.c
                smp_phase   0x000f5f       data     static C:\Users\Tim\Desktop\PIC-WEB-5-42-UEXT-full\TCPIP\Demo App\Olimex_Demo_Files\Custom_SPI_Low.c
                  EIRbits   0x000f60       data     extern E:\3.46\pic18-lt\cxx-framework\src\traditional\proc\p18f67j60.asm
                      EIR   0x000f60       data     extern E:\3.46\pic18-lt\cxx-framework\src\traditional\proc\p18f67j60.asm
                EDATAbits   0x000f61       data     extern E:\3.46\pic18-lt\cxx-framework\src\traditional\proc\p18f67j60.asm
                    EDATA   0x000f61       data     extern E:\3.46\pic18-lt\cxx-framework\src\traditional\proc\p18f67j60.asm
                 ECCP2DEL   0x000f67       data     extern E:\3.46\pic18-lt\cxx-framework\src\traditional\proc\p18f67j60.asm
             ECCP2DELbits   0x000f67       data     extern E:\3.46\pic18-lt\cxx-framework\src\traditional\proc\p18f67j60.asm
                  ECCP2AS   0x000f68       data     extern E:\3.46\pic18-lt\cxx-framework\src\traditional\proc\p18f67j60.asm
              ECCP2ASbits   0x000f68       data     extern E:\3.46\pic18-lt\cxx-framework\src\traditional\proc\p18f67j60.asm
                 ECCP3DEL   0x000f69       data     extern E:\3.46\pic18-lt\cxx-framework\src\traditional\proc\p18f67j60.asm
             ECCP3DELbits   0x000f69       data     extern E:\3.46\pic18-lt\cxx-framework\src\traditional\proc\p18f67j60.asm
                  ECCP3AS   0x000f6a       data     extern E:\3.46\pic18-lt\cxx-framework\src\traditional\proc\p18f67j60.asm
              ECCP3ASbits   0x000f6a       data     extern E:\3.46\pic18-lt\cxx-framework\src\traditional\proc\p18f67j60.asm
                  CCP5CON   0x000f70       data     extern E:\3.46\pic18-lt\cxx-framework\src\traditional\proc\p18f67j60.asm
              CCP5CONbits   0x000f70       data     extern E:\3.46\pic18-lt\cxx-framework\src\traditional\proc\p18f67j60.asm
                    CCPR5   0x000f71       data     extern E:\3.46\pic18-lt\cxx-framework\src\traditional\proc\p18f67j60.asm
                   CCPR5L   0x000f71       data     extern E:\3.46\pic18-lt\cxx-framework\src\traditional\proc\p18f67j60.asm
                   CCPR5H   0x000f72       data     extern E:\3.46\pic18-lt\cxx-framework\src\traditional\proc\p18f67j60.asm
                  CCP4CON   0x000f73       data     extern E:\3.46\pic18-lt\cxx-framework\src\traditional\proc\p18f67j60.asm
              CCP4CONbits   0x000f73       data     extern E:\3.46\pic18-lt\cxx-framework\src\traditional\proc\p18f67j60.asm
                   CCPR4L   0x000f74       data     extern E:\3.46\pic18-lt\cxx-framework\src\traditional\proc\p18f67j60.asm
                    CCPR4   0x000f74       data     extern E:\3.46\pic18-lt\cxx-framework\src\traditional\proc\p18f67j60.asm
                   CCPR4H   0x000f75       data     extern E:\3.46\pic18-lt\cxx-framework\src\traditional\proc\p18f67j60.asm
                T4CONbits   0x000f76       data     extern E:\3.46\pic18-lt\cxx-framework\src\traditional\proc\p18f67j60.asm
                    T4CON   0x000f76       data     extern E:\3.46\pic18-lt\cxx-framework\src\traditional\proc\p18f67j60.asm
                      PR4   0x000f77       data     extern E:\3.46\pic18-lt\cxx-framework\src\traditional\proc\p18f67j60.asm
                     TMR4   0x000f78       data     extern E:\3.46\pic18-lt\cxx-framework\src\traditional\proc\p18f67j60.asm
                 ECCP1DEL   0x000f79       data     extern E:\3.46\pic18-lt\cxx-framework\src\traditional\proc\p18f67j60.asm
             ECCP1DELbits   0x000f79       data     extern E:\3.46\pic18-lt\cxx-framework\src\traditional\proc\p18f67j60.asm
                    ERDPT   0x000f7a       data     extern E:\3.46\pic18-lt\cxx-framework\src\traditional\proc\p18f67j60.asm
                   ERDPTL   0x000f7a       data     extern E:\3.46\pic18-lt\cxx-framework\src\traditional\proc\p18f67j60.asm
                   ERDPTH   0x000f7b       data     extern E:\3.46\pic18-lt\cxx-framework\src\traditional\proc\p18f67j60.asm
             BAUDCON1bits   0x000f7e       data     extern E:\3.46\pic18-lt\cxx-framework\src\traditional\proc\p18f67j60.asm
              BAUDCONbits   0x000f7e       data     extern E:\3.46\pic18-lt\cxx-framework\src\traditional\proc\p18f67j60.asm
                  BAUDCTL   0x000f7e       data     extern E:\3.46\pic18-lt\cxx-framework\src\traditional\proc\p18f67j60.asm
                 BAUDCTL1   0x000f7e       data     extern E:\3.46\pic18-lt\cxx-framework\src\traditional\proc\p18f67j60.asm
             BAUDCTL1bits   0x000f7e       data     extern E:\3.46\pic18-lt\cxx-framework\src\traditional\proc\p18f67j60.asm
                 BAUDCON1   0x000f7e       data     extern E:\3.46\pic18-lt\cxx-framework\src\traditional\proc\p18f67j60.asm
              BAUDCTLbits   0x000f7e       data     extern E:\3.46\pic18-lt\cxx-framework\src\traditional\proc\p18f67j60.asm
                  BAUDCON   0x000f7e       data     extern E:\3.46\pic18-lt\cxx-framework\src\traditional\proc\p18f67j60.asm
                  SPBRGH1   0x000f7f       data     extern E:\3.46\pic18-lt\cxx-framework\src\traditional\proc\p18f67j60.asm
                   SPBRGH   0x000f7f       data     extern E:\3.46\pic18-lt\cxx-framework\src\traditional\proc\p18f67j60.asm
                PORTAbits   0x000f80       data     extern E:\3.46\pic18-lt\cxx-framework\src\traditional\proc\p18f67j60.asm
                    PORTA   0x000f80       data     extern E:\3.46\pic18-lt\cxx-framework\src\traditional\proc\p18f67j60.asm
                    PORTB   0x000f81       data     extern E:\3.46\pic18-lt\cxx-framework\src\traditional\proc\p18f67j60.asm
                PORTBbits   0x000f81       data     extern E:\3.46\pic18-lt\cxx-framework\src\traditional\proc\p18f67j60.asm
                    PORTC   0x000f82       data     extern E:\3.46\pic18-lt\cxx-framework\src\traditional\proc\p18f67j60.asm
                PORTCbits   0x000f82       data     extern E:\3.46\pic18-lt\cxx-framework\src\traditional\proc\p18f67j60.asm
                    PORTD   0x000f83       data     extern E:\3.46\pic18-lt\cxx-framework\src\traditional\proc\p18f67j60.asm
                PORTDbits   0x000f83       data     extern E:\3.46\pic18-lt\cxx-framework\src\traditional\proc\p18f67j60.asm
                    PORTE   0x000f84       data     extern E:\3.46\pic18-lt\cxx-framework\src\traditional\proc\p18f67j60.asm
                PORTEbits   0x000f84       data     extern E:\3.46\pic18-lt\cxx-framework\src\traditional\proc\p18f67j60.asm
                PORTFbits   0x000f85       data     extern E:\3.46\pic18-lt\cxx-framework\src\traditional\proc\p18f67j60.asm
                    PORTF   0x000f85       data     extern E:\3.46\pic18-lt\cxx-framework\src\traditional\proc\p18f67j60.asm
                PORTGbits   0x000f86       data     extern E:\3.46\pic18-lt\cxx-framework\src\traditional\proc\p18f67j60.asm
                    PORTG   0x000f86       data     extern E:\3.46\pic18-lt\cxx-framework\src\traditional\proc\p18f67j60.asm
                     LATA   0x000f89       data     extern E:\3.46\pic18-lt\cxx-framework\src\traditional\proc\p18f67j60.asm
                 LATAbits   0x000f89       data     extern E:\3.46\pic18-lt\cxx-framework\src\traditional\proc\p18f67j60.asm
                     LATB   0x000f8a       data     extern E:\3.46\pic18-lt\cxx-framework\src\traditional\proc\p18f67j60.asm
                 LATBbits   0x000f8a       data     extern E:\3.46\pic18-lt\cxx-framework\src\traditional\proc\p18f67j60.asm
                     LATC   0x000f8b       data     extern E:\3.46\pic18-lt\cxx-framework\src\traditional\proc\p18f67j60.asm
                 LATCbits   0x000f8b       data     extern E:\3.46\pic18-lt\cxx-framework\src\traditional\proc\p18f67j60.asm
                     LATD   0x000f8c       data     extern E:\3.46\pic18-lt\cxx-framework\src\traditional\proc\p18f67j60.asm
                 LATDbits   0x000f8c       data     extern E:\3.46\pic18-lt\cxx-framework\src\traditional\proc\p18f67j60.asm
                 LATEbits   0x000f8d       data     extern E:\3.46\pic18-lt\cxx-framework\src\traditional\proc\p18f67j60.asm
                     LATE   0x000f8d       data     extern E:\3.46\pic18-lt\cxx-framework\src\traditional\proc\p18f67j60.asm
                 LATFbits   0x000f8e       data     extern E:\3.46\pic18-lt\cxx-framework\src\traditional\proc\p18f67j60.asm
                     LATF   0x000f8e       data     extern E:\3.46\pic18-lt\cxx-framework\src\traditional\proc\p18f67j60.asm
                 LATGbits   0x000f8f       data     extern E:\3.46\pic18-lt\cxx-framework\src\traditional\proc\p18f67j60.asm
                     LATG   0x000f8f       data     extern E:\3.46\pic18-lt\cxx-framework\src\traditional\proc\p18f67j60.asm
                TRISAbits   0x000f92       data     extern E:\3.46\pic18-lt\cxx-framework\src\traditional\proc\p18f67j60.asm
                    TRISA   0x000f92       data     extern E:\3.46\pic18-lt\cxx-framework\src\traditional\proc\p18f67j60.asm
                 DDRAbits   0x000f92       data     extern E:\3.46\pic18-lt\cxx-framework\src\traditional\proc\p18f67j60.asm
                     DDRA   0x000f92       data     extern E:\3.46\pic18-lt\cxx-framework\src\traditional\proc\p18f67j60.asm
                TRISBbits   0x000f93       data     extern E:\3.46\pic18-lt\cxx-framework\src\traditional\proc\p18f67j60.asm
                    TRISB   0x000f93       data     extern E:\3.46\pic18-lt\cxx-framework\src\traditional\proc\p18f67j60.asm
                 DDRBbits   0x000f93       data     extern E:\3.46\pic18-lt\cxx-framework\src\traditional\proc\p18f67j60.asm
                     DDRB   0x000f93       data     extern E:\3.46\pic18-lt\cxx-framework\src\traditional\proc\p18f67j60.asm
                 DDRCbits   0x000f94       data     extern E:\3.46\pic18-lt\cxx-framework\src\traditional\proc\p18f67j60.asm
                     DDRC   0x000f94       data     extern E:\3.46\pic18-lt\cxx-framework\src\traditional\proc\p18f67j60.asm
                    TRISC   0x000f94       data     extern E:\3.46\pic18-lt\cxx-framework\src\traditional\proc\p18f67j60.asm
                TRISCbits   0x000f94       data     extern E:\3.46\pic18-lt\cxx-framework\src\traditional\proc\p18f67j60.asm
                    TRISD   0x000f95       data     extern E:\3.46\pic18-lt\cxx-framework\src\traditional\proc\p18f67j60.asm
                 DDRDbits   0x000f95       data     extern E:\3.46\pic18-lt\cxx-framework\src\traditional\proc\p18f67j60.asm
                TRISDbits   0x000f95       data     extern E:\3.46\pic18-lt\cxx-framework\src\traditional\proc\p18f67j60.asm
                     DDRD   0x000f95       data     extern E:\3.46\pic18-lt\cxx-framework\src\traditional\proc\p18f67j60.asm
                     DDRE   0x000f96       data     extern E:\3.46\pic18-lt\cxx-framework\src\traditional\proc\p18f67j60.asm
                 DDREbits   0x000f96       data     extern E:\3.46\pic18-lt\cxx-framework\src\traditional\proc\p18f67j60.asm
                TRISEbits   0x000f96       data     extern E:\3.46\pic18-lt\cxx-framework\src\traditional\proc\p18f67j60.asm
                    TRISE   0x000f96       data     extern E:\3.46\pic18-lt\cxx-framework\src\traditional\proc\p18f67j60.asm
                 DDRFbits   0x000f97       data     extern E:\3.46\pic18-lt\cxx-framework\src\traditional\proc\p18f67j60.asm
                    TRISF   0x000f97       data     extern E:\3.46\pic18-lt\cxx-framework\src\traditional\proc\p18f67j60.asm
                     DDRF   0x000f97       data     extern E:\3.46\pic18-lt\cxx-framework\src\traditional\proc\p18f67j60.asm
                TRISFbits   0x000f97       data     extern E:\3.46\pic18-lt\cxx-framework\src\traditional\proc\p18f67j60.asm
                     DDRG   0x000f98       data     extern E:\3.46\pic18-lt\cxx-framework\src\traditional\proc\p18f67j60.asm
                 DDRGbits   0x000f98       data     extern E:\3.46\pic18-lt\cxx-framework\src\traditional\proc\p18f67j60.asm
                TRISGbits   0x000f98       data     extern E:\3.46\pic18-lt\cxx-framework\src\traditional\proc\p18f67j60.asm
                    TRISG   0x000f98       data     extern E:\3.46\pic18-lt\cxx-framework\src\traditional\proc\p18f67j60.asm
                  OSCTUNE   0x000f9b       data     extern E:\3.46\pic18-lt\cxx-framework\src\traditional\proc\p18f67j60.asm
              OSCTUNEbits   0x000f9b       data     extern E:\3.46\pic18-lt\cxx-framework\src\traditional\proc\p18f67j60.asm
                     PIE1   0x000f9d       data     extern E:\3.46\pic18-lt\cxx-framework\src\traditional\proc\p18f67j60.asm
                 PIE1bits   0x000f9d       data     extern E:\3.46\pic18-lt\cxx-framework\src\traditional\proc\p18f67j60.asm
                 PIR1bits   0x000f9e       data     extern E:\3.46\pic18-lt\cxx-framework\src\traditional\proc\p18f67j60.asm
                     PIR1   0x000f9e       data     extern E:\3.46\pic18-lt\cxx-framework\src\traditional\proc\p18f67j60.asm
                     IPR1   0x000f9f       data     extern E:\3.46\pic18-lt\cxx-framework\src\traditional\proc\p18f67j60.asm
                 IPR1bits   0x000f9f       data     extern E:\3.46\pic18-lt\cxx-framework\src\traditional\proc\p18f67j60.asm
                 PIE2bits   0x000fa0       data     extern E:\3.46\pic18-lt\cxx-framework\src\traditional\proc\p18f67j60.asm
                     PIE2   0x000fa0       data     extern E:\3.46\pic18-lt\cxx-framework\src\traditional\proc\p18f67j60.asm
                     PIR2   0x000fa1       data     extern E:\3.46\pic18-lt\cxx-framework\src\traditional\proc\p18f67j60.asm
                 PIR2bits   0x000fa1       data     extern E:\3.46\pic18-lt\cxx-framework\src\traditional\proc\p18f67j60.asm
                     IPR2   0x000fa2       data     extern E:\3.46\pic18-lt\cxx-framework\src\traditional\proc\p18f67j60.asm
                 IPR2bits   0x000fa2       data     extern E:\3.46\pic18-lt\cxx-framework\src\traditional\proc\p18f67j60.asm
                 PIE3bits   0x000fa3       data     extern E:\3.46\pic18-lt\cxx-framework\src\traditional\proc\p18f67j60.asm
                     PIE3   0x000fa3       data     extern E:\3.46\pic18-lt\cxx-framework\src\traditional\proc\p18f67j60.asm
                     PIR3   0x000fa4       data     extern E:\3.46\pic18-lt\cxx-framework\src\traditional\proc\p18f67j60.asm
                 PIR3bits   0x000fa4       data     extern E:\3.46\pic18-lt\cxx-framework\src\traditional\proc\p18f67j60.asm
                 IPR3bits   0x000fa5       data     extern E:\3.46\pic18-lt\cxx-framework\src\traditional\proc\p18f67j60.asm
                     IPR3   0x000fa5       data     extern E:\3.46\pic18-lt\cxx-framework\src\traditional\proc\p18f67j60.asm
               EECON1bits   0x000fa6       data     extern E:\3.46\pic18-lt\cxx-framework\src\traditional\proc\p18f67j60.asm
                   EECON1   0x000fa6       data     extern E:\3.46\pic18-lt\cxx-framework\src\traditional\proc\p18f67j60.asm
                   EECON2   0x000fa7       data     extern E:\3.46\pic18-lt\cxx-framework\src\traditional\proc\p18f67j60.asm
                RCSTAbits   0x000fab       data     extern E:\3.46\pic18-lt\cxx-framework\src\traditional\proc\p18f67j60.asm
               RCSTA1bits   0x000fab       data     extern E:\3.46\pic18-lt\cxx-framework\src\traditional\proc\p18f67j60.asm
                   RCSTA1   0x000fab       data     extern E:\3.46\pic18-lt\cxx-framework\src\traditional\proc\p18f67j60.asm
                    RCSTA   0x000fab       data     extern E:\3.46\pic18-lt\cxx-framework\src\traditional\proc\p18f67j60.asm
                   TXSTA1   0x000fac       data     extern E:\3.46\pic18-lt\cxx-framework\src\traditional\proc\p18f67j60.asm
                TXSTAbits   0x000fac       data     extern E:\3.46\pic18-lt\cxx-framework\src\traditional\proc\p18f67j60.asm
                    TXSTA   0x000fac       data     extern E:\3.46\pic18-lt\cxx-framework\src\traditional\proc\p18f67j60.asm
               TXSTA1bits   0x000fac       data     extern E:\3.46\pic18-lt\cxx-framework\src\traditional\proc\p18f67j60.asm
                   TXREG1   0x000fad       data     extern E:\3.46\pic18-lt\cxx-framework\src\traditional\proc\p18f67j60.asm
                    TXREG   0x000fad       data     extern E:\3.46\pic18-lt\cxx-framework\src\traditional\proc\p18f67j60.asm
                   RCREG1   0x000fae       data     extern E:\3.46\pic18-lt\cxx-framework\src\traditional\proc\p18f67j60.asm
                    RCREG   0x000fae       data     extern E:\3.46\pic18-lt\cxx-framework\src\traditional\proc\p18f67j60.asm
                    SPBRG   0x000faf       data     extern E:\3.46\pic18-lt\cxx-framework\src\traditional\proc\p18f67j60.asm
                   SPBRG1   0x000faf       data     extern E:\3.46\pic18-lt\cxx-framework\src\traditional\proc\p18f67j60.asm
                T3CONbits   0x000fb1       data     extern E:\3.46\pic18-lt\cxx-framework\src\traditional\proc\p18f67j60.asm
                    T3CON   0x000fb1       data     extern E:\3.46\pic18-lt\cxx-framework\src\traditional\proc\p18f67j60.asm
                    TMR3L   0x000fb2       data     extern E:\3.46\pic18-lt\cxx-framework\src\traditional\proc\p18f67j60.asm
                    TMR3H   0x000fb3       data     extern E:\3.46\pic18-lt\cxx-framework\src\traditional\proc\p18f67j60.asm
                    CMCON   0x000fb4       data     extern E:\3.46\pic18-lt\cxx-framework\src\traditional\proc\p18f67j60.asm
                CMCONbits   0x000fb4       data     extern E:\3.46\pic18-lt\cxx-framework\src\traditional\proc\p18f67j60.asm
                   CVRCON   0x000fb5       data     extern E:\3.46\pic18-lt\cxx-framework\src\traditional\proc\p18f67j60.asm
               CVRCONbits   0x000fb5       data     extern E:\3.46\pic18-lt\cxx-framework\src\traditional\proc\p18f67j60.asm
              ECCP1ASbits   0x000fb6       data     extern E:\3.46\pic18-lt\cxx-framework\src\traditional\proc\p18f67j60.asm
                  ECCP1AS   0x000fb6       data     extern E:\3.46\pic18-lt\cxx-framework\src\traditional\proc\p18f67j60.asm
              CCP3CONbits   0x000fb7       data     extern E:\3.46\pic18-lt\cxx-framework\src\traditional\proc\p18f67j60.asm
                  CCP3CON   0x000fb7       data     extern E:\3.46\pic18-lt\cxx-framework\src\traditional\proc\p18f67j60.asm
                 ECCP3CON   0x000fb7       data     extern E:\3.46\pic18-lt\cxx-framework\src\traditional\proc\p18f67j60.asm
             ECCP3CONbits   0x000fb7       data     extern E:\3.46\pic18-lt\cxx-framework\src\traditional\proc\p18f67j60.asm
                   CCPR3L   0x000fb8       data     extern E:\3.46\pic18-lt\cxx-framework\src\traditional\proc\p18f67j60.asm
                    CCPR3   0x000fb8       data     extern E:\3.46\pic18-lt\cxx-framework\src\traditional\proc\p18f67j60.asm
                   CCPR3H   0x000fb9       data     extern E:\3.46\pic18-lt\cxx-framework\src\traditional\proc\p18f67j60.asm
             ECCP2CONbits   0x000fba       data     extern E:\3.46\pic18-lt\cxx-framework\src\traditional\proc\p18f67j60.asm
              CCP2CONbits   0x000fba       data     extern E:\3.46\pic18-lt\cxx-framework\src\traditional\proc\p18f67j60.asm
                  CCP2CON   0x000fba       data     extern E:\3.46\pic18-lt\cxx-framework\src\traditional\proc\p18f67j60.asm
                 ECCP2CON   0x000fba       data     extern E:\3.46\pic18-lt\cxx-framework\src\traditional\proc\p18f67j60.asm
                   CCPR2L   0x000fbb       data     extern E:\3.46\pic18-lt\cxx-framework\src\traditional\proc\p18f67j60.asm
                    CCPR2   0x000fbb       data     extern E:\3.46\pic18-lt\cxx-framework\src\traditional\proc\p18f67j60.asm
                   CCPR2H   0x000fbc       data     extern E:\3.46\pic18-lt\cxx-framework\src\traditional\proc\p18f67j60.asm
              CCP1CONbits   0x000fbd       data     extern E:\3.46\pic18-lt\cxx-framework\src\traditional\proc\p18f67j60.asm
                 ECCP1CON   0x000fbd       data     extern E:\3.46\pic18-lt\cxx-framework\src\traditional\proc\p18f67j60.asm
             ECCP1CONbits   0x000fbd       data     extern E:\3.46\pic18-lt\cxx-framework\src\traditional\proc\p18f67j60.asm
                  CCP1CON   0x000fbd       data     extern E:\3.46\pic18-lt\cxx-framework\src\traditional\proc\p18f67j60.asm
                   CCPR1L   0x000fbe       data     extern E:\3.46\pic18-lt\cxx-framework\src\traditional\proc\p18f67j60.asm
                    CCPR1   0x000fbe       data     extern E:\3.46\pic18-lt\cxx-framework\src\traditional\proc\p18f67j60.asm
                   CCPR1H   0x000fbf       data     extern E:\3.46\pic18-lt\cxx-framework\src\traditional\proc\p18f67j60.asm
               ADCON2bits   0x000fc0       data     extern E:\3.46\pic18-lt\cxx-framework\src\traditional\proc\p18f67j60.asm
                   ADCON2   0x000fc0       data     extern E:\3.46\pic18-lt\cxx-framework\src\traditional\proc\p18f67j60.asm
               ADCON1bits   0x000fc1       data     extern E:\3.46\pic18-lt\cxx-framework\src\traditional\proc\p18f67j60.asm
                   ADCON1   0x000fc1       data     extern E:\3.46\pic18-lt\cxx-framework\src\traditional\proc\p18f67j60.asm
               ADCON0bits   0x000fc2       data     extern E:\3.46\pic18-lt\cxx-framework\src\traditional\proc\p18f67j60.asm
                   ADCON0   0x000fc2       data     extern E:\3.46\pic18-lt\cxx-framework\src\traditional\proc\p18f67j60.asm
                   ADRESL   0x000fc3       data     extern E:\3.46\pic18-lt\cxx-framework\src\traditional\proc\p18f67j60.asm
                    ADRES   0x000fc3       data     extern E:\3.46\pic18-lt\cxx-framework\src\traditional\proc\p18f67j60.asm
                   ADRESH   0x000fc4       data     extern E:\3.46\pic18-lt\cxx-framework\src\traditional\proc\p18f67j60.asm
              SSPCON2bits   0x000fc5       data     extern E:\3.46\pic18-lt\cxx-framework\src\traditional\proc\p18f67j60.asm
                  SSPCON2   0x000fc5       data     extern E:\3.46\pic18-lt\cxx-framework\src\traditional\proc\p18f67j60.asm
             SSP1CON2bits   0x000fc5       data     extern E:\3.46\pic18-lt\cxx-framework\src\traditional\proc\p18f67j60.asm
                 SSP1CON2   0x000fc5       data     extern E:\3.46\pic18-lt\cxx-framework\src\traditional\proc\p18f67j60.asm
              SSPCON1bits   0x000fc6       data     extern E:\3.46\pic18-lt\cxx-framework\src\traditional\proc\p18f67j60.asm
                  SSPCON1   0x000fc6       data     extern E:\3.46\pic18-lt\cxx-framework\src\traditional\proc\p18f67j60.asm
                 SSP1CON1   0x000fc6       data     extern E:\3.46\pic18-lt\cxx-framework\src\traditional\proc\p18f67j60.asm
             SSP1CON1bits   0x000fc6       data     extern E:\3.46\pic18-lt\cxx-framework\src\traditional\proc\p18f67j60.asm
              SSPSTATbits   0x000fc7       data     extern E:\3.46\pic18-lt\cxx-framework\src\traditional\proc\p18f67j60.asm
                 SSP1STAT   0x000fc7       data     extern E:\3.46\pic18-lt\cxx-framework\src\traditional\proc\p18f67j60.asm
             SSP1STATbits   0x000fc7       data     extern E:\3.46\pic18-lt\cxx-framework\src\traditional\proc\p18f67j60.asm
                  SSPSTAT   0x000fc7       data     extern E:\3.46\pic18-lt\cxx-framework\src\traditional\proc\p18f67j60.asm
                   SSPADD   0x000fc8       data     extern E:\3.46\pic18-lt\cxx-framework\src\traditional\proc\p18f67j60.asm
                  SSP1ADD   0x000fc8       data     extern E:\3.46\pic18-lt\cxx-framework\src\traditional\proc\p18f67j60.asm
                   SSPBUF   0x000fc9       data     extern E:\3.46\pic18-lt\cxx-framework\src\traditional\proc\p18f67j60.asm
                  SSP1BUF   0x000fc9       data     extern E:\3.46\pic18-lt\cxx-framework\src\traditional\proc\p18f67j60.asm
                    T2CON   0x000fca       data     extern E:\3.46\pic18-lt\cxx-framework\src\traditional\proc\p18f67j60.asm
                T2CONbits   0x000fca       data     extern E:\3.46\pic18-lt\cxx-framework\src\traditional\proc\p18f67j60.asm
                      PR2   0x000fcb       data     extern E:\3.46\pic18-lt\cxx-framework\src\traditional\proc\p18f67j60.asm
                     TMR2   0x000fcc       data     extern E:\3.46\pic18-lt\cxx-framework\src\traditional\proc\p18f67j60.asm
                    T1CON   0x000fcd       data     extern E:\3.46\pic18-lt\cxx-framework\src\traditional\proc\p18f67j60.asm
                T1CONbits   0x000fcd       data     extern E:\3.46\pic18-lt\cxx-framework\src\traditional\proc\p18f67j60.asm
                    TMR1L   0x000fce       data     extern E:\3.46\pic18-lt\cxx-framework\src\traditional\proc\p18f67j60.asm
                    TMR1H   0x000fcf       data     extern E:\3.46\pic18-lt\cxx-framework\src\traditional\proc\p18f67j60.asm
                 RCONbits   0x000fd0       data     extern E:\3.46\pic18-lt\cxx-framework\src\traditional\proc\p18f67j60.asm
                     RCON   0x000fd0       data     extern E:\3.46\pic18-lt\cxx-framework\src\traditional\proc\p18f67j60.asm
               WDTCONbits   0x000fd1       data     extern E:\3.46\pic18-lt\cxx-framework\src\traditional\proc\p18f67j60.asm
                   WDTCON   0x000fd1       data     extern E:\3.46\pic18-lt\cxx-framework\src\traditional\proc\p18f67j60.asm
                    ECON1   0x000fd2       data     extern E:\3.46\pic18-lt\cxx-framework\src\traditional\proc\p18f67j60.asm
                ECON1bits   0x000fd2       data     extern E:\3.46\pic18-lt\cxx-framework\src\traditional\proc\p18f67j60.asm
                   OSCCON   0x000fd3       data     extern E:\3.46\pic18-lt\cxx-framework\src\traditional\proc\p18f67j60.asm
               OSCCONbits   0x000fd3       data     extern E:\3.46\pic18-lt\cxx-framework\src\traditional\proc\p18f67j60.asm
                    T0CON   0x000fd5       data     extern E:\3.46\pic18-lt\cxx-framework\src\traditional\proc\p18f67j60.asm
                T0CONbits   0x000fd5       data     extern E:\3.46\pic18-lt\cxx-framework\src\traditional\proc\p18f67j60.asm
                    TMR0L   0x000fd6       data     extern E:\3.46\pic18-lt\cxx-framework\src\traditional\proc\p18f67j60.asm
                    TMR0H   0x000fd7       data     extern E:\3.46\pic18-lt\cxx-framework\src\traditional\proc\p18f67j60.asm
               STATUSbits   0x000fd8       data     extern E:\3.46\pic18-lt\cxx-framework\src\traditional\proc\p18f67j60.asm
                   STATUS   0x000fd8       data     extern E:\3.46\pic18-lt\cxx-framework\src\traditional\proc\p18f67j60.asm
                    FSR2L   0x000fd9       data     extern E:\3.46\pic18-lt\cxx-framework\src\traditional\proc\p18f67j60.asm
                     FSR2   0x000fd9       data     extern E:\3.46\pic18-lt\cxx-framework\src\traditional\proc\p18f67j60.asm
                    FSR2H   0x000fda       data     extern E:\3.46\pic18-lt\cxx-framework\src\traditional\proc\p18f67j60.asm
                   PLUSW2   0x000fdb       data     extern E:\3.46\pic18-lt\cxx-framework\src\traditional\proc\p18f67j60.asm
                  PREINC2   0x000fdc       data     extern E:\3.46\pic18-lt\cxx-framework\src\traditional\proc\p18f67j60.asm
                 POSTDEC2   0x000fdd       data     extern E:\3.46\pic18-lt\cxx-framework\src\traditional\proc\p18f67j60.asm
                 POSTINC2   0x000fde       data     extern E:\3.46\pic18-lt\cxx-framework\src\traditional\proc\p18f67j60.asm
                    INDF2   0x000fdf       data     extern E:\3.46\pic18-lt\cxx-framework\src\traditional\proc\p18f67j60.asm
                      BSR   0x000fe0       data     extern E:\3.46\pic18-lt\cxx-framework\src\traditional\proc\p18f67j60.asm
                    FSR1L   0x000fe1       data     extern E:\3.46\pic18-lt\cxx-framework\src\traditional\proc\p18f67j60.asm
                     FSR1   0x000fe1       data     extern E:\3.46\pic18-lt\cxx-framework\src\traditional\proc\p18f67j60.asm
                    FSR1H   0x000fe2       data     extern E:\3.46\pic18-lt\cxx-framework\src\traditional\proc\p18f67j60.asm
                   PLUSW1   0x000fe3       data     extern E:\3.46\pic18-lt\cxx-framework\src\traditional\proc\p18f67j60.asm
                  PREINC1   0x000fe4       data     extern E:\3.46\pic18-lt\cxx-framework\src\traditional\proc\p18f67j60.asm
                 POSTDEC1   0x000fe5       data     extern E:\3.46\pic18-lt\cxx-framework\src\traditional\proc\p18f67j60.asm
                 POSTINC1   0x000fe6       data     extern E:\3.46\pic18-lt\cxx-framework\src\traditional\proc\p18f67j60.asm
                    INDF1   0x000fe7       data     extern E:\3.46\pic18-lt\cxx-framework\src\traditional\proc\p18f67j60.asm
                     WREG   0x000fe8       data     extern E:\3.46\pic18-lt\cxx-framework\src\traditional\proc\p18f67j60.asm
                     FSR0   0x000fe9       data     extern E:\3.46\pic18-lt\cxx-framework\src\traditional\proc\p18f67j60.asm
                    FSR0L   0x000fe9       data     extern E:\3.46\pic18-lt\cxx-framework\src\traditional\proc\p18f67j60.asm
                    FSR0H   0x000fea       data     extern E:\3.46\pic18-lt\cxx-framework\src\traditional\proc\p18f67j60.asm
                   PLUSW0   0x000feb       data     extern E:\3.46\pic18-lt\cxx-framework\src\traditional\proc\p18f67j60.asm
                  PREINC0   0x000fec       data     extern E:\3.46\pic18-lt\cxx-framework\src\traditional\proc\p18f67j60.asm
                 POSTDEC0   0x000fed       data     extern E:\3.46\pic18-lt\cxx-framework\src\traditional\proc\p18f67j60.asm
                 POSTINC0   0x000fee       data     extern E:\3.46\pic18-lt\cxx-framework\src\traditional\proc\p18f67j60.asm
                    INDF0   0x000fef       data     extern E:\3.46\pic18-lt\cxx-framework\src\traditional\proc\p18f67j60.asm
                  INTCON3   0x000ff0       data     extern E:\3.46\pic18-lt\cxx-framework\src\traditional\proc\p18f67j60.asm
              INTCON3bits   0x000ff0       data     extern E:\3.46\pic18-lt\cxx-framework\src\traditional\proc\p18f67j60.asm
                  INTCON2   0x000ff1       data     extern E:\3.46\pic18-lt\cxx-framework\src\traditional\proc\p18f67j60.asm
              INTCON2bits   0x000ff1       data     extern E:\3.46\pic18-lt\cxx-framework\src\traditional\proc\p18f67j60.asm
                   INTCON   0x000ff2       data     extern E:\3.46\pic18-lt\cxx-framework\src\traditional\proc\p18f67j60.asm
               INTCONbits   0x000ff2       data     extern E:\3.46\pic18-lt\cxx-framework\src\traditional\proc\p18f67j60.asm
                    PRODL   0x000ff3       data     extern E:\3.46\pic18-lt\cxx-framework\src\traditional\proc\p18f67j60.asm
                     PROD   0x000ff3       data     extern E:\3.46\pic18-lt\cxx-framework\src\traditional\proc\p18f67j60.asm
                    PRODH   0x000ff4       data     extern E:\3.46\pic18-lt\cxx-framework\src\traditional\proc\p18f67j60.asm
                   TABLAT   0x000ff5       data     extern E:\3.46\pic18-lt\cxx-framework\src\traditional\proc\p18f67j60.asm
                  TBLPTRL   0x000ff6       data     extern E:\3.46\pic18-lt\cxx-framework\src\traditional\proc\p18f67j60.asm
                   TBLPTR   0x000ff6       data     extern E:\3.46\pic18-lt\cxx-framework\src\traditional\proc\p18f67j60.asm
                  TBLPTRH   0x000ff7       data     extern E:\3.46\pic18-lt\cxx-framework\src\traditional\proc\p18f67j60.asm
                  TBLPTRU   0x000ff8       data     extern E:\3.46\pic18-lt\cxx-framework\src\traditional\proc\p18f67j60.asm
                      PCL   0x000ff9       data     extern E:\3.46\pic18-lt\cxx-framework\src\traditional\proc\p18f67j60.asm
                       PC   0x000ff9       data     extern E:\3.46\pic18-lt\cxx-framework\src\traditional\proc\p18f67j60.asm
                   PCLATH   0x000ffa       data     extern E:\3.46\pic18-lt\cxx-framework\src\traditional\proc\p18f67j60.asm
                   PCLATU   0x000ffb       data     extern E:\3.46\pic18-lt\cxx-framework\src\traditional\proc\p18f67j60.asm
               STKPTRbits   0x000ffc       data     extern E:\3.46\pic18-lt\cxx-framework\src\traditional\proc\p18f67j60.asm
                   STKPTR   0x000ffc       data     extern E:\3.46\pic18-lt\cxx-framework\src\traditional\proc\p18f67j60.asm
                      TOS   0x000ffd       data     extern E:\3.46\pic18-lt\cxx-framework\src\traditional\proc\p18f67j60.asm
                     TOSL   0x000ffd       data     extern E:\3.46\pic18-lt\cxx-framework\src\traditional\proc\p18f67j60.asm
                     TOSH   0x000ffe       data     extern E:\3.46\pic18-lt\cxx-framework\src\traditional\proc\p18f67j60.asm
                     TOSU   0x000fff       data     extern E:\3.46\pic18-lt\cxx-framework\src\traditional\proc\p18f67j60.asm


